; Listing generated by Microsoft (R) Optimizing Compiler Version 19.41.34123.0 

include listing.inc

INCLUDELIB OLDNAMES

PUBLIC	??_C@_0BC@EOODALEL@Unknown?5exception@		; `string'
PUBLIC	??_C@_0BF@KINCDENJ@bad?5array?5new?5length@	; `string'
PUBLIC	??_C@_0BA@JFNIOLAK@string?5too?5long@		; `string'
PUBLIC	??_C@_00CNPNBAHC@@				; `string'
PUBLIC	??_C@_0BP@NBAOJPMG@invalid?5char?5filename?5argument@ ; `string'
PUBLIC	??_C@_01KICIPPFI@?2@				; `string'
PUBLIC	??_C@_1CG@JNMJDDHN@?$AA?2?$AA?2?$AA?4?$AA?2?$AAP?$AAh?$AAy?$AAs?$AAi?$AAc?$AAa?$AAl?$AAD?$AAr?$AAi@ ; `string'
PUBLIC	??_C@_0P@INGIGIMB@DisableTaskMgr@		; `string'
PUBLIC	??_C@_0DK@CJDIKJOC@SOFTWARE?2Microsoft?2Windows?2Curr@ ; `string'
PUBLIC	??_C@_09IMBMLODE@EnableLUA@			; `string'
PUBLIC	??_C@_03ICICOMAL@yes@				; `string'
PUBLIC	??_C@_0BD@DCIOLECF@HostAutoStartCheck@		; `string'
PUBLIC	??_C@_0DF@GMNNLOFG@SOFTWARE?2Microsoft?2Windows?5NT?2C@ ; `string'
PUBLIC	??_C@_0BH@MFPEAJCD@Jf?$CDAD?$EA83g$?$CG?$CGdA64?$CFq$?4MZ@ ; `string'
PUBLIC	??_C@_0HO@BPPKKBDB@?B?M?H?L?$MA?M?H?E?$CB?6?6?D?$OA?m?m?$OA?$PP?5?o?p?n?c?p?$OA?l?l?$OA?5?m?$OA?m@ ; `string'
PUBLIC	??_C@_0FE@BCHAIGKO@?B?M?H?L?$MA?M?H?E?$CB?6?6?D?$OA?m?m?n?e?5?O?N?5?g?$OA?o?p?e?y?e?m?n?5@ ; `string'
PUBLIC	??_C@_0BO@HAPACGIG@?$MA?b?r?n?p?3?5EgorBeLike?6?B?e?p?q?h?$PP?3?51?40@ ; `string'
PUBLIC	??_C@_04HMIIHGGM@Path@				; `string'
PUBLIC	??_C@_0DN@HEBDCBJD@SYSTEM?2CurrentControlSet?2Contro@ ; `string'
PUBLIC	??_C@_01ICJEACDI@?$DL@				; `string'
PUBLIC	??_C@_0CC@PGBJLEPD@invalid?5wchar_t?5filename?5argume@ ; `string'
PUBLIC	??_C@_0N@LPFKKEBD@?3AM?3am?3PM?3pm@		; `string'
PUBLIC	??_C@_0BJ@DHFDPMIM@invalid?5vector?5subscript@	; `string'
PUBLIC	??_C@_0BI@CFPLBAOH@invalid?5string?5position@	; `string'
PUBLIC	??_C@_1BK@MHIKGOKE@?$AA?3?$AAA?$AAM?$AA?3?$AAa?$AAm?$AA?3?$AAP?$AAM?$AA?3?$AAp?$AAm@ ; `string'
PUBLIC	??_C@_0BA@FOIKENOD@vector?5too?5long@		; `string'
PUBLIC	tls_callback_func
PUBLIC	??_R4exception@std@@6B@				; std::exception::`RTTI Complete Object Locator'
PUBLIC	??_R2bad_array_new_length@std@@8		; std::bad_array_new_length::`RTTI Base Class Array'
PUBLIC	??_R0?AVbad_alloc@std@@@8			; std::bad_alloc `RTTI Type Descriptor'
PUBLIC	??_R2bad_alloc@std@@8				; std::bad_alloc::`RTTI Base Class Array'
PUBLIC	_CTA3?AVbad_array_new_length@std@@
PUBLIC	??_7bad_array_new_length@std@@6B@		; std::bad_array_new_length::`vftable'
PUBLIC	??_R1A@?0A@EA@exception@std@@8			; std::exception::`RTTI Base Class Descriptor at (0,-1,0,64)'
PUBLIC	??_R1A@?0A@EA@bad_alloc@std@@8			; std::bad_alloc::`RTTI Base Class Descriptor at (0,-1,0,64)'
PUBLIC	??_7bad_alloc@std@@6B@				; std::bad_alloc::`vftable'
PUBLIC	??_R2exception@std@@8				; std::exception::`RTTI Base Class Array'
PUBLIC	??_7exception@std@@6B@				; std::exception::`vftable'
PUBLIC	??_R3exception@std@@8				; std::exception::`RTTI Class Hierarchy Descriptor'
PUBLIC	_CT??_R0?AVbad_array_new_length@std@@@8??0bad_array_new_length@std@@QEAA@AEBV01@@Z24
PUBLIC	?_Fake_alloc@std@@3U_Fake_allocator@1@B		; std::_Fake_alloc
PUBLIC	??_R4bad_alloc@std@@6B@				; std::bad_alloc::`RTTI Complete Object Locator'
PUBLIC	??_R3bad_array_new_length@std@@8		; std::bad_array_new_length::`RTTI Class Hierarchy Descriptor'
PUBLIC	_CT??_R0?AVbad_alloc@std@@@8??0bad_alloc@std@@QEAA@AEBV01@@Z24
PUBLIC	??_R3bad_alloc@std@@8				; std::bad_alloc::`RTTI Class Hierarchy Descriptor'
PUBLIC	??_R4bad_array_new_length@std@@6B@		; std::bad_array_new_length::`RTTI Complete Object Locator'
PUBLIC	??_R1A@?0A@EA@bad_array_new_length@std@@8	; std::bad_array_new_length::`RTTI Base Class Descriptor at (0,-1,0,64)'
PUBLIC	_CT??_R0?AVexception@std@@@8??0exception@std@@QEAA@AEBV01@@Z24
PUBLIC	_TI3?AVbad_array_new_length@std@@
PUBLIC	??_R0?AVexception@std@@@8			; std::exception `RTTI Type Descriptor'
PUBLIC	??_R0?AVbad_array_new_length@std@@@8		; std::bad_array_new_length `RTTI Type Descriptor'
PUBLIC	?curInf@@3UtagCURSORINFO@@A			; curInf
EXTRN	__imp_?_Getcvt@_Locinfo@std@@QEBA?AU_Cvtvec@@XZ:PROC
EXTRN	__imp_?_Getdays@_Locinfo@std@@QEBAPEBDXZ:PROC
EXTRN	__imp_?_Getmonths@_Locinfo@std@@QEBAPEBDXZ:PROC
EXTRN	__imp_?_W_Getdays@_Locinfo@std@@QEBAPEBGXZ:PROC
EXTRN	__imp_?_W_Getmonths@_Locinfo@std@@QEBAPEBGXZ:PROC
EXTRN	__imp_BitBlt:PROC
EXTRN	__imp_IsDebuggerPresent:PROC
EXTRN	__imp__invalid_parameter_noinfo_noreturn:PROC
EXTRN	??_7type_info@@6B@:BYTE				; type_info::`vftable'
EXTRN	__imp_waveOutWrite:PROC
EXTRN	__imp_GetDC:PROC
EXTRN	__imp_SHGetStockIconInfo:PROC
EXTRN	__imp_RegOpenKeyA:PROC
EXTRN	__imp___std_terminate:PROC
EXTRN	__imp_StretchBlt:PROC
EXTRN	__imp_GetSystemMetrics:PROC
EXTRN	__imp__time64:PROC
EXTRN	??_U@YAPEAX_K@Z:PROC				; operator new[]
EXTRN	__imp_RegQueryValueExA:PROC
EXTRN	__imp_DrawIcon:PROC
EXTRN	__imp_CreateThread:PROC
EXTRN	__imp_FreeConsole:PROC
EXTRN	__imp_GetCursorInfo:PROC
EXTRN	__imp_CloseHandle:PROC
EXTRN	__imp_waveOutClose:PROC
EXTRN	__imp_RtlAdjustPrivilege:PROC
EXTRN	__imp_NtRaiseHardError:PROC
EXTRN	__imp_waveOutReset:PROC
EXTRN	__imp_Sleep:PROC
EXTRN	??3@YAXPEAX_K@Z:PROC				; operator delete
EXTRN	??3@YAXPEAX@Z:PROC				; operator delete
EXTRN	atexit:PROC
EXTRN	__imp_MessageBoxA:PROC
EXTRN	__imp_ExitThread:PROC
EXTRN	__imp_GetForegroundWindow:PROC
EXTRN	__imp_rand:PROC
EXTRN	__imp___std_exception_copy:PROC
EXTRN	__imp_CreateFileW:PROC
EXTRN	__imp_RegSetValueExA:PROC
EXTRN	__imp_LoadIconW:PROC
EXTRN	__imp_?_Xlength_error@std@@YAXPEBD@Z:PROC
EXTRN	__imp_?_Xout_of_range@std@@YAXPEBD@Z:PROC
EXTRN	__imp_?_Xinvalid_argument@std@@YAXPEBD@Z:PROC
EXTRN	__imp_?_Xbad_alloc@std@@YAXXZ:PROC
EXTRN	__imp__To_byte:PROC
EXTRN	__imp__To_wide:PROC
EXTRN	__imp_waveOutOpen:PROC
EXTRN	??2@YAPEAX_K@Z:PROC				; operator new
EXTRN	__imp_waveOutPrepareHeader:PROC
EXTRN	__imp_srand:PROC
EXTRN	__imp_WriteFile:PROC
EXTRN	__imp_calloc:PROC
EXTRN	__imp__Mbrtowc:PROC
EXTRN	__imp___std_exception_destroy:PROC
EXTRN	__imp_GetModuleFileNameA:PROC
EXTRN	__security_check_cookie:PROC
EXTRN	__imp___CxxFrameHandler4:PROC
;	COMDAT ?x@?1??ScratchGDI@@YAXH@Z@4HA
_BSS	SEGMENT
?x@?1??ScratchGDI@@YAXH@Z@4HA DD 01H DUP (?)		; `ScratchGDI'::`2'::x
?curInf@@3UtagCURSORINFO@@A DB 018H DUP (?)		; curInf
_BSS	ENDS
;	COMDAT ??_R0?AVbad_array_new_length@std@@@8
data$r	SEGMENT
??_R0?AVbad_array_new_length@std@@@8 DQ FLAT:??_7type_info@@6B@ ; std::bad_array_new_length `RTTI Type Descriptor'
	DQ	0000000000000000H
	DB	'.?AVbad_array_new_length@std@@', 00H
data$r	ENDS
;	COMDAT ??_R0?AVexception@std@@@8
data$r	SEGMENT
??_R0?AVexception@std@@@8 DQ FLAT:??_7type_info@@6B@	; std::exception `RTTI Type Descriptor'
	DQ	0000000000000000H
	DB	'.?AVexception@std@@', 00H
data$r	ENDS
;	COMDAT _TI3?AVbad_array_new_length@std@@
xdata$x	SEGMENT
_TI3?AVbad_array_new_length@std@@ DD 00H
	DD	imagerel ??1bad_array_new_length@std@@UEAA@XZ
	DD	00H
	DD	imagerel _CTA3?AVbad_array_new_length@std@@
xdata$x	ENDS
;	COMDAT _CT??_R0?AVexception@std@@@8??0exception@std@@QEAA@AEBV01@@Z24
xdata$x	SEGMENT
_CT??_R0?AVexception@std@@@8??0exception@std@@QEAA@AEBV01@@Z24 DD 00H
	DD	imagerel ??_R0?AVexception@std@@@8
	DD	00H
	DD	0ffffffffH
	ORG $+4
	DD	018H
	DD	imagerel ??0exception@std@@QEAA@AEBV01@@Z
xdata$x	ENDS
;	COMDAT ??_R1A@?0A@EA@bad_array_new_length@std@@8
rdata$r	SEGMENT
??_R1A@?0A@EA@bad_array_new_length@std@@8 DD imagerel ??_R0?AVbad_array_new_length@std@@@8 ; std::bad_array_new_length::`RTTI Base Class Descriptor at (0,-1,0,64)'
	DD	02H
	DD	00H
	DD	0ffffffffH
	DD	00H
	DD	040H
	DD	imagerel ??_R3bad_array_new_length@std@@8
?MasterBootRecord@@3QBEB DB 088H			; MasterBootRecord
	DB	016H
	DB	03aH
	DB	07dH
	DB	0bbH
	DB	0e0H
	DB	07H
	DB	08eH
	DB	0c3H
	DB	08eH
	DB	0dbH
	DB	0b8H
	DB	016H
	DB	02H
	DB	0b9H
	DB	03H
	DB	00H
	DB	0b6H
	DB	00H
	DB	0bbH
	DB	00H
	DB	00H
	DB	0cdH
	DB	013H
	DB	031H
	DB	0c0H
	DB	089H
	DB	0c3H
	DB	089H
	DB	0c1H
	DB	089H
	DB	0c2H
	DB	0beH
	DB	00H
	DB	00H
	DB	0bfH
	DB	05bH
	DB	029H
	DB	0acH
	DB	081H
	DB	0feH
	DB	05bH
	DB	029H
	DB	073H
	DB	031H
	DB	03cH
	DB	080H
	DB	073H
	DB	02H
	DB	0ebH
	DB	0fH
	DB	024H
	DB	07fH
	DB	088H
	DB	0c1H
	DB	0acH
	DB	0aaH
	DB	0feH
	DB	0c9H
	DB	080H
	DB	0f9H
	DB	0ffH
	DB	075H
	DB	0f7H
	DB	0ebH
	DB	0e4H
	DB	0b4H
	DB	00H
	DB	03cH
	DB	040H
	DB	072H
	DB	05H
	DB	024H
	DB	03fH
	DB	088H
	DB	0c4H
	DB	0acH
	DB	089H
	DB	0c1H
	DB	0adH
	DB	089H
	DB	0f2H
	DB	089H
	DB	0feH
	DB	029H
	DB	0c6H
	DB	0acH
	DB	0aaH
	DB	0e2H
	DB	0fcH
	DB	089H
	DB	0d6H
	DB	0ebH
	DB	0c8H
	DB	0b8H
	DB	013H
	DB	00H
	DB	0cdH
	DB	010H
	DB	0bbH
	DB	0e0H
	DB	07H
	DB	08eH
	DB	0dbH
	DB	0beH
	DB	05bH
	DB	029H
	DB	0b4H
	DB	00H
	DB	0acH
	DB	0bbH
	DB	00H
	DB	00H
	DB	089H
	DB	0c1H
	DB	0baH
	DB	0c8H
	DB	03H
	DB	088H
	DB	0d8H
	DB	0eeH
	DB	043H
	DB	0baH
	DB	0c9H
	DB	03H
	DB	0acH
	DB	0eeH
	DB	0acH
	DB	0eeH
	DB	0acH
	DB	0eeH
	DB	0e2H
	DB	0eeH
	DB	0bbH
	DB	00H
	DB	0a0H
	DB	08eH
	DB	0c3H
	DB	0bfH
	DB	00H
	DB	00H
	DB	0b9H
	DB	00H
	DB	07dH
	DB	0f3H
	DB	0a5H
	DB	0b4H
	DB	086H
	DB	0b9H
	DB	032H
	DB	00H
	DB	0cdH
	DB	015H
	DB	0b4H
	DB	00H
	DB	080H
	DB	0fcH
	DB	00H
	DB	075H
	DB	0f2H
	DB	030H
	DB	0e4H
	DB	0cdH
	DB	016H
	DB	080H
	DB	0fcH
	DB	01H
	DB	075H
	DB	0e9H
	DB	0b4H
	DB	02H
	DB	0cdH
	DB	016H
	DB	024H
	DB	0fH
	DB	03cH
	DB	0cH
	DB	075H
	DB	0dfH
	DB	031H
	DB	0c0H
	DB	08eH
	DB	0d8H
	DB	08eH
	DB	0c0H
	DB	08eH
	DB	0d0H
	DB	0bcH
	DB	00H
	DB	07cH
	DB	0bbH
	DB	00H
	DB	04fH
	DB	08aH
	DB	016H
	DB	03aH
	DB	07dH
	DB	0b6H
	DB	00H
	DB	0b5H
	DB	00H
	DB	0b1H
	DB	02H
	DB	0b0H
	DB	01H
	DB	0b4H
	DB	02H
	DB	0cdH
	DB	013H
	DB	0bbH
	DB	00H
	DB	04fH
	DB	08aH
	DB	016H
	DB	03aH
	DB	07dH
	DB	0b6H
	DB	00H
	DB	0b5H
	DB	00H
	DB	0b1H
	DB	01H
	DB	0b0H
	DB	02H
	DB	0b4H
	DB	03H
	DB	0cdH
	DB	013H
	DB	0bbH
	DB	00H
	DB	04fH
	DB	08aH
	DB	016H
	DB	03aH
	DB	07dH
	DB	0b6H
	DB	00H
	DB	0b5H
	DB	00H
	DB	0b1H
	DB	02H
	DB	0b0H
	DB	01H
	DB	0b4H
	DB	02H
	DB	0cdH
	DB	013H
	DB	0c6H
	DB	06H
	DB	03eH
	DB	07dH
	DB	03H
	DB	0bbH
	DB	00H
	DB	04fH
	DB	08aH
	DB	016H
	DB	03aH
	DB	07dH
	DB	08aH
	DB	0eH
	DB	03eH
	DB	07dH
	DB	0b0H
	DB	01H
	DB	0b4H
	DB	03H
	DB	0cdH
	DB	013H
	DB	0feH
	DB	06H
	DB	03eH
	DB	07dH
	DB	080H
	DB	03eH
	DB	03eH
	DB	07dH
	DB	041H
	DB	075H
	DB	0e4H
	DB	031H
	DB	0c0H
	DB	08eH
	DB	0c0H
	DB	0bbH
	DB	0d2H
	DB	04H
	DB	026H
	DB	089H
	DB	01eH
	DB	0d8H
	DB	01H
	DB	0faH
	DB	08eH
	DB	0d8H
	DB	08eH
	DB	0c0H
	DB	08eH
	DB	0d0H
	DB	089H
	DB	0c4H
	DB	0b8H
	DB	02H
	DB	00H
	DB	050H
	DB	0b8H
	DB	00H
	DB	0f0H
	DB	050H
	DB	0b8H
	DB	0f0H
	DB	0ffH
	DB	050H
	DB	0cfH
	DB	00H
	DB	00H
	DB	00H
	DB	00H
	DB	00H
	DB	00H
	DB	00H
	DB	00H
	DB	00H
	DB	00H
	DB	00H
	DB	00H
	DB	00H
	DB	00H
	DB	00H
	DB	00H
	DB	00H
	DB	00H
	DB	00H
	DB	00H
	DB	00H
	DB	00H
	DB	00H
	DB	00H
	DB	00H
	DB	00H
	DB	00H
	DB	00H
	DB	00H
	DB	00H
	DB	00H
	DB	00H
	DB	00H
	DB	00H
	DB	00H
	DB	00H
	DB	00H
	DB	00H
	DB	00H
	DB	00H
	DB	00H
	DB	00H
	DB	00H
	DB	00H
	DB	00H
	DB	00H
	DB	00H
	DB	00H
	DB	00H
	DB	00H
	DB	00H
	DB	00H
	DB	00H
	DB	00H
	DB	00H
	DB	00H
	DB	00H
	DB	00H
	DB	00H
	DB	00H
	DB	00H
	DB	00H
	DB	00H
	DB	00H
	DB	00H
	DB	00H
	DB	00H
	DB	00H
	DB	00H
	DB	00H
	DB	00H
	DB	00H
	DB	00H
	DB	00H
	DB	00H
	DB	00H
	DB	00H
	DB	00H
	DB	00H
	DB	00H
	DB	00H
	DB	00H
	DB	00H
	DB	00H
	DB	00H
	DB	00H
	DB	00H
	DB	00H
	DB	00H
	DB	00H
	DB	00H
	DB	00H
	DB	00H
	DB	00H
	DB	00H
	DB	00H
	DB	00H
	DB	00H
	DB	00H
	DB	00H
	DB	00H
	DB	00H
	DB	00H
	DB	00H
	DB	00H
	DB	00H
	DB	00H
	DB	00H
	DB	00H
	DB	00H
	DB	00H
	DB	00H
	DB	00H
	DB	00H
	DB	00H
	DB	00H
	DB	00H
	DB	00H
	DB	00H
	DB	00H
	DB	00H
	DB	00H
	DB	00H
	DB	00H
	DB	00H
	DB	00H
	DB	00H
	DB	00H
	DB	00H
	DB	00H
	DB	00H
	DB	00H
	DB	00H
	DB	00H
	DB	00H
	DB	00H
	DB	00H
	DB	00H
	DB	00H
	DB	00H
	DB	00H
	DB	00H
	DB	00H
	DB	00H
	DB	00H
	DB	00H
	DB	00H
	DB	00H
	DB	00H
	DB	00H
	DB	00H
	DB	00H
	DB	00H
	DB	00H
	DB	00H
	DB	00H
	DB	00H
	DB	00H
	DB	00H
	DB	00H
	DB	00H
	DB	00H
	DB	00H
	DB	00H
	DB	00H
	DB	00H
	DB	00H
	DB	00H
	DB	00H
	DB	00H
	DB	00H
	DB	00H
	DB	00H
	DB	00H
	DB	00H
	DB	00H
	DB	00H
	DB	00H
	DB	00H
	DB	00H
	DB	00H
	DB	00H
	DB	00H
	DB	00H
	DB	00H
	DB	00H
	DB	00H
	DB	00H
	DB	00H
	DB	00H
	DB	00H
	DB	00H
	DB	00H
	DB	00H
	DB	00H
	DB	00H
	DB	055H
	DB	0aaH
	DB	04fH
	DB	052H
	DB	049H
	DB	047H
	DB	049H
	DB	04eH
	DB	041H
	DB	04cH
	DB	020H
	DB	04dH
	DB	042H
	DB	052H
	DB	00H
	DB	00H
	DB	00H
	DB	00H
	DB	00H
	DB	00H
	DB	00H
	DB	00H
	DB	00H
	DB	00H
	DB	00H
	DB	00H
	DB	00H
	DB	00H
	DB	00H
	DB	00H
	DB	00H
	DB	00H
	DB	00H
	DB	00H
	DB	00H
	DB	00H
	DB	00H
	DB	00H
	DB	00H
	DB	00H
	DB	00H
	DB	00H
	DB	00H
	DB	00H
	DB	00H
	DB	00H
	DB	00H
	DB	00H
	DB	00H
	DB	00H
	DB	00H
	DB	00H
	DB	00H
	DB	00H
	DB	00H
	DB	00H
	DB	00H
	DB	00H
	DB	00H
	DB	00H
	DB	00H
	DB	00H
	DB	00H
	DB	00H
	DB	00H
	DB	00H
	DB	00H
	DB	00H
	DB	00H
	DB	00H
	DB	00H
	DB	00H
	DB	00H
	DB	00H
	DB	00H
	DB	00H
	DB	00H
	DB	00H
	DB	00H
	DB	00H
	DB	00H
	DB	00H
	DB	00H
	DB	00H
	DB	00H
	DB	00H
	DB	00H
	DB	00H
	DB	00H
	DB	00H
	DB	00H
	DB	00H
	DB	00H
	DB	00H
	DB	00H
	DB	00H
	DB	00H
	DB	00H
	DB	00H
	DB	00H
	DB	00H
	DB	00H
	DB	00H
	DB	00H
	DB	00H
	DB	00H
	DB	00H
	DB	00H
	DB	00H
	DB	00H
	DB	00H
	DB	00H
	DB	00H
	DB	00H
	DB	00H
	DB	00H
	DB	00H
	DB	00H
	DB	00H
	DB	00H
	DB	00H
	DB	00H
	DB	00H
	DB	00H
	DB	00H
	DB	00H
	DB	00H
	DB	00H
	DB	00H
	DB	00H
	DB	00H
	DB	00H
	DB	00H
	DB	00H
	DB	00H
	DB	00H
	DB	00H
	DB	00H
	DB	00H
	DB	00H
	DB	00H
	DB	00H
	DB	00H
	DB	00H
	DB	00H
	DB	00H
	DB	00H
	DB	00H
	DB	00H
	DB	00H
	DB	00H
	DB	00H
	DB	00H
	DB	00H
	DB	00H
	DB	00H
	DB	00H
	DB	00H
	DB	00H
	DB	00H
	DB	00H
	DB	00H
	DB	00H
	DB	00H
	DB	00H
	DB	00H
	DB	00H
	DB	00H
	DB	00H
	DB	00H
	DB	00H
	DB	00H
	DB	00H
	DB	00H
	DB	00H
	DB	00H
	DB	00H
	DB	00H
	DB	00H
	DB	00H
	DB	00H
	DB	00H
	DB	00H
	DB	00H
	DB	00H
	DB	00H
	DB	00H
	DB	00H
	DB	00H
	DB	00H
	DB	00H
	DB	00H
	DB	00H
	DB	00H
	DB	00H
	DB	00H
	DB	00H
	DB	00H
	DB	00H
	DB	00H
	DB	00H
	DB	00H
	DB	00H
	DB	00H
	DB	00H
	DB	00H
	DB	00H
	DB	00H
	DB	00H
	DB	00H
	DB	00H
	DB	00H
	DB	00H
	DB	00H
	DB	00H
	DB	00H
	DB	00H
	DB	00H
	DB	00H
	DB	00H
	DB	00H
	DB	00H
	DB	00H
	DB	00H
	DB	00H
	DB	00H
	DB	00H
	DB	00H
	DB	00H
	DB	00H
	DB	00H
	DB	00H
	DB	00H
	DB	00H
	DB	00H
	DB	00H
	DB	00H
	DB	00H
	DB	00H
	DB	00H
	DB	00H
	DB	00H
	DB	00H
	DB	00H
	DB	00H
	DB	00H
	DB	00H
	DB	00H
	DB	00H
	DB	00H
	DB	00H
	DB	00H
	DB	00H
	DB	00H
	DB	00H
	DB	00H
	DB	00H
	DB	00H
	DB	00H
	DB	00H
	DB	00H
	DB	00H
	DB	00H
	DB	00H
	DB	00H
	DB	00H
	DB	00H
	DB	00H
	DB	00H
	DB	00H
	DB	00H
	DB	00H
	DB	00H
	DB	00H
	DB	00H
	DB	00H
	DB	00H
	DB	00H
	DB	00H
	DB	00H
	DB	00H
	DB	00H
	DB	00H
	DB	00H
	DB	00H
	DB	00H
	DB	00H
	DB	00H
	DB	00H
	DB	00H
	DB	00H
	DB	00H
	DB	00H
	DB	00H
	DB	00H
	DB	00H
	DB	00H
	DB	00H
	DB	00H
	DB	00H
	DB	00H
	DB	00H
	DB	00H
	DB	00H
	DB	00H
	DB	00H
	DB	00H
	DB	00H
	DB	00H
	DB	00H
	DB	00H
	DB	00H
	DB	00H
	DB	00H
	DB	00H
	DB	00H
	DB	00H
	DB	00H
	DB	00H
	DB	00H
	DB	00H
	DB	00H
	DB	00H
	DB	00H
	DB	00H
	DB	00H
	DB	00H
	DB	00H
	DB	00H
	DB	00H
	DB	00H
	DB	00H
	DB	00H
	DB	00H
	DB	00H
	DB	00H
	DB	00H
	DB	00H
	DB	00H
	DB	00H
	DB	00H
	DB	00H
	DB	00H
	DB	00H
	DB	00H
	DB	00H
	DB	00H
	DB	00H
	DB	00H
	DB	00H
	DB	00H
	DB	00H
	DB	00H
	DB	00H
	DB	00H
	DB	00H
	DB	00H
	DB	00H
	DB	00H
	DB	00H
	DB	00H
	DB	00H
	DB	00H
	DB	00H
	DB	00H
	DB	00H
	DB	00H
	DB	00H
	DB	00H
	DB	00H
	DB	00H
	DB	00H
	DB	00H
	DB	00H
	DB	00H
	DB	00H
	DB	00H
	DB	00H
	DB	00H
	DB	00H
	DB	00H
	DB	00H
	DB	00H
	DB	00H
	DB	00H
	DB	00H
	DB	00H
	DB	00H
	DB	00H
	DB	00H
	DB	00H
	DB	00H
	DB	00H
	DB	00H
	DB	00H
	DB	00H
	DB	00H
	DB	00H
	DB	00H
	DB	00H
	DB	00H
	DB	00H
	DB	00H
	DB	00H
	DB	00H
	DB	00H
	DB	00H
	DB	00H
	DB	00H
	DB	00H
	DB	00H
	DB	00H
	DB	00H
	DB	00H
	DB	00H
	DB	00H
	DB	00H
	DB	00H
	DB	00H
	DB	00H
	DB	00H
	DB	00H
	DB	00H
	DB	00H
	DB	00H
	DB	00H
	DB	00H
	DB	00H
	DB	00H
	DB	00H
	DB	00H
	DB	00H
	DB	00H
	DB	00H
	DB	00H
	DB	00H
	DB	00H
	DB	00H
	DB	00H
	DB	00H
	DB	00H
	DB	00H
	DB	00H
	DB	00H
	DB	00H
	DB	00H
	DB	00H
	DB	00H
	DB	00H
	DB	00H
	DB	00H
	DB	00H
	DB	00H
	DB	00H
	DB	00H
	DB	00H
	DB	00H
	DB	00H
	DB	00H
	DB	00H
	DB	00H
	DB	00H
	DB	00H
	DB	00H
	DB	00H
	DB	00H
	DB	00H
	DB	00H
	DB	00H
	DB	00H
	DB	00H
	DB	00H
	DB	00H
	DB	00H
	DB	00H
	DB	00H
	DB	00H
	DB	00H
	DB	00H
	DB	00H
	DB	00H
	DB	00H
	DB	00H
	DB	00H
	DB	00H
	DB	00H
	DB	00H
	DB	00H
	DB	00H
	DB	00H
	DB	00H
	DB	00H
	DB	00H
	DB	00H
	DB	00H
	DB	00H
	DB	00H
	DB	00H
	DB	00H
	DB	00H
	DB	00H
	DB	00H
	DB	00H
	DB	00H
	DB	00H
	DB	00H
	DB	00H
	DB	00H
	DB	00H
	DB	00H
	DB	00H
	DB	00H
	DB	00H
	DB	00H
	DB	0a2H
	DB	0aH
	DB	018H
	DB	018H
	DB	018H
	DB	018H
	DB	01eH
	DB	018H
	DB	025H
	DB	027H
	DB	027H
	DB	02dH
	DB	029H
	DB	01eH
	DB	027H
	DB	01aH
	DB	012H
	DB	037H
	DB	031H
	DB	02fH
	DB	018H
	DB	010H
	DB	0cH
	DB	06H
	DB	08H
	DB	06H
	DB	0eH
	DB	010H
	DB	018H
	DB	016H
	DB	01eH
	DB	025H
	DB	00H
	DB	00H
	DB	00H
	DB	00H
	DB	04H
	DB	04H
	DB	00H
	DB	08H
	DB	08H
	DB	00H
	DB	010H
	DB	010H
	DB	00H
	DB	020H
	DB	020H
	DB	00H
	DB	040H
	DB	040H
	DB	040H
	DB	00H
	DB	040H
	DB	07aH
	DB	07aH
	DB	00H
	DB	08aH
	DB	01H
	DB	00H
	DB	00H
	DB	07H
	DB	08H
	DB	08H
	DB	00H
	DB	00H
	DB	01H
	DB	01H
	DB	01H
	DB	040H
	DB	076H
	DB	080H
	DB	00H
	DB	040H
	DB	077H
	DB	078H
	DB	00H
	DB	040H
	DB	051H
	DB	040H
	DB	01H
	DB	010H
	DB	0d6H
	DB	00H
	DB	040H
	DB	067H
	DB	0d8H
	DB	00H
	DB	040H
	DB	069H
	DB	069H
	DB	00H
	DB	040H
	DB	05aH
	DB	040H
	DB	01H
	DB	080H
	DB	08H
	DB	012H
	DB	040H
	DB	01H
	DB	010H
	DB	010H
	DB	00H
	DB	06H
	DB	06H
	DB	00H
	DB	080H
	DB	08H
	DB	05H
	DB	02aH
	DB	00H
	DB	08H
	DB	08H
	DB	00H
	DB	040H
	DB	0faH
	DB	0b4H
	DB	03H
	DB	0fH
	DB	01H
	DB	02H
	DB	015H
	DB	030H
	DB	01H
	DB	04H
	DB	024H
	DB	01H
	DB	012H
	DB	028H
	DB	01H
	DB	08H
	DB	040H
	DB	01H
	DB	041H
	DB	09H
	DB	03eH
	DB	01H
	DB	09H
	DB	03bH
	DB	01H
	DB	016H
	DB	040H
	DB	01H
	DB	0fH
	DB	065H
	DB	01H
	DB	041H
	DB	0dH
	DB	037H
	DB	01H
	DB	01dH
	DB	0abH
	DB	03H
	DB	041H
	DB	02aH
	DB	046H
	DB	06H
	DB	013H
	DB	0bbH
	DB	00H
	DB	07H
	DB	0d4H
	DB	05H
	DB	08H
	DB	045H
	DB	06H
	DB	0bH
	DB	0eH
	DB	00H
	DB	05H
	DB	0aH
	DB	00H
	DB	041H
	DB	0eH
	DB	0beH
	DB	03H
	DB	032H
	DB	02dH
	DB	05H
	DB	013H
	DB	018H
	DB	05H
	DB	041H
	DB	02aH
	DB	040H
	DB	01H
	DB	06H
	DB	0b0H
	DB	07H
	DB	0bH
	DB	040H
	DB	01H
	DB	041H
	DB	02dH
	DB	04cH
	DB	01H
	DB	015H
	DB	0a8H
	DB	04H
	DB	041H
	DB	02dH
	DB	040H
	DB	01H
	DB	0fH
	DB	0cbH
	DB	08H
	DB	038H
	DB	033H
	DB	0bH
	DB	040H
	DB	0faH
	DB	0d1H
	DB	07H
	DB	08H
	DB	0faH
	DB	00H
	DB	033H
	DB	06H
	DB	05H
	DB	07H
	DB	083H
	DB	06H
	DB	07H
	DB	07H
	DB	00H
	DB	040H
	DB	0f7H
	DB	043H
	DB	01H
	DB	0aH
	DB	0f8H
	DB	00H
	DB	030H
	DB	042H
	DB	01H
	DB	085H
	DB	01H
	DB	01H
	DB	01H
	DB	02H
	DB	02H
	DB	02H
	DB	041H
	DB	00H
	DB	040H
	DB	01H
	DB	02bH
	DB	0b0H
	DB	09H
	DB	0aH
	DB	024H
	DB	01H
	DB	081H
	DB	01H
	DB	01H
	DB	04H
	DB	0f0H
	DB	03H
	DB	081H
	DB	02H
	DB	02H
	DB	0dH
	DB	040H
	DB	01H
	DB	040H
	DB	0feH
	DB	048H
	DB	06H
	DB	030H
	DB	00H
	DB	01H
	DB	08H
	DB	040H
	DB	01H
	DB	040H
	DB	057H
	DB	0b2H
	DB	07H
	DB	040H
	DB	0b1H
	DB	08eH
	DB	01H
	DB	0bH
	DB	043H
	DB	01H
	DB	0cH
	DB	060H
	DB	0bH
	DB	01bH
	DB	0c8H
	DB	00H
	DB	013H
	DB	020H
	DB	00H
	DB	010H
	DB	012H
	DB	05H
	DB	035H
	DB	09bH
	DB	02H
	DB	040H
	DB	0beH
	DB	012H
	DB	04H
	DB	0aH
	DB	0b8H
	DB	00H
	DB	011H
	DB	0c3H
	DB	00H
	DB	0dH
	DB	013H
	DB	01H
	DB	05H
	DB	07bH
	DB	02H
	DB	081H
	DB	00H
	DB	00H
	DB	06H
	DB	085H
	DB	02H
	DB	0dH
	DB	07H
	DB	05H
	DB	03eH
	DB	040H
	DB	01H
	DB	06H
	DB	05bH
	DB	00H
	DB	07H
	DB	056H
	DB	00H
	DB	040H
	DB	0aeH
	DB	03bH
	DB	01H
	DB	081H
	DB	06H
	DB	06H
	DB	06H
	DB	010H
	DB	01H
	DB	0aH
	DB	0cbH
	DB	00H
	DB	06H
	DB	019H
	DB	01H
	DB	0cH
	DB	03fH
	DB	01H
	DB	08H
	DB	02cH
	DB	01H
	DB	08H
	DB	0deH
	DB	00H
	DB	06H
	DB	0edH
	DB	00H
	DB	09H
	DB	01bH
	DB	00H
	DB	017H
	DB	048H
	DB	01H
	DB	030H
	DB	03dH
	DB	01H
	DB	0aH
	DB	04eH
	DB	00H
	DB	040H
	DB	0acH
	DB	040H
	DB	01H
	DB	05H
	DB	080H
	DB	07H
	DB	0bH
	DB	030H
	DB	01H
	DB	01dH
	DB	05bH
	DB	02H
	DB	08H
	DB	018H
	DB	00H
	DB	01fH
	DB	0baH
	DB	03H
	DB	04H
	DB	02aH
	DB	00H
	DB	028H
	DB	043H
	DB	01H
	DB	0aH
	DB	0a0H
	DB	01H
	DB	0bH
	DB	0bdH
	DB	01H
	DB	040H
	DB	0afH
	DB	0cdH
	DB	03H
	DB	0bH
	DB	0bH
	DB	06H
	DB	010H
	DB	053H
	DB	02H
	DB	0bH
	DB	0bH
	DB	00H
	DB	08H
	DB	022H
	DB	02H
	DB	08H
	DB	00H
	DB	0eH
	DB	06H
	DB	0f0H
	DB	05H
	DB	018H
	DB	040H
	DB	01H
	DB	0cH
	DB	06bH
	DB	01H
	DB	018H
	DB	06H
	DB	01H
	DB	09H
	DB	033H
	DB	04H
	DB	081H
	DB	02H
	DB	02H
	DB	04H
	DB	043H
	DB	017H
	DB	083H
	DB	07H
	DB	08H
	DB	00H
	DB	00H
	DB	010H
	DB	0b9H
	DB	01H
	DB	040H
	DB	0a6H
	DB	0faH
	DB	04H
	DB	06H
	DB	0eH
	DB	01H
	DB	09H
	DB	0adH
	DB	00H
	DB	09H
	DB	0bbH
	DB	00H
	DB	01dH
	DB	0ddH
	DB	04H
	DB	01eH
	DB	0feH
	DB	04H
	DB	0cH
	DB	045H
	DB	01H
	DB	029H
	DB	0c0H
	DB	014H
	DB	022H
	DB	053H
	DB	00H
	DB	040H
	DB	045H
	DB	053H
	DB	01H
	DB	040H
	DB	04bH
	DB	096H
	DB	01H
	DB	0bH
	DB	090H
	DB	00H
	DB	0bH
	DB	040H
	DB	01H
	DB	023H
	DB	05eH
	DB	07H
	DB	025H
	DB	0ebH
	DB	00H
	DB	02cH
	DB	041H
	DB	01H
	DB	011H
	DB	09aH
	DB	0bH
	DB	020H
	DB	040H
	DB	01H
	DB	040H
	DB	092H
	DB	09eH
	DB	02H
	DB	011H
	DB	0e2H
	DB	01H
	DB	081H
	DB	01H
	DB	01H
	DB	03eH
	DB	040H
	DB	01H
	DB	02bH
	DB	050H
	DB	02H
	DB	032H
	DB	032H
	DB	00H
	DB	026H
	DB	0e3H
	DB	0fH
	DB	040H
	DB	06aH
	DB	04eH
	DB	01bH
	DB	040H
	DB	062H
	DB	02aH
	DB	01H
	DB	040H
	DB	04eH
	DB	072H
	DB	01H
	DB	02dH
	DB	040H
	DB	01H
	DB	040H
	DB	063H
	DB	051H
	DB	05H
	DB	040H
	DB	0aaH
	DB	040H
	DB	01H
	DB	08H
	DB	07eH
	DB	05H
	DB	026H
	DB	0cbH
	DB	00H
	DB	0aH
	DB	010H
	DB	00H
	DB	0eH
	DB	04dH
	DB	04H
	DB	040H
	DB	050H
	DB	04cH
	DB	01H
	DB	040H
	DB	0abH
	DB	040H
	DB	01H
	DB	01fH
	DB	04dH
	DB	02H
	DB	040H
	DB	049H
	DB	0c8H
	DB	02H
	DB	040H
	DB	0daH
	DB	040H
	DB	01H
	DB	06H
	DB	065H
	DB	09H
	DB	040H
	DB	040H
	DB	0c8H
	DB	00H
	DB	040H
	DB	0f8H
	DB	040H
	DB	01H
	DB	05H
	DB	0a9H
	DB	07H
	DB	08H
	DB	027H
	DB	0dH
	DB	0aH
	DB	0dH
	DB	01H
	DB	040H
	DB	051H
	DB	048H
	DB	05H
	DB	040H
	DB	0b3H
	DB	040H
	DB	01H
	DB	081H
	DB	09H
	DB	09H
	DB	025H
	DB	040H
	DB	01H
	DB	0bH
	DB	0dH
	DB	0dH
	DB	036H
	DB	082H
	DB	01H
	DB	040H
	DB	0daH
	DB	040H
	DB	01H
	DB	022H
	DB	042H
	DB	01H
	DB	04H
	DB	024H
	DB	00H
	DB	05H
	DB	028H
	DB	00H
	DB	05H
	DB	02cH
	DB	00H
	DB	085H
	DB	09H
	DB	09H
	DB	09H
	DB	02H
	DB	02H
	DB	02H
	DB	025H
	DB	078H
	DB	01H
	DB	018H
	DB	060H
	DB	0eH
	DB	040H
	DB	045H
	DB	098H
	DB	02H
	DB	040H
	DB	088H
	DB	09dH
	DB	03H
	DB	01aH
	DB	0aH
	DB	01H
	DB	08H
	DB	05cH
	DB	01H
	DB	06H
	DB	021H
	DB	00H
	DB	09H
	DB	043H
	DB	01H
	DB	08H
	DB	04fH
	DB	01H
	DB	04H
	DB	047H
	DB	01H
	DB	040H
	DB	043H
	DB	01bH
	DB	04H
	DB	038H
	DB	041H
	DB	01H
	DB	040H
	DB	07bH
	DB	032H
	DB	01H
	DB	025H
	DB	0f8H
	DB	00H
	DB	06H
	DB	023H
	DB	01H
	DB	010H
	DB	05eH
	DB	01H
	DB	0aH
	DB	0b0H
	DB	02H
	DB	023H
	DB	0b9H
	DB	02H
	DB	027H
	DB	099H
	DB	06H
	DB	0bH
	DB	086H
	DB	02H
	DB	02bH
	DB	04bH
	DB	01H
	DB	034H
	DB	01H
	DB	07H
	DB	040H
	DB	08aH
	DB	0b5H
	DB	08H
	DB	040H
	DB	048H
	DB	0baH
	DB	00H
	DB	015H
	DB	01dH
	DB	00H
	DB	040H
	DB	063H
	DB	080H
	DB	02H
	DB	083H
	DB	04H
	DB	04H
	DB	04H
	DB	04H
	DB	039H
	DB	0eH
	DB	01H
	DB	010H
	DB	014H
	DB	00H
	DB	03bH
	DB	030H
	DB	07H
	DB	0aH
	DB	090H
	DB	00H
	DB	040H
	DB	04dH
	DB	0faH
	DB	01H
	DB	040H
	DB	051H
	DB	040H
	DB	01H
	DB	0aH
	DB	038H
	DB	00H
	DB	082H
	DB	04H
	DB	04H
	DB	04H
	DB	08H
	DB	08H
	DB	00H
	DB	04H
	DB	045H
	DB	01H
	DB	07H
	DB	07H
	DB	00H
	DB	07H
	DB	010H
	DB	00H
	DB	0eH
	DB	0acH
	DB	015H
	DB	0aH
	DB	025H
	DB	00H
	DB	05H
	DB	09H
	DB	00H
	DB	0eH
	DB	080H
	DB	00H
	DB	0dH
	DB	010H
	DB	00H
	DB	0eH
	DB	04dH
	DB	00H
	DB	05H
	DB	05H
	DB	00H
	DB	0bH
	DB	0b3H
	DB	015H
	DB	081H
	DB	03H
	DB	03H
	DB	0aH
	DB	0afH
	DB	016H
	DB	0bH
	DB	0eH
	DB	01H
	DB	06H
	DB	053H
	DB	010H
	DB	07H
	DB	0cdH
	DB	01H
	DB	09H
	DB	061H
	DB	00H
	DB	010H
	DB	068H
	DB	00H
	DB	08H
	DB	0e8H
	DB	014H
	DB	02eH
	DB	0efH
	DB	00H
	DB	022H
	DB	045H
	DB	01H
	DB	01dH
	DB	052H
	DB	05H
	DB	013H
	DB	03fH
	DB	01H
	DB	081H
	DB	04H
	DB	04H
	DB	04H
	DB	0bdH
	DB	016H
	DB	05H
	DB	0a8H
	DB	00H
	DB	086H
	DB	06H
	DB	06H
	DB	06H
	DB	06H
	DB	06H
	DB	06H
	DB	06H
	DB	013H
	DB	0f5H
	DB	00H
	DB	0cH
	DB	01fH
	DB	00H
	DB	0aH
	DB	023H
	DB	00H
	DB	0dH
	DB	02cH
	DB	00H
	DB	06H
	DB	082H
	DB	01H
	DB	08H
	DB	028H
	DB	00H
	DB	0dH
	DB	01fH
	DB	00H
	DB	05H
	DB	08H
	DB	00H
	DB	081H
	DB	03H
	DB	03H
	DB	06H
	DB	0dH
	DB	00H
	DB	083H
	DB	03H
	DB	03H
	DB	03H
	DB	03H
	DB	04H
	DB	04H
	DB	00H
	DB	085H
	DB	03H
	DB	03H
	DB	05H
	DB	05H
	DB	05H
	DB	05H
	DB	04H
	DB	04H
	DB	00H
	DB	08H
	DB	08H
	DB	00H
	DB	080H
	DB	05H
	DB	0aH
	DB	01bH
	DB	00H
	DB	080H
	DB	03H
	DB	08H
	DB	02eH
	DB	00H
	DB	0aH
	DB	076H
	DB	00H
	DB	0aH
	DB	0dH
	DB	00H
	DB	09H
	DB	013H
	DB	00H
	DB	07H
	DB	083H
	DB	018H
	DB	040H
	DB	04eH
	DB	079H
	DB	0fH
	DB	0eH
	DB	0d3H
	DB	01H
	DB	0fH
	DB	0dbH
	DB	01H
	DB	014H
	DB	0afH
	DB	03H
	DB	0aH
	DB	0d3H
	DB	00H
	DB	0bH
	DB	02cH
	DB	01H
	DB	0dH
	DB	0cbH
	DB	00H
	DB	0dH
	DB	0dH
	DB	00H
	DB	0dH
	DB	027H
	DB	00H
	DB	018H
	DB	028H
	DB	00H
	DB	05H
	DB	0dH
	DB	01H
	DB	06H
	DB	020H
	DB	00H
	DB	0aH
	DB	040H
	DB	01H
	DB	019H
	DB	038H
	DB	01H
	DB	010H
	DB	040H
	DB	01H
	DB	0bH
	DB	0bH
	DB	00H
	DB	015H
	DB	06aH
	DB	00H
	DB	0aH
	DB	01fH
	DB	00H
	DB	080H
	DB	02H
	DB	04H
	DB	0b8H
	DB	01H
	DB	027H
	DB	031H
	DB	013H
	DB	07H
	DB	0f0H
	DB	08H
	DB	020H
	DB	0c0H
	DB	03H
	DB	02eH
	DB	040H
	DB	01H
	DB	0aH
	DB	0d1H
	DB	00H
	DB	0aH
	DB	0b8H
	DB	00H
	DB	09H
	DB	0abH
	DB	00H
	DB	01aH
	DB	0e8H
	DB	00H
	DB	09H
	DB	0d3H
	DB	00H
	DB	019H
	DB	0cH
	DB	01H
	DB	0fH
	DB	04H
	DB	01H
	DB	023H
	DB	03eH
	DB	01H
	DB	07H
	DB	082H
	DB	00H
	DB	0eH
	DB	040H
	DB	00H
	DB	0aH
	DB	03cH
	DB	00H
	DB	016H
	DB	031H
	DB	00H
	DB	04H
	DB	040H
	DB	01H
	DB	02bH
	DB	084H
	DB	02H
	DB	09H
	DB	040H
	DB	01H
	DB	01aH
	DB	048H
	DB	01H
	DB	022H
	DB	040H
	DB	01H
	DB	08H
	DB	0dH
	DB	00H
	DB	05H
	DB	082H
	DB	04H
	DB	011H
	DB	098H
	DB	00H
	DB	022H
	DB	0e8H
	DB	00H
	DB	023H
	DB	023H
	DB	00H
	DB	0bH
	DB	027H
	DB	00H
	DB	0dH
	DB	03dH
	DB	02H
	DB	01fH
	DB	032H
	DB	00H
	DB	019H
	DB	0cdH
	DB	03H
	DB	018H
	DB	039H
	DB	00H
	DB	05H
	DB	060H
	DB	00H
	DB	024H
	DB	046H
	DB	01cH
	DB	040H
	DB	040H
	DB	0c0H
	DB	03H
	DB	012H
	DB	04fH
	DB	01H
	DB	05H
	DB	08H
	DB	00H
	DB	09H
	DB	09cH
	DB	00H
	DB	0dH
	DB	088H
	DB	02H
	DB	0fH
	DB	0b0H
	DB	00H
	DB	0bH
	DB	0dH
	DB	00H
	DB	08H
	DB	010H
	DB	02H
	DB	0bH
	DB	030H
	DB	00H
	DB	020H
	DB	0fdH
	DB	00H
	DB	010H
	DB	07bH
	DB	03H
	DB	023H
	DB	038H
	DB	01H
	DB	0fH
	DB	03eH
	DB	01H
	DB	0cH
	DB	06dH
	DB	00H
	DB	010H
	DB	028H
	DB	04H
	DB	0aH
	DB	083H
	DB	06H
	DB	040H
	DB	048H
	DB	02H
	DB	05H
	DB	02bH
	DB	040H
	DB	01H
	DB	01aH
	DB	0e3H
	DB	04H
	DB	014H
	DB	0acH
	DB	00H
	DB	0aH
	DB	08cH
	DB	03H
	DB	01fH
	DB	078H
	DB	03H
	DB	015H
	DB	039H
	DB	00H
	DB	023H
	DB	070H
	DB	01H
	DB	0bH
	DB	03bH
	DB	00H
	DB	013H
	DB	043H
	DB	00H
	DB	015H
	DB	095H
	DB	02H
	DB	06H
	DB	05H
	DB	05H
	DB	032H
	DB	044H
	DB	06H
	DB	040H
	DB	040H
	DB	040H
	DB	01H
	DB	06H
	DB	06H
	DB	00H
	DB	0aH
	DB	015H
	DB	01H
	DB	015H
	DB	0aeH
	DB	00H
	DB	023H
	DB	07H
	DB	01H
	DB	01dH
	DB	01aH
	DB	01H
	DB	026H
	DB	03bH
	DB	01H
	DB	013H
	DB	038H
	DB	06H
	DB	012H
	DB	02bH
	DB	01H
	DB	08H
	DB	0abH
	DB	03H
	DB	0dH
	DB	0a9H
	DB	00H
	DB	0aH
	DB	046H
	DB	06H
	DB	06H
	DB	0adH
	DB	0dH
	DB	040H
	DB	046H
	DB	088H
	DB	07H
	DB	032H
	DB	040H
	DB	01H
	DB	020H
	DB	070H
	DB	07H
	DB	019H
	DB	043H
	DB	01H
	DB	022H
	DB	05dH
	DB	02H
	DB	025H
	DB	040H
	DB	01H
	DB	06H
	DB	084H
	DB	00H
	DB	081H
	DB	00H
	DB	00H
	DB	0bH
	DB	0cdH
	DB	06H
	DB	011H
	DB	099H
	DB	02H
	DB	05H
	DB	024H
	DB	00H
	DB	05H
	DB	0c6H
	DB	08H
	DB	08H
	DB	03bH
	DB	01H
	DB	08H
	DB	052H
	DB	01H
	DB	06H
	DB	0bdH
	DB	00H
	DB	036H
	DB	0f6H
	DB	0bH
	DB	014H
	DB	042H
	DB	01H
	DB	030H
	DB	040H
	DB	01H
	DB	021H
	DB	0afH
	DB	08H
	DB	016H
	DB	09dH
	DB	08H
	DB	0bH
	DB	05dH
	DB	08H
	DB	01cH
	DB	022H
	DB	01H
	DB	028H
	DB	07fH
	DB	02H
	DB	04H
	DB	038H
	DB	01eH
	DB	06H
	DB	01dH
	DB	01H
	DB	018H
	DB	024H
	DB	00H
	DB	05H
	DB	07dH
	DB	05H
	DB	082H
	DB	06H
	DB	06H
	DB	06H
	DB	0aH
	DB	023H
	DB	00H
	DB	0eH
	DB	080H
	DB	00H
	DB	081H
	DB	03H
	DB	03H
	DB	033H
	DB	043H
	DB	01H
	DB	040H
	DB	046H
	DB	0c0H
	DB	03H
	DB	032H
	DB	07bH
	DB	02H
	DB	05H
	DB	03dH
	DB	01H
	DB	06H
	DB	0d6H
	DB	0aH
	DB	01eH
	DB	062H
	DB	02H
	DB	028H
	DB	0a8H
	DB	07H
	DB	081H
	DB	04H
	DB	04H
	DB	05H
	DB	040H
	DB	01H
	DB	082H
	DB	04H
	DB	04H
	DB	04H
	DB	01dH
	DB	035H
	DB	09H
	DB	08H
	DB	072H
	DB	00H
	DB	09H
	DB	0d0H
	DB	03H
	DB	0cH
	DB	0fbH
	DB	01H
	DB	040H
	DB	0abH
	DB	040H
	DB	01H
	DB	085H
	DB	05H
	DB	03H
	DB	03H
	DB	06H
	DB	06H
	DB	07H
	DB	08H
	DB	033H
	DB	02H
	DB	030H
	DB	09bH
	DB	08H
	DB	013H
	DB	013H
	DB	00H
	DB	05H
	DB	040H
	DB	01H
	DB	05H
	DB	0a3H
	DB	03H
	DB	081H
	DB	00H
	DB	00H
	DB	08H
	DB	0dbH
	DB	04H
	DB	08H
	DB	05cH
	DB	01H
	DB	08H
	DB	03eH
	DB	01H
	DB	0bH
	DB	01cH
	DB	0dH
	DB	013H
	DB	01bH
	DB	09H
	DB	040H
	DB	0a0H
	DB	040H
	DB	01H
	DB	0dH
	DB	069H
	DB	07H
	DB	080H
	DB	03H
	DB	0dH
	DB	040H
	DB	01H
	DB	07H
	DB	060H
	DB	03H
	DB	03cH
	DB	040H
	DB	01H
	DB	04H
	DB	050H
	DB	00H
	DB	082H
	DB	00H
	DB	02H
	DB	02H
	DB	05H
	DB	0e4H
	DB	0eH
	DB	08H
	DB	013H
	DB	01H
	DB	010H
	DB	040H
	DB	01H
	DB	04H
	DB	0c8H
	DB	0cH
	DB	010H
	DB	0f0H
	DB	06H
	DB	08H
	DB	010H
	DB	05H
	DB	05H
	DB	022H
	DB	00H
	DB	040H
	DB	070H
	DB	040H
	DB	01H
	DB	081H
	DB	02H
	DB	02H
	DB	0dH
	DB	08cH
	DB	0dH
	DB	01cH
	DB	092H
	DB	0dH
	DB	010H
	DB	07dH
	DB	0cH
	DB	08H
	DB	010H
	DB	02H
	DB	0aH
	DB	050H
	DB	03H
	DB	040H
	DB	040H
	DB	080H
	DB	02H
	DB	0aH
	DB	0d2H
	DB	0eH
	DB	082H
	DB	00H
	DB	02H
	DB	02H
	DB	015H
	DB	0e0H
	DB	07H
	DB	09H
	DB	080H
	DB	07H
	DB	0fH
	DB	073H
	DB	0eH
	DB	09H
	DB	060H
	DB	06H
	DB	02aH
	DB	03aH
	DB	018H
	DB	040H
	DB	046H
	DB	080H
	DB	07H
	DB	0bH
	DB	040H
	DB	01H
	DB	015H
	DB	0edH
	DB	0aH
	DB	015H
	DB	09bH
	DB	03H
	DB	0aH
	DB	025H
	DB	00H
	DB	08H
	DB	0c8H
	DB	0fH
	DB	03bH
	DB	03eH
	DB	01H
	DB	09H
	DB	0d0H
	DB	02H
	DB	04H
	DB	052H
	DB	027H
	DB	08H
	DB	010H
	DB	010H
	DB	083H
	DB	02H
	DB	02H
	DB	02H
	DB	05H
	DB	08H
	DB	03H
	DB	027H
	DB	08H
	DB	0a3H
	DB	01H
	DB	010H
	DB	040H
	DB	01H
	DB	07H
	DB	075H
	DB	07H
	DB	06H
	DB	0aH
	DB	00H
	DB	08H
	DB	040H
	DB	01H
	DB	07H
	DB	03fH
	DB	00H
	DB	040H
	DB	06cH
	DB	080H
	DB	02H
	DB	018H
	DB	033H
	DB	01H
	DB	015H
	DB	03fH
	DB	01H
	DB	0fH
	DB	080H
	DB	07H
	DB	080H
	DB	04H
	DB	06H
	DB	0c3H
	DB	03H
	DB	080H
	DB	06H
	DB	03bH
	DB	0b5H
	DB	03H
	DB	09H
	DB	05bH
	DB	02H
	DB	0aH
	DB	076H
	DB	029H
	DB	08H
	DB	08H
	DB	00H
	DB	083H
	DB	07H
	DB	07H
	DB	07H
	DB	07H
	DB	04H
	DB	04H
	DB	00H
	DB	05H
	DB	05H
	DB	00H
	DB	06H
	DB	0faH
	DB	04H
	DB	010H
	DB	0e2H
	DB	010H
	DB	0fH
	DB	09bH
	DB	010H
	DB	080H
	DB	04H
	DB	032H
	DB	015H
	DB	014H
	DB	040H
	DB	045H
	DB	040H
	DB	01H
	DB	012H
	DB	032H
	DB	0dH
	DB	011H
	DB	025H
	DB	0dH
	DB	0bH
	DB	06dH
	DB	04H
	DB	08H
	DB	0fbH
	DB	00H
	DB	081H
	DB	02H
	DB	02H
	DB	08H
	DB	01dH
	DB	02H
	DB	03cH
	DB	03fH
	DB	01H
	DB	0cH
	DB	080H
	DB	02H
	DB	0bH
	DB	040H
	DB	01H
	DB	0eH
	DB	03eH
	DB	01H
	DB	08H
	DB	045H
	DB	01H
	DB	0dH
	DB	02dH
	DB	03H
	DB	012H
	DB	075H
	DB	04H
	DB	080H
	DB	04H
	DB	07H
	DB	0cdH
	DB	0dH
	DB	040H
	DB	06bH
	DB	0c0H
	DB	03H
	DB	080H
	DB	02H
	DB	023H
	DB	0afH
	DB	012H
	DB	0dH
	DB	0adH
	DB	00H
	DB	08H
	DB	0f4H
	DB	00H
	DB	05H
	DB	03cH
	DB	00H
	DB	05H
	DB	03eH
	DB	014H
	DB	02aH
	DB	0fdH
	DB	04H
	DB	01bH
	DB	04dH
	DB	0bH
	DB	080H
	DB	03H
	DB	04H
	DB	042H
	DB	02bH
	DB	080H
	DB	06H
	DB	08H
	DB	04bH
	DB	01fH
	DB	081H
	DB	08H
	DB	08H
	DB	014H
	DB	03fH
	DB	01H
	DB	07H
	DB	086H
	DB	02H
	DB	0eH
	DB	0edH
	DB	01H
	DB	0aH
	DB	060H
	DB	014H
	DB	081H
	DB	04H
	DB	04H
	DB	031H
	DB	045H
	DB	0bH
	DB	03fH
	DB	040H
	DB	01H
	DB	06H
	DB	03eH
	DB	015H
	DB	0aH
	DB	01aH
	DB	01H
	DB	011H
	DB	04bH
	DB	01H
	DB	0aH
	DB	025H
	DB	03H
	DB	0bH
	DB	03bH
	DB	015H
	DB	05H
	DB	028H
	DB	07H
	DB	05H
	DB	07aH
	DB	01H
	DB	04H
	DB	088H
	DB	016H
	DB	0aH
	DB	08dH
	DB	013H
	DB	03eH
	DB	040H
	DB	01H
	DB	05H
	DB	065H
	DB	00H
	DB	0bH
	DB	03dH
	DB	01H
	DB	04H
	DB	0caH
	DB	028H
	DB	08H
	DB	0abH
	DB	0fH
	DB	08H
	DB	0a2H
	DB	02cH
	DB	04H
	DB	018H
	DB	00H
	DB	04H
	DB	0deH
	DB	08H
	DB	018H
	DB	06aH
	DB	015H
	DB	05H
	DB	087H
	DB	0bH
	DB	082H
	DB	00H
	DB	00H
	DB	00H
	DB	026H
	DB	0c8H
	DB	01aH
	DB	08H
	DB	0b6H
	DB	01fH
	DB	03bH
	DB	040H
	DB	01H
	DB	0aH
	DB	022H
	DB	017H
	DB	011H
	DB	058H
	DB	04H
	DB	0aH
	DB	0d8H
	DB	0dH
	DB	081H
	DB	04H
	DB	04H
	DB	05H
	DB	0b9H
	DB	00H
	DB	0eH
	DB	08H
	DB	02H
	DB	085H
	DB	02H
	DB	02H
	DB	02H
	DB	06H
	DB	06H
	DB	07H
	DB	05H
	DB	04bH
	DB	01H
	DB	03dH
	DB	00H
	DB	0aH
	DB	0bH
	DB	010H
	DB	09H
	DB	06H
	DB	0a0H
	DB	017H
	DB	06H
	DB	026H
	DB	01H
	DB	081H
	DB	07H
	DB	01H
	DB	0aH
	DB	083H
	DB	07H
	DB	081H
	DB	05H
	DB	05H
	DB	04H
	DB	020H
	DB	017H
	DB	05H
	DB	070H
	DB	00H
	DB	07H
	DB	040H
	DB	01H
	DB	014H
	DB	01bH
	DB	03H
	DB	07H
	DB	0dH
	DB	00H
	DB	06H
	DB	040H
	DB	01H
	DB	02fH
	DB	0c2H
	DB	01bH
	DB	039H
	DB	0c0H
	DB	03H
	DB	015H
	DB	040H
	DB	01H
	DB	05H
	DB	08H
	DB	03H
	DB	06H
	DB	040H
	DB	01H
	DB	05H
	DB	018H
	DB	03H
	DB	07H
	DB	0d2H
	DB	00H
	DB	0eH
	DB	042H
	DB	01H
	DB	06H
	DB	0eaH
	DB	00H
	DB	05H
	DB	033H
	DB	02H
	DB	0fH
	DB	01aH
	DB	0aH
	DB	02fH
	DB	01H
	DB	05H
	DB	0dH
	DB	040H
	DB	01H
	DB	05H
	DB	082H
	DB	02H
	DB	084H
	DB	06H
	DB	06H
	DB	07H
	DB	08H
	DB	08H
	DB	0bH
	DB	03eH
	DB	01H
	DB	084H
	DB	05H
	DB	05H
	DB	00H
	DB	07H
	DB	07H
	DB	05H
	DB	01aH
	DB	05H
	DB	06H
	DB	0aeH
	DB	06H
	DB	016H
	DB	033H
	DB	017H
	DB	07H
	DB	0fH
	DB	00H
	DB	06H
	DB	0c2H
	DB	08H
	DB	02fH
	DB	018H
	DB	02aH
	DB	040H
	DB	046H
	DB	0c0H
	DB	03H
	DB	010H
	DB	02H
	DB	0aH
	DB	0aH
	DB	070H
	DB	018H
	DB	07H
	DB	07bH
	DB	04H
	DB	0dH
	DB	048H
	DB	01H
	DB	07H
	DB	06dH
	DB	03H
	DB	05H
	DB	04bH
	DB	01aH
	DB	027H
	DB	0a7H
	DB	0dH
	DB	019H
	DB	03fH
	DB	01H
	DB	06H
	DB	06eH
	DB	00H
	DB	05H
	DB	061H
	DB	00H
	DB	05H
	DB	0beH
	DB	00H
	DB	080H
	DB	06H
	DB	0dH
	DB	080H
	DB	02H
	DB	05H
	DB	04dH
	DB	06H
	DB	06H
	DB	05cH
	DB	06H
	DB	07H
	DB	07aH
	DB	00H
	DB	09H
	DB	060H
	DB	0bH
	DB	010H
	DB	046H
	DB	06H
	DB	030H
	DB	00H
	DB	05H
	DB	015H
	DB	065H
	DB	01fH
	DB	040H
	DB	046H
	DB	040H
	DB	01H
	DB	08H
	DB	03eH
	DB	01H
	DB	0aH
	DB	02dH
	DB	01H
	DB	08H
	DB	0f8H
	DB	04H
	DB	08H
	DB	0c8H
	DB	00H
	DB	07H
	DB	095H
	DB	04H
	DB	04H
	DB	082H
	DB	02H
	DB	02aH
	DB	040H
	DB	01H
	DB	011H
	DB	0cbH
	DB	013H
	DB	0cH
	DB	040H
	DB	01H
	DB	04H
	DB	055H
	DB	00H
	DB	04H
	DB	010H
	DB	00H
	DB	080H
	DB	01H
	DB	05H
	DB	06bH
	DB	02H
	DB	081H
	DB	08H
	DB	08H
	DB	06H
	DB	020H
	DB	02H
	DB	06H
	DB	010H
	DB	05H
	DB	05H
	DB	0b8H
	DB	03H
	DB	07H
	DB	030H
	DB	09H
	DB	0eH
	DB	0eeH
	DB	06H
	DB	03bH
	DB	040H
	DB	01H
	DB	015H
	DB	0c1H
	DB	03H
	DB	02aH
	DB	040H
	DB	01H
	DB	09H
	DB	061H
	DB	01cH
	DB	0fH
	DB	073H
	DB	01bH
	DB	08H
	DB	098H
	DB	00H
	DB	08H
	DB	03dH
	DB	01H
	DB	04H
	DB	0a8H
	DB	01H
	DB	05H
	DB	01dH
	DB	02H
	DB	0aH
	DB	013H
	DB	02H
	DB	0bH
	DB	040H
	DB	01H
	DB	010H
	DB	0d0H
	DB	00H
	DB	0aH
	DB	08eH
	DB	02H
	DB	019H
	DB	01dH
	DB	018H
	DB	0dH
	DB	040H
	DB	01H
	DB	06H
	DB	06fH
	DB	05H
	DB	05H
	DB	087H
	DB	00H
	DB	081H
	DB	07H
	DB	07H
	DB	05H
	DB	0cH
	DB	09H
	DB	082H
	DB	02H
	DB	01H
	DB	01H
	DB	08H
	DB	0e7H
	DB	02H
	DB	09H
	DB	089H
	DB	07H
	DB	080H
	DB	00H
	DB	04H
	DB	07dH
	DB	00H
	DB	05H
	DB	078H
	DB	00H
	DB	081H
	DB	06H
	DB	06H
	DB	04H
	DB	033H
	DB	04H
	DB	015H
	DB	03eH
	DB	01H
	DB	037H
	DB	045H
	DB	01H
	DB	038H
	DB	080H
	DB	02H
	DB	08H
	DB	0a3H
	DB	01dH
	DB	010H
	DB	0b3H
	DB	01cH
	DB	0eH
	DB	040H
	DB	01H
	DB	084H
	DB	00H
	DB	00H
	DB	02H
	DB	05H
	DB	05H
	DB	05H
	DB	0d1H
	DB	00H
	DB	09H
	DB	040H
	DB	01H
	DB	05H
	DB	093H
	DB	04H
	DB	08H
	DB	016H
	DB	07H
	DB	05H
	DB	0fdH
	DB	01cH
	DB	0bH
	DB	0beH
	DB	0cH
	DB	01eH
	DB	018H
	DB	014H
	DB	014H
	DB	020H
	DB	015H
	DB	0bH
	DB	021H
	DB	01dH
	DB	08H
	DB	041H
	DB	0cH
	DB	010H
	DB	074H
	DB	05H
	DB	080H
	DB	06H
	DB	07H
	DB	040H
	DB	01H
	DB	06H
	DB	0a5H
	DB	07H
	DB	0fH
	DB	025H
	DB	08H
	DB	03eH
	DB	040H
	DB	01H
	DB	03dH
	DB	080H
	DB	07H
	DB	0aH
	DB	045H
	DB	02H
	DB	0bH
	DB	043H
	DB	01H
	DB	0bH
	DB	050H
	DB	03H
	DB	04H
	DB	07eH
	DB	02H
	DB	04H
	DB	070H
	DB	01aH
	DB	06H
	DB	0cH
	DB	00H
	DB	08H
	DB	095H
	DB	04H
	DB	082H
	DB	02H
	DB	02H
	DB	08H
	DB	07H
	DB	00H
	DB	05H
	DB	018H
	DB	040H
	DB	01H
	DB	06H
	DB	052H
	DB	010H
	DB	01aH
	DB	073H
	DB	015H
	DB	011H
	DB	023H
	DB	019H
	DB	08H
	DB	042H
	DB	01H
	DB	09H
	DB	05aH
	DB	05H
	DB	0fH
	DB	080H
	DB	0cH
	DB	05H
	DB	0d8H
	DB	00H
	DB	05H
	DB	033H
	DB	09H
	DB	05H
	DB	08dH
	DB	00H
	DB	06H
	DB	0a4H
	DB	00H
	DB	01aH
	DB	084H
	DB	02H
	DB	040H
	DB	065H
	DB	040H
	DB	01H
	DB	06H
	DB	084H
	DB	02H
	DB	05H
	DB	0d3H
	DB	01H
	DB	013H
	DB	038H
	DB	01fH
	DB	06H
	DB	06dH
	DB	04H
	DB	05H
	DB	068H
	DB	01H
	DB	09H
	DB	07H
	DB	05H
	DB	07H
	DB	0dbH
	DB	00H
	DB	081H
	DB	08H
	DB	08H
	DB	09H
	DB	0bH
	DB	00H
	DB	07H
	DB	02H
	DB	04H
	DB	01dH
	DB	068H
	DB	016H
	DB	010H
	DB	01cH
	DB	00H
	DB	011H
	DB	082H
	DB	02H
	DB	09H
	DB	019H
	DB	01fH
	DB	0aH
	DB	0f3H
	DB	02H
	DB	07H
	DB	09aH
	DB	00H
	DB	09H
	DB	073H
	DB	0aH
	DB	04H
	DB	066H
	DB	01bH
	DB	04H
	DB	0afH
	DB	01H
	DB	04H
	DB	0e6H
	DB	08H
	DB	04H
	DB	08bH
	DB	00H
	DB	01fH
	DB	040H
	DB	01H
	DB	02dH
	DB	084H
	DB	02H
	DB	03eH
	DB	040H
	DB	01H
	DB	05H
	DB	045H
	DB	07H
	DB	010H
	DB	040H
	DB	01H
	DB	04H
	DB	0cbH
	DB	00H
	DB	05H
	DB	0d0H
	DB	05H
	DB	04H
	DB	0ebH
	DB	00H
	DB	08H
	DB	040H
	DB	01H
	DB	011H
	DB	07dH
	DB	07H
	DB	08H
	DB	0b8H
	DB	020H
	DB	0bH
	DB	0b9H
	DB	02H
	DB	0aH
	DB	098H
	DB	0dH
	DB	0bH
	DB	09dH
	DB	08H
	DB	014H
	DB	04dH
	DB	016H
	DB	0bH
	DB	02H
	DB	015H
	DB	0eH
	DB	068H
	DB	020H
	DB	06H
	DB	048H
	DB	010H
	DB	010H
	DB	015H
	DB	02H
	DB	05H
	DB	088H
	DB	07H
	DB	07H
	DB	0f0H
	DB	02H
	DB	080H
	DB	07H
	DB	08H
	DB	080H
	DB	02H
	DB	010H
	DB	013H
	DB	0fH
	DB	040H
	DB	073H
	DB	040H
	DB	01H
	DB	04H
	DB	03eH
	DB	00H
	DB	08H
	DB	040H
	DB	01H
	DB	07H
	DB	06H
	DB	0dH
	DB	09H
	DB	0fH
	DB	02H
	DB	08H
	DB	080H
	DB	02H
	DB	07H
	DB	0bbH
	DB	0aH
	DB	011H
	DB	040H
	DB	01H
	DB	06H
	DB	010H
	DB	02H
	DB	0bH
	DB	0fbH
	DB	00H
	DB	012H
	DB	078H
	DB	01aH
	DB	011H
	DB	00H
	DB	01dH
	DB	011H
	DB	0bdH
	DB	01dH
	DB	07H
	DB	02H
	DB	010H
	DB	08H
	DB	082H
	DB	02H
	DB	07H
	DB	048H
	DB	011H
	DB	0dH
	DB	065H
	DB	00H
	DB	04H
	DB	090H
	DB	011H
	DB	05H
	DB	040H
	DB	01H
	DB	081H
	DB	04H
	DB	04H
	DB	08H
	DB	0fbH
	DB	07H
	DB	05H
	DB	05dH
	DB	00H
	DB	01bH
	DB	06bH
	DB	022H
	DB	02eH
	DB	04H
	DB	05H
	DB	040H
	DB	040H
	DB	040H
	DB	01H
	DB	0bH
	DB	063H
	DB	022H
	DB	0aH
	DB	068H
	DB	018H
	DB	08H
	DB	0d8H
	DB	03H
	DB	05H
	DB	04dH
	DB	012H
	DB	06H
	DB	024H
	DB	00H
	DB	0aH
	DB	08H
	DB	0aH
	DB	0bH
	DB	058H
	DB	03H
	DB	0aH
	DB	06eH
	DB	01H
	DB	080H
	DB	06H
	DB	015H
	DB	078H
	DB	01cH
	DB	012H
	DB	0b0H
	DB	01bH
	DB	0bH
	DB	080H
	DB	02H
	DB	0bH
	DB	043H
	DB	01H
	DB	0dH
	DB	048H
	DB	0eH
	DB	05H
	DB	058H
	DB	0aH
	DB	013H
	DB	06aH
	DB	04H
	DB	0bH
	DB	032H
	DB	018H
	DB	05H
	DB	025H
	DB	03H
	DB	0dH
	DB	0beH
	DB	02H
	DB	03eH
	DB	042H
	DB	01H
	DB	08H
	DB	047H
	DB	01H
	DB	030H
	DB	0c0H
	DB	03H
	DB	05H
	DB	0cdH
	DB	04H
	DB	0eH
	DB	040H
	DB	01H
	DB	0aH
	DB	04fH
	DB	02H
	DB	09H
	DB	03aH
	DB	08H
	DB	0dH
	DB	08eH
	DB	04H
	DB	08H
	DB	0eH
	DB	05H
	DB	06H
	DB	0b3H
	DB	04H
	DB	08H
	DB	02cH
	DB	024H
	DB	0fH
	DB	0c8H
	DB	08H
	DB	02aH
	DB	04bH
	DB	019H
	DB	0bH
	DB	058H
	DB	01bH
	DB	09H
	DB	08H
	DB	01H
	DB	07H
	DB	01fH
	DB	00H
	DB	0bH
	DB	028H
	DB	08H
	DB	06H
	DB	0b8H
	DB	01H
	DB	0aH
	DB	0fbH
	DB	018H
	DB	0bH
	DB	0cdH
	DB	017H
	DB	040H
	DB	040H
	DB	040H
	DB	01H
	DB	0dH
	DB	03H
	DB	030H
	DB	032H
	DB	040H
	DB	01H
	DB	09H
	DB	041H
	DB	01H
	DB	0aH
	DB	0b8H
	DB	0dH
	DB	05H
	DB	020H
	DB	01H
	DB	04H
	DB	023H
	DB	03H
	DB	05H
	DB	0b0H
	DB	0aH
	DB	081H
	DB	02H
	DB	02H
	DB	06H
	DB	0e0H
	DB	014H
	DB	07H
	DB	036H
	DB	06H
	DB	0cH
	DB	048H
	DB	01H
	DB	023H
	DB	0bbH
	DB	016H
	DB	024H
	DB	08bH
	DB	01aH
	DB	0dH
	DB	093H
	DB	015H
	DB	0eH
	DB	040H
	DB	027H
	DB	0eH
	DB	0e5H
	DB	0bH
	DB	0dH
	DB	020H
	DB	03H
	DB	0fH
	DB	048H
	DB	015H
	DB	03cH
	DB	040H
	DB	01H
	DB	0aH
	DB	0c7H
	DB	03H
	DB	03bH
	DB	0c0H
	DB	03H
	DB	08H
	DB	025H
	DB	026H
	DB	08H
	DB	028H
	DB	0dH
	DB	05H
	DB	0c0H
	DB	00H
	DB	081H
	DB	06H
	DB	06H
	DB	04H
	DB	070H
	DB	04H
	DB	0aH
	DB	09aH
	DB	03dH
	DB	08H
	DB	068H
	DB	017H
	DB	08H
	DB	040H
	DB	01H
	DB	035H
	DB	03H
	DB	01dH
	DB	014H
	DB	01bH
	DB	01fH
	DB	0cH
	DB	0bH
	DB	01H
	DB	09H
	DB	026H
	DB	04H
	DB	0aH
	DB	01eH
	DB	01dH
	DB	0aH
	DB	032H
	DB	00H
	DB	08H
	DB	08eH
	DB	05H
	DB	0bH
	DB	0cbH
	DB	03H
	DB	040H
	DB	041H
	DB	046H
	DB	0bH
	DB	0aH
	DB	0d0H
	DB	09H
	DB	02eH
	DB	040H
	DB	01H
	DB	081H
	DB	09H
	DB	09H
	DB	0cH
	DB	051H
	DB	02H
	DB	0fH
	DB	0a9H
	DB	012H
	DB	07H
	DB	03H
	DB	05H
	DB	06H
	DB	04bH
	DB	01H
	DB	08H
	DB	07H
	DB	02H
	DB	05H
	DB	02fH
	DB	00H
	DB	09H
	DB	035H
	DB	06H
	DB	07H
	DB	0b0H
	DB	04H
	DB	0fH
	DB	0e2H
	DB	00H
	DB	015H
	DB	0d3H
	DB	020H
	DB	020H
	DB	04eH
	DB	01eH
	DB	0fH
	DB	010H
	DB	0aH
	DB	0dH
	DB	01dH
	DB	01dH
	DB	0dH
	DB	01fH
	DB	00H
	DB	08H
	DB	080H
	DB	00H
	DB	06H
	DB	0bdH
	DB	01H
	DB	040H
	DB	046H
	DB	084H
	DB	0cH
	DB	0aH
	DB	0d3H
	DB	0eH
	DB	032H
	DB	080H
	DB	02H
	DB	011H
	DB	040H
	DB	01H
	DB	05H
	DB	098H
	DB	00H
	DB	0aH
	DB	038H
	DB	010H
	DB	08H
	DB	04aH
	DB	01H
	DB	08H
	DB	0deH
	DB	05H
	DB	06H
	DB	052H
	DB	03H
	DB	08H
	DB	038H
	DB	07H
	DB	05H
	DB	0c8H
	DB	05H
	DB	011H
	DB	040H
	DB	01H
	DB	038H
	DB	08eH
	DB	02H
	DB	013H
	DB	033H
	DB	024H
	DB	011H
	DB	08dH
	DB	024H
	DB	06H
	DB	025H
	DB	01eH
	DB	08H
	DB	078H
	DB	00H
	DB	040H
	DB	045H
	DB	040H
	DB	01H
	DB	06H
	DB	0cH
	DB	01H
	DB	07H
	DB	0d0H
	DB	033H
	DB	03bH
	DB	0c0H
	DB	03H
	DB	0dH
	DB	08bH
	DB	0cH
	DB	09H
	DB	0e5H
	DB	029H
	DB	0cH
	DB	01dH
	DB	05H
	DB	07H
	DB	0c5H
	DB	00H
	DB	08H
	DB	0ebH
	DB	01eH
	DB	07H
	DB	08H
	DB	07H
	DB	036H
	DB	020H
	DB	01H
	DB	01fH
	DB	018H
	DB	05H
	DB	013H
	DB	08H
	DB	027H
	DB	0bH
	DB	067H
	DB	0aH
	DB	081H
	DB	03H
	DB	03H
	DB	06H
	DB	078H
	DB	00H
	DB	08H
	DB	08dH
	DB	00H
	DB	03eH
	DB	048H
	DB	010H
	DB	0aH
	DB	0cbH
	DB	033H
	DB	033H
	DB	080H
	DB	02H
	DB	0bH
	DB	083H
	DB	02H
	DB	08H
	DB	00H
	DB	05H
	DB	08H
	DB	03dH
	DB	03H
	DB	01dH
	DB	04bH
	DB	03H
	DB	011H
	DB	0e4H
	DB	028H
	DB	09H
	DB	023H
	DB	019H
	DB	026H
	DB	038H
	DB	06H
	DB	027H
	DB	0b0H
	DB	01aH
	DB	08H
	DB	064H
	DB	00H
	DB	08H
	DB	036H
	DB	04H
	DB	08H
	DB	033H
	DB	018H
	DB	08H
	DB	032H
	DB	05H
	DB	040H
	DB	046H
	DB	085H
	DB	011H
	DB	06H
	DB	0d0H
	DB	040H
	DB	037H
	DB	040H
	DB	0bH
	DB	019H
	DB	040H
	DB	01H
	DB	08H
	DB	0a0H
	DB	00H
	DB	017H
	DB	0e9H
	DB	00H
	DB	015H
	DB	08H
	DB	020H
	DB	029H
	DB	078H
	DB	07H
	DB	018H
	DB	088H
	DB	02H
	DB	017H
	DB	048H
	DB	028H
	DB	014H
	DB	040H
	DB	01H
	DB	0dH
	DB	077H
	DB	06H
	DB	07H
	DB	0ccH
	DB	026H
	DB	039H
	DB	090H
	DB	031H
	DB	035H
	DB	080H
	DB	07H
	DB	05H
	DB	065H
	DB	01dH
	DB	05H
	DB	0e8H
	DB	04H
	DB	09H
	DB	0b3H
	DB	03H
	DB	0bH
	DB	0f7H
	DB	04H
	DB	010H
	DB	01eH
	DB	01fH
	DB	015H
	DB	025H
	DB	01eH
	DB	0fH
	DB	046H
	DB	024H
	DB	012H
	DB	017H
	DB	016H
	DB	024H
	DB	0c0H
	DB	08H
	DB	0fH
	DB	09cH
	DB	026H
	DB	0bH
	DB	0a3H
	DB	0cH
	DB	0eH
	DB	067H
	DB	010H
	DB	0aH
	DB	042H
	DB	024H
	DB	010H
	DB	0b8H
	DB	03H
	DB	08H
	DB	0cdH
	DB	026H
	DB	040H
	DB	081H
	DB	040H
	DB	01H
	DB	07H
	DB	018H
	DB	0bH
	DB	04H
	DB	048H
	DB	01H
	DB	09H
	DB	075H
	DB	09H
	DB	06H
	DB	0d0H
	DB	0eH
	DB	011H
	DB	06dH
	DB	02H
	DB	0dH
	DB	09aH
	DB	09H
	DB	012H
	DB	053H
	DB	011H
	DB	029H
	DB	08H
	DB	05H
	DB	012H
	DB	02eH
	DB	00H
	DB	015H
	DB	08bH
	DB	029H
	DB	09H
	DB	030H
	DB	01fH
	DB	0fH
	DB	03eH
	DB	0fH
	DB	09H
	DB	021H
	DB	00H
	DB	038H
	DB	080H
	DB	02H
	DB	0aH
	DB	08eH
	DB	012H
	DB	03aH
	DB	080H
	DB	07H
	DB	0eH
	DB	040H
	DB	01H
	DB	08H
	DB	0d4H
	DB	0bH
	DB	0bH
	DB	023H
	DB	015H
	DB	0bH
	DB	0aH
	DB	05H
	DB	0dH
	DB	048H
	DB	02eH
	DB	05H
	DB	05bH
	DB	03H
	DB	0aH
	DB	048H
	DB	01bH
	DB	028H
	DB	0cbH
	DB	03H
	DB	09H
	DB	0f9H
	DB	00H
	DB	0dH
	DB	0d6H
	DB	020H
	DB	012H
	DB	0c7H
	DB	03H
	DB	010H
	DB	05dH
	DB	01H
	DB	013H
	DB	09bH
	DB	02H
	DB	09H
	DB	051H
	DB	00H
	DB	02aH
	DB	0c0H
	DB	042H
	DB	040H
	DB	04aH
	DB	040H
	DB	01H
	DB	06H
	DB	080H
	DB	0cH
	DB	0eH
	DB	0e3H
	DB	031H
	DB	0fH
	DB	0f1H
	DB	031H
	DB	0dH
	DB	0e3H
	DB	01cH
	DB	08H
	DB	038H
	DB	06H
	DB	0bH
	DB	040H
	DB	01H
	DB	08H
	DB	0a3H
	DB	02H
	DB	06H
	DB	0b0H
	DB	0cH
	DB	01aH
	DB	0d2H
	DB	04H
	DB	0eH
	DB	0efH
	DB	00H
	DB	0aH
	DB	0d0H
	DB	01dH
	DB	01dH
	DB	030H
	DB	02eH
	DB	0eH
	DB	0e3H
	DB	07H
	DB	012H
	DB	048H
	DB	022H
	DB	0bH
	DB	03fH
	DB	01H
	DB	06H
	DB	00H
	DB	033H
	DB	038H
	DB	042H
	DB	037H
	DB	037H
	DB	0c0H
	DB	0dH
	DB	06H
	DB	0ebH
	DB	010H
	DB	0eH
	DB	030H
	DB	01H
	DB	0cH
	DB	0e0H
	DB	022H
	DB	06H
	DB	0b3H
	DB	032H
	DB	0aH
	DB	038H
	DB	01H
	DB	0eH
	DB	022H
	DB	0bH
	DB	06H
	DB	0d5H
	DB	028H
	DB	05H
	DB	0d2H
	DB	00H
	DB	0aH
	DB	092H
	DB	0cH
	DB	018H
	DB	041H
	DB	01H
	DB	010H
	DB	030H
	DB	02H
	DB	09H
	DB	0ddH
	DB	022H
	DB	01dH
	DB	071H
	DB	01H
	DB	0fH
	DB	045H
	DB	04H
	DB	016H
	DB	065H
	DB	02dH
	DB	07H
	DB	05dH
	DB	015H
	DB	040H
	DB	041H
	DB	050H
	DB	03cH
	DB	030H
	DB	040H
	DB	01H
	DB	08H
	DB	0dH
	DB	01aH
	DB	0eH
	DB	07dH
	DB	02H
	DB	08H
	DB	08H
	DB	0fH
	DB	0dH
	DB	055H
	DB	0bH
	DB	010H
	DB	040H
	DB	01H
	DB	0aH
	DB	00H
	DB	0aH
	DB	08H
	DB	07dH
	DB	02H
	DB	0bH
	DB	0b8H
	DB	07H
	DB	010H
	DB	0c8H
	DB	08H
	DB	0bH
	DB	048H
	DB	015H
	DB	0bH
	DB	045H
	DB	00H
	DB	0fH
	DB	08dH
	DB	017H
	DB	018H
	DB	061H
	DB	02dH
	DB	06H
	DB	034H
	DB	04H
	DB	01aH
	DB	0cbH
	DB	02H
	DB	06H
	DB	0e0H
	DB	08H
	DB	03dH
	DB	040H
	DB	01H
	DB	038H
	DB	040H
	DB	0bH
	DB	06H
	DB	0e0H
	DB	01aH
	DB	09H
	DB	085H
	DB	016H
	DB	0eH
	DB	040H
	DB	01H
	DB	010H
	DB	057H
	DB	0bH
	DB	011H
	DB	0c0H
	DB	08H
	DB	05H
	DB	018H
	DB	00H
	DB	05H
	DB	0d0H
	DB	00H
	DB	06H
	DB	070H
	DB	015H
	DB	015H
	DB	010H
	DB	01H
	DB	07H
	DB	0daH
	DB	05H
	DB	0bH
	DB	02H
	DB	037H
	DB	07H
	DB	066H
	DB	025H
	DB	07H
	DB	0dbH
	DB	04H
	DB	08H
	DB	093H
	DB	08H
	DB	01bH
	DB	0a1H
	DB	02eH
	DB	01dH
	DB	0dbH
	DB	08H
	DB	0aH
	DB	0beH
	DB	03H
	DB	040H
	DB	040H
	DB	032H
	DB	03cH
	DB	031H
	DB	0c0H
	DB	0dH
	DB	05H
	DB	042H
	DB	01H
	DB	0aH
	DB	05dH
	DB	022H
	DB	0dH
	DB	0c0H
	DB	03H
	DB	09H
	DB	0e8H
	DB	010H
	DB	0fH
	DB	0d8H
	DB	03H
	DB	0bH
	DB	079H
	DB	04H
	DB	04H
	DB	036H
	DB	02aH
	DB	05H
	DB	0bdH
	DB	03H
	DB	04H
	DB	040H
	DB	02aH
	DB	06H
	DB	0b3H
	DB	011H
	DB	05H
	DB	028H
	DB	01H
	DB	0dH
	DB	019H
	DB	038H
	DB	08H
	DB	086H
	DB	012H
	DB	08H
	DB	0c0H
	DB	011H
	DB	0bH
	DB	055H
	DB	016H
	DB	06H
	DB	0c2H
	DB	02H
	DB	07H
	DB	033H
	DB	029H
	DB	016H
	DB	030H
	DB	02dH
	DB	028H
	DB	040H
	DB	01H
	DB	035H
	DB	040H
	DB	029H
	DB	013H
	DB	02H
	DB	05H
	DB	030H
	DB	040H
	DB	01H
	DB	082H
	DB	05H
	DB	05H
	DB	02H
	DB	05H
	DB	083H
	DB	02H
	DB	0aH
	DB	074H
	DB	07H
	DB	0cH
	DB	0cbH
	DB	013H
	DB	0fH
	DB	05eH
	DB	017H
	DB	080H
	DB	04H
	DB	08H
	DB	092H
	DB	04H
	DB	0cH
	DB	060H
	DB	01H
	DB	08H
	DB	013H
	DB	011H
	DB	08H
	DB	0bbH
	DB	03H
	DB	09H
	DB	09aH
	DB	024H
	DB	0aH
	DB	08eH
	DB	00H
	DB	06H
	DB	076H
	DB	010H
	DB	0bH
	DB	0f8H
	DB	037H
	DB	0aH
	DB	058H
	DB	016H
	DB	010H
	DB	058H
	DB	032H
	DB	01dH
	DB	02aH
	DB	01H
	DB	01dH
	DB	065H
	DB	032H
	DB	03cH
	DB	07bH
	DB	0cH
	DB	038H
	DB	040H
	DB	06H
	DB	07H
	DB	01bH
	DB	017H
	DB	08H
	DB	038H
	DB	07H
	DB	0bH
	DB	0eeH
	DB	038H
	DB	0eH
	DB	09dH
	DB	09H
	DB	05H
	DB	057H
	DB	0bH
	DB	0dH
	DB	05bH
	DB	07H
	DB	06H
	DB	0bdH
	DB	03H
	DB	05H
	DB	0f8H
	DB	00H
	DB	0aH
	DB	06aH
	DB	0bH
	DB	06H
	DB	013H
	DB	027H
	DB	07H
	DB	0abH
	DB	03H
	DB	06H
	DB	0bbH
	DB	013H
	DB	05H
	DB	04bH
	DB	01H
	DB	015H
	DB	0e5H
	DB	011H
	DB	06H
	DB	01dH
	DB	00H
	DB	0bH
	DB	0c0H
	DB	08H
	DB	0bH
	DB	0d8H
	DB	09H
	DB	0cH
	DB	096H
	DB	07H
	DB	016H
	DB	088H
	DB	02eH
	DB	040H
	DB	088H
	DB	040H
	DB	01H
	DB	06H
	DB	042H
	DB	01H
	DB	0cH
	DB	060H
	DB	027H
	DB	0eH
	DB	058H
	DB	02fH
	DB	0dH
	DB	083H
	DB	025H
	DB	0eH
	DB	0dcH
	DB	04H
	DB	06H
	DB	07cH
	DB	02H
	DB	05H
	DB	028H
	DB	023H
	DB	07H
	DB	05H
	DB	01H
	DB	080H
	DB	02H
	DB	05H
	DB	013H
	DB	01H
	DB	07H
	DB	0d5H
	DB	01bH
	DB	0cH
	DB	08H
	DB	03cH
	DB	0dH
	DB	078H
	DB	015H
	DB	0bH
	DB	087H
	DB	02H
	DB	0dH
	DB	078H
	DB	01aH
	DB	07H
	DB	043H
	DB	01H
	DB	06H
	DB	0e0H
	DB	02H
	DB	0dH
	DB	06bH
	DB	01aH
	DB	013H
	DB	088H
	DB	01aH
	DB	015H
	DB	088H
	DB	0fH
	DB	040H
	DB	043H
	DB	030H
	DB	041H
	DB	032H
	DB	040H
	DB	01H
	DB	04H
	DB	0c3H
	DB	03H
	DB	08H
	DB	01bH
	DB	021H
	DB	0aH
	DB	0acH
	DB	03H
	DB	08H
	DB	028H
	DB	0bH
	DB	010H
	DB	0a5H
	DB	018H
	DB	0dH
	DB	0c0H
	DB	09H
	DB	05H
	DB	0f0H
	DB	00H
	DB	09H
	DB	0c0H
	DB	08H
	DB	07H
	DB	00H
	DB	02eH
	DB	06H
	DB	0bdH
	DB	01dH
	DB	0bH
	DB	070H
	DB	015H
	DB	0bH
	DB	07aH
	DB	015H
	DB	015H
	DB	03cH
	DB	053H
	DB	08H
	DB	0a0H
	DB	02bH
	DB	07H
	DB	090H
	DB	01H
	DB	02eH
	DB	0b5H
	DB	034H
	DB	040H
	DB	046H
	DB	080H
	DB	02H
	DB	03dH
	DB	040H
	DB	01H
	DB	0aH
	DB	0caH
	DB	08H
	DB	014H
	DB	08fH
	DB	01cH
	DB	09H
	DB	02bH
	DB	0dH
	DB	0cH
	DB	0f0H
	DB	02eH
	DB	08H
	DB	0d0H
	DB	0fH
	DB	05H
	DB	035H
	DB	026H
	DB	05H
	DB	040H
	DB	01H
	DB	06H
	DB	024H
	DB	00H
	DB	018H
	DB	08dH
	DB	015H
	DB	08H
	DB	0b8H
	DB	016H
	DB	0dH
	DB	0f0H
	DB	01aH
	DB	081H
	DB	06H
	DB	06H
	DB	08H
	DB	0ceH
	DB	016H
	DB	016H
	DB	05H
	DB	018H
	DB	01fH
	DB	040H
	DB	01H
	DB	0fH
	DB	033H
	DB	0eH
	DB	09H
	DB	040H
	DB	01H
	DB	031H
	DB	082H
	DB	042H
	DB	05H
	DB	0bbH
	DB	08H
	DB	038H
	DB	040H
	DB	01H
	DB	06H
	DB	0f2H
	DB	08H
	DB	08H
	DB	05H
	DB	05H
	DB	0aH
	DB	030H
	DB	06H
	DB	0eH
	DB	040H
	DB	01H
	DB	08H
	DB	03aH
	DB	01H
	DB	0fH
	DB	040H
	DB	01H
	DB	0dH
	DB	0d8H
	DB	0fH
	DB	0bH
	DB	0c8H
	DB	011H
	DB	0eH
	DB	070H
	DB	02H
	DB	0bH
	DB	047H
	DB	01H
	DB	010H
	DB	033H
	DB	01cH
	DB	0cH
	DB	05dH
	DB	01H
	DB	04H
	DB	07dH
	DB	02H
	DB	015H
	DB	05H
	DB	0fH
	DB	01aH
	DB	040H
	DB	01H
	DB	0dH
	DB	0fH
	DB	08H
	DB	03cH
	DB	0c0H
	DB	08H
	DB	040H
	DB	040H
	DB	080H
	DB	02H
	DB	0fH
	DB	040H
	DB	01H
	DB	0cH
	DB	0cfH
	DB	01dH
	DB	014H
	DB	064H
	DB	012H
	DB	0dH
	DB	080H
	DB	02H
	DB	0bH
	DB	0f0H
	DB	01cH
	DB	08H
	DB	0d0H
	DB	021H
	DB	011H
	DB	016H
	DB	041H
	DB	0dH
	DB	060H
	DB	051H
	DB	0fH
	DB	073H
	DB	01dH
	DB	09H
	DB	05dH
	DB	01H
	DB	012H
	DB	00H
	DB	018H
	DB	02bH
	DB	0beH
	DB	03H
	DB	05H
	DB	08fH
	DB	05H
	DB	040H
	DB	043H
	DB	0bdH
	DB	050H
	DB	038H
	DB	0c0H
	DB	03H
	DB	0aH
	DB	010H
	DB	02eH
	DB	09H
	DB	04fH
	DB	021H
	DB	027H
	DB	00H
	DB	010H
	DB	08H
	DB	0b5H
	DB	03H
	DB	06H
	DB	0cbH
	DB	020H
	DB	08H
	DB	032H
	DB	01bH
	DB	01aH
	DB	073H
	DB	023H
	DB	09H
	DB	0e6H
	DB	04aH
	DB	0aH
	DB	065H
	DB	01H
	DB	010H
	DB	018H
	DB	024H
	DB	01fH
	DB	056H
	DB	037H
	DB	014H
	DB	0dcH
	DB	039H
	DB	05H
	DB	090H
	DB	05H
	DB	03eH
	DB	040H
	DB	01H
	DB	033H
	DB	080H
	DB	0cH
	DB	0cH
	DB	080H
	DB	02H
	DB	0bH
	DB	088H
	DB	011H
	DB	016H
	DB	0d0H
	DB	01dH
	DB	010H
	DB	0abH
	DB	02fH
	DB	08H
	DB	068H
	DB	02H
	DB	08H
	DB	07aH
	DB	02H
	DB	07H
	DB	050H
	DB	029H
	DB	010H
	DB	040H
	DB	01H
	DB	0bH
	DB	0f7H
	DB	00H
	DB	0eH
	DB	0d6H
	DB	046H
	DB	0dH
	DB	083H
	DB	02H
	DB	08H
	DB	010H
	DB	022H
	DB	06H
	DB	01bH
	DB	015H
	DB	04H
	DB	063H
	DB	020H
	DB	08H
	DB	0a0H
	DB	06H
	DB	024H
	DB	080H
	DB	02H
	DB	07H
	DB	080H
	DB	05H
	DB	040H
	DB	088H
	DB	040H
	DB	01H
	DB	0bH
	DB	0abH
	DB	012H
	DB	015H
	DB	0c1H
	DB	0aH
	DB	0bH
	DB	0c0H
	DB	0eH
	DB	06H
	DB	08H
	DB	02dH
	DB	07H
	DB	048H
	DB	023H
	DB	09H
	DB	08H
	DB	045H
	DB	08H
	DB	040H
	DB	01H
	DB	012H
	DB	0faH
	DB	00H
	DB	06H
	DB	043H
	DB	01H
	DB	08H
	DB	0b1H
	DB	02H
	DB	08H
	DB	03H
	DB	026H
	DB	0aH
	DB	030H
	DB	05H
	DB	06H
	DB	055H
	DB	0bH
	DB	04H
	DB	07bH
	DB	00H
	DB	04H
	DB	011H
	DB	00H
	DB	01fH
	DB	0d8H
	DB	039H
	DB	010H
	DB	0e0H
	DB	01H
	DB	040H
	DB	079H
	DB	040H
	DB	01H
	DB	0aH
	DB	04fH
	DB	024H
	DB	0dH
	DB	014H
	DB	021H
	DB	0bH
	DB	0b8H
	DB	0fH
	DB	015H
	DB	0feH
	DB	0bH
	DB	05H
	DB	0ebH
	DB	09H
	DB	0bH
	DB	0abH
	DB	022H
	DB	06H
	DB	03aH
	DB	01H
	DB	07H
	DB	0e6H
	DB	0eH
	DB	0eH
	DB	035H
	DB	01H
	DB	0dH
	DB	0dH
	DB	00H
	DB	08H
	DB	0a8H
	DB	00H
	DB	09H
	DB	088H
	DB	02H
	DB	07H
	DB	0baH
	DB	07H
	DB	05H
	DB	04bH
	DB	00H
	DB	08H
	DB	096H
	DB	0cH
	DB	06H
	DB	0d8H
	DB	0dH
	DB	025H
	DB	085H
	DB	041H
	DB	03eH
	DB	040H
	DB	01H
	DB	0aH
	DB	073H
	DB	010H
	DB	03bH
	DB	0c0H
	DB	08H
	DB	08H
	DB	068H
	DB	0dH
	DB	08H
	DB	010H
	DB	015H
	DB	0aH
	DB	038H
	DB	01aH
	DB	014H
	DB	0ffH
	DB	0bH
	DB	07H
	DB	02eH
	DB	03H
	DB	082H
	DB	00H
	DB	06H
	DB	06H
	DB	0dH
	DB	0cdH
	DB	026H
	DB	06H
	DB	080H
	DB	00H
	DB	07H
	DB	0c4H
	DB	0dH
	DB	0bH
	DB	031H
	DB	01H
	DB	080H
	DB	01H
	DB	04H
	DB	016H
	DB	04cH
	DB	0eH
	DB	050H
	DB	01H
	DB	06H
	DB	018H
	DB	0fH
	DB	07H
	DB	0b8H
	DB	05H
	DB	06H
	DB	03dH
	DB	029H
	DB	06H
	DB	023H
	DB	02eH
	DB	07H
	DB	068H
	DB	028H
	DB	06H
	DB	060H
	DB	07H
	DB	04H
	DB	04dH
	DB	00H
	DB	024H
	DB	0c5H
	DB	042H
	DB	03fH
	DB	080H
	DB	02H
	DB	06H
	DB	040H
	DB	01fH
	DB	03dH
	DB	00H
	DB	0aH
	DB	08H
	DB	010H
	DB	02H
	DB	0dH
	DB	0f2H
	DB	0eH
	DB	06H
	DB	013H
	DB	010H
	DB	011H
	DB	0aH
	DB	0cH
	DB	04H
	DB	060H
	DB	03H
	DB	06H
	DB	071H
	DB	03H
	DB	04H
	DB	0f8H
	DB	05cH
	DB	08H
	DB	019H
	DB	028H
	DB	09H
	DB	04dH
	DB	02H
	DB	09H
	DB	042H
	DB	01H
	DB	06H
	DB	033H
	DB	01H
	DB	04H
	DB	025H
	DB	01H
	DB	05H
	DB	0a2H
	DB	00H
	DB	010H
	DB	041H
	DB	01H
	DB	08H
	DB	0b3H
	DB	00H
	DB	0aH
	DB	04bH
	DB	06H
	DB	06H
	DB	078H
	DB	020H
	DB	081H
	DB	01H
	DB	01H
	DB	09H
	DB	077H
	DB	0aH
	DB	07H
	DB	0d0H
	DB	03H
	DB	02dH
	DB	040H
	DB	01H
	DB	031H
	DB	03eH
	DB	015H
	DB	08H
	DB	0bdH
	DB	01cH
	DB	040H
	DB	045H
	DB	040H
	DB	01H
	DB	08H
	DB	042H
	DB	01H
	DB	0aH
	DB	0e2H
	DB	022H
	DB	013H
	DB	07dH
	DB	02bH
	DB	05H
	DB	033H
	DB	06H
	DB	06H
	DB	048H
	DB	021H
	DB	06H
	DB	07dH
	DB	010H
	DB	05H
	DB	022H
	DB	01H
	DB	07H
	DB	0dH
	DB	018H
	DB	011H
	DB	083H
	DB	00H
	DB	08H
	DB	040H
	DB	01H
	DB	0bH
	DB	050H
	DB	06H
	DB	0dH
	DB	03dH
	DB	01dH
	DB	081H
	DB	01H
	DB	01H
	DB	05H
	DB	074H
	DB	00H
	DB	06H
	DB	010H
	DB	00H
	DB	08H
	DB	0b3H
	DB	024H
	DB	0aH
	DB	028H
	DB	02cH
	DB	029H
	DB	02H
	DB	05H
	DB	03aH
	DB	0c0H
	DB	03H
	DB	039H
	DB	0c0H
	DB	026H
	DB	015H
	DB	090H
	DB	02aH
	DB	0aH
	DB	055H
	DB	02eH
	DB	0eH
	DB	0c2H
	DB	05H
	DB	08H
	DB	03eH
	DB	01H
	DB	08H
	DB	088H
	DB	02cH
	DB	05H
	DB	03eH
	DB	01H
	DB	06H
	DB	080H
	DB	024H
	DB	014H
	DB	043H
	DB	027H
	DB	08H
	DB	0aH
	DB	00H
	DB	010H
	DB	0e6H
	DB	05cH
	DB	011H
	DB	041H
	DB	02cH
	DB	08H
	DB	037H
	DB	00H
	DB	05H
	DB	010H
	DB	00H
	DB	05H
	DB	055H
	DB	00H
	DB	08H
	DB	074H
	DB	02H
	DB	080H
	DB	02H
	DB	08H
	DB	010H
	DB	05H
	DB	010H
	DB	086H
	DB	02H
	DB	040H
	DB	055H
	DB	040H
	DB	06H
	DB	040H
	DB	042H
	DB	00H
	DB	05H
	DB	0dH
	DB	040H
	DB	01H
	DB	06H
	DB	010H
	DB	014H
	DB	0dH
	DB	040H
	DB	01H
	DB	08H
	DB	090H
	DB	03H
	DB	06H
	DB	0ebH
	DB	015H
	DB	0aH
	DB	073H
	DB	035H
	DB	06H
	DB	0d5H
	DB	02bH
	DB	0dH
	DB	0fdH
	DB	061H
	DB	05H
	DB	025H
	DB	00H
	DB	05H
	DB	08H
	DB	00H
	DB	011H
	DB	068H
	DB	031H
	DB	01dH
	DB	082H
	DB	036H
	DB	08H
	DB	0b3H
	DB	02eH
	DB	0cH
	DB	0e7H
	DB	03H
	DB	0aH
	DB	0bH
	DB	04H
	DB	07H
	DB	015H
	DB	00H
	DB	015H
	DB	03dH
	DB	023H
	DB	039H
	DB	0c0H
	DB	08H
	DB	040H
	DB	04aH
	DB	040H
	DB	06H
	DB	05H
	DB	06bH
	DB	012H
	DB	010H
	DB	088H
	DB	011H
	DB	010H
	DB	07fH
	DB	02H
	DB	080H
	DB	01H
	DB	010H
	DB	0c8H
	DB	0eH
	DB	05H
	DB	012H
	DB	01H
	DB	05H
	DB	040H
	DB	01H
	DB	0dH
	DB	011H
	DB	01H
	DB	06H
	DB	086H
	DB	07H
	DB	02eH
	DB	060H
	DB	05cH
	DB	07H
	DB	0d3H
	DB	060H
	DB	0eH
	DB	0aeH
	DB	07H
	DB	07H
	DB	0b4H
	DB	02H
	DB	08H
	DB	0c8H
	DB	07H
	DB	0bH
	DB	038H
	DB	03fH
	DB	010H
	DB	028H
	DB	04aH
	DB	040H
	DB	080H
	DB	040H
	DB	06H
	DB	06H
	DB	038H
	DB	02H
	DB	0dH
	DB	08H
	DB	02dH
	DB	0bH
	DB	0e5H
	DB	01H
	DB	0bH
	DB	090H
	DB	036H
	DB	09H
	DB	041H
	DB	072H
	DB	0bH
	DB	0f5H
	DB	061H
	DB	0eH
	DB	07bH
	DB	077H
	DB	0aH
	DB	045H
	DB	06H
	DB	09H
	DB	01bH
	DB	038H
	DB	0dH
	DB	011H
	DB	075H
	DB	0aH
	DB	058H
	DB	076H
	DB	06H
	DB	00H
	DB	01cH
	DB	0eH
	DB	040H
	DB	01H
	DB	010H
	DB	0f0H
	DB	08H
	DB	0fH
	DB	070H
	DB	013H
	DB	013H
	DB	0bH
	DB	019H
	DB	08H
	DB	01cH
	DB	018H
	DB	039H
	DB	0fbH
	DB	018H
	DB	040H
	DB	055H
	DB	040H
	DB	01H
	DB	0fH
	DB	010H
	DB	01aH
	DB	08H
	DB	040H
	DB	01H
	DB	08H
	DB	093H
	DB	03H
	DB	09H
	DB	03H
	DB	01H
	DB	0aH
	DB	063H
	DB	077H
	DB	08H
	DB	0fH
	DB	05H
	DB	06H
	DB	065H
	DB	03H
	DB	05H
	DB	0e5H
	DB	04fH
	DB	0aH
	DB	05H
	DB	029H
	DB	08H
	DB	06eH
	DB	0cH
	DB	0bH
	DB	0a1H
	DB	03aH
	DB	0dH
	DB	0a5H
	DB	01aH
	DB	080H
	DB	06H
	DB	05H
	DB	010H
	DB	01cH
	DB	05H
	DB	07bH
	DB	034H
	DB	010H
	DB	040H
	DB	01H
	DB	0bH
	DB	05dH
	DB	03H
	DB	012H
	DB	0a4H
	DB	01bH
	DB	08H
	DB	0bbH
	DB	011H
	DB	03bH
	DB	0bfH
	DB	021H
	DB	040H
	DB	063H
	DB	040H
	DB	01H
	DB	07H
	DB	053H
	DB	02bH
	DB	08H
	DB	0a0H
	DB	065H
	DB	04H
	DB	03eH
	DB	01H
	DB	012H
	DB	05bH
	DB	038H
	DB	05H
	DB	015H
	DB	00H
	DB	05H
	DB	096H
	DB	02H
	DB	0bH
	DB	060H
	DB	03cH
	DB	09H
	DB	04dH
	DB	02aH
	DB	0cH
	DB	02H
	DB	02cH
	DB	0cH
	DB	035H
	DB	00H
	DB	08H
	DB	04dH
	DB	01H
	DB	07H
	DB	042H
	DB	06H
	DB	0bH
	DB	0b6H
	DB	08H
	DB	08H
	DB	08bH
	DB	02H
	DB	08H
	DB	06fH
	DB	05H
	DB	05H
	DB	047H
	DB	00H
	DB	014H
	DB	03eH
	DB	01H
	DB	0aH
	DB	040H
	DB	01H
	DB	033H
	DB	043H
	DB	055H
	DB	0aH
	DB	09aH
	DB	060H
	DB	040H
	DB	052H
	DB	040H
	DB	01H
	DB	0bH
	DB	014H
	DB	037H
	DB	06H
	DB	020H
	DB	00H
	DB	081H
	DB	01H
	DB	01H
	DB	05H
	DB	0f0H
	DB	0dH
	DB	04H
	DB	03dH
	DB	01eH
	DB	016H
	DB	0e9H
	DB	03cH
	DB	06H
	DB	0c0H
	DB	03bH
	DB	06H
	DB	06H
	DB	0fH
	DB	0aH
	DB	0dfH
	DB	00H
	DB	05H
	DB	0c1H
	DB	031H
	DB	014H
	DB	03eH
	DB	01H
	DB	081H
	DB	07H
	DB	07H
	DB	05H
	DB	0c3H
	DB	03H
	DB	04H
	DB	038H
	DB	01H
	DB	0fH
	DB	040H
	DB	01H
	DB	0bH
	DB	0c8H
	DB	03H
	DB	06H
	DB	020H
	DB	02H
	DB	07H
	DB	0d8H
	DB	07H
	DB	015H
	DB	020H
	DB	01eH
	DB	0cH
	DB	0fdH
	DB	022H
	DB	02dH
	DB	086H
	DB	02H
	DB	03bH
	DB	00H
	DB	02dH
	DB	01cH
	DB	082H
	DB	07H
	DB	0eH
	DB	01bH
	DB	037H
	DB	08H
	DB	0e0H
	DB	0eH
	DB	06H
	DB	093H
	DB	02fH
	DB	07H
	DB	088H
	DB	07H
	DB	011H
	DB	0a8H
	DB	036H
	DB	0dH
	DB	02dH
	DB	03eH
	DB	081H
	DB	00H
	DB	00H
	DB	05H
	DB	040H
	DB	01H
	DB	08H
	DB	041H
	DB	01H
	DB	04H
	DB	09dH
	DB	06H
	DB	017H
	DB	040H
	DB	01H
	DB	09H
	DB	0a3H
	DB	038H
	DB	04H
	DB	066H
	DB	02H
	DB	0cH
	DB	0c0H
	DB	08H
	DB	017H
	DB	06H
	DB	05H
	DB	016H
	DB	08H
	DB	026H
	DB	081H
	DB	03H
	DB	03H
	DB	010H
	DB	036H
	DB	01H
	DB	026H
	DB	0ceH
	DB	03H
	DB	040H
	DB	04dH
	DB	040H
	DB	01H
	DB	0aH
	DB	0c5H
	DB	0dH
	DB	011H
	DB	0bcH
	DB	053H
	DB	010H
	DB	040H
	DB	01H
	DB	08H
	DB	0bfH
	DB	03H
	DB	015H
	DB	0c8H
	DB	03H
	DB	06H
	DB	042H
	DB	01H
	DB	07H
	DB	040H
	DB	01H
	DB	08H
	DB	051H
	DB	00H
	DB	0aH
	DB	022H
	DB	03dH
	DB	0fH
	DB	080H
	DB	02H
	DB	0aH
	DB	05H
	DB	06bH
	DB	05H
	DB	070H
	DB	02dH
	DB	015H
	DB	074H
	DB	0cH
	DB	09H
	DB	0a0H
	DB	00H
	DB	012H
	DB	0e5H
	DB	012H
	DB	09H
	DB	05dH
	DB	04H
	DB	015H
	DB	095H
	DB	02bH
	DB	027H
	DB	0c0H
	DB	03H
	DB	040H
	DB	048H
	DB	040H
	DB	01H
	DB	011H
	DB	0d0H
	DB	029H
	DB	0eH
	DB	077H
	DB	01cH
	DB	05H
	DB	0e0H
	DB	09H
	DB	0fH
	DB	040H
	DB	01H
	DB	01bH
	DB	0b0H
	DB	040H
	DB	09H
	DB	0cbH
	DB	01cH
	DB	05H
	DB	05bH
	DB	010H
	DB	05H
	DB	070H
	DB	028H
	DB	012H
	DB	0edH
	DB	03H
	DB	05H
	DB	0c2H
	DB	00H
	DB	04H
	DB	0c0H
	DB	015H
	DB	012H
	DB	0c0H
	DB	08H
	DB	010H
	DB	040H
	DB	01H
	DB	09H
	DB	09bH
	DB	06H
	DB	0fH
	DB	04bH
	DB	023H
	DB	0aH
	DB	040H
	DB	01H
	DB	09H
	DB	0ffH
	DB	04H
	DB	02dH
	DB	01aH
	DB	050H
	DB	040H
	DB	048H
	DB	040H
	DB	06H
	DB	06H
	DB	05H
	DB	0aH
	DB	012H
	DB	0bH
	DB	037H
	DB	013H
	DB	0a2H
	DB	015H
	DB	0aH
	DB	040H
	DB	01H
	DB	010H
	DB	0f0H
	DB	037H
	DB	0eH
	DB	0f8H
	DB	037H
	DB	08H
	DB	058H
	DB	048H
	DB	06H
	DB	0c3H
	DB	03H
	DB	012H
	DB	040H
	DB	01H
	DB	05H
	DB	080H
	DB	02H
	DB	06H
	DB	0c2H
	DB	01aH
	DB	0cH
	DB	0a0H
	DB	01H
	DB	016H
	DB	043H
	DB	01H
	DB	015H
	DB	016H
	DB	027H
	DB	05H
	DB	068H
	DB	04H
	DB	03bH
	DB	040H
	DB	01H
	DB	0bH
	DB	08dH
	DB	0fH
	DB	040H
	DB	045H
	DB	040H
	DB	01H
	DB	0eH
	DB	010H
	DB	034H
	DB	07H
	DB	040H
	DB	01H
	DB	011H
	DB	01dH
	DB	013H
	DB	08H
	DB	035H
	DB	01H
	DB	05H
	DB	040H
	DB	02H
	DB	015H
	DB	085H
	DB	02H
	DB	06H
	DB	018H
	DB	0fH
	DB	0aH
	DB	098H
	DB	049H
	DB	06H
	DB	030H
	DB	014H
	DB	05H
	DB	033H
	DB	00H
	DB	08H
	DB	0a3H
	DB	030H
	DB	0eH
	DB	038H
	DB	00H
	DB	05H
	DB	05H
	DB	09H
	DB	0fH
	DB	0adH
	DB	0dH
	DB	0dH
	DB	045H
	DB	06H
	DB	0fH
	DB	0c3H
	DB	03H
	DB	0cH
	DB	088H
	DB	03eH
	DB	08H
	DB	00H
	DB	05H
	DB	0bH
	DB	07fH
	DB	07H
	DB	029H
	DB	046H
	DB	06H
	DB	040H
	DB	04fH
	DB	040H
	DB	01H
	DB	08H
	DB	0d8H
	DB	058H
	DB	0bH
	DB	01bH
	DB	01aH
	DB	08H
	DB	067H
	DB	00H
	DB	0dH
	DB	0cbH
	DB	05H
	DB	08H
	DB	0ceH
	DB	04H
	DB	018H
	DB	075H
	DB	044H
	DB	06H
	DB	03aH
	DB	00H
	DB	07H
	DB	096H
	DB	06H
	DB	08H
	DB	01H
	DB	0aH
	DB	080H
	DB	06H
	DB	010H
	DB	075H
	DB	073H
	DB	0bH
	DB	042H
	DB	06H
	DB	05H
	DB	04dH
	DB	00H
	DB	0aH
	DB	07dH
	DB	07H
	DB	08H
	DB	070H
	DB	00H
	DB	0dH
	DB	03eH
	DB	01H
	DB	014H
	DB	0faH
	DB	0eH
	DB	07H
	DB	048H
	DB	01H
	DB	05H
	DB	0c8H
	DB	04H
	DB	039H
	DB	02H
	DB	05eH
	DB	040H
	DB	048H
	DB	040H
	DB	01H
	DB	07H
	DB	075H
	DB	0dH
	DB	0cH
	DB	0c0H
	DB	08H
	DB	0cH
	DB	010H
	DB	010H
	DB	0cH
	DB	078H
	DB	01fH
	DB	015H
	DB	0eH
	DB	06H
	DB	0cH
	DB	095H
	DB	08H
	DB	04H
	DB	0d5H
	DB	019H
	DB	07H
	DB	083H
	DB	038H
	DB	0bH
	DB	043H
	DB	05H
	DB	0eH
	DB	064H
	DB	05dH
	DB	0aH
	DB	0b8H
	DB	06bH
	DB	05H
	DB	04bH
	DB	01H
	DB	06H
	DB	071H
	DB	011H
	DB	0dH
	DB	08H
	DB	04bH
	DB	0dH
	DB	040H
	DB	01H
	DB	0cH
	DB	010H
	DB	0dH
	DB	07H
	DB	050H
	DB	033H
	DB	08H
	DB	0d8H
	DB	035H
	DB	04H
	DB	05bH
	DB	0eH
	DB	03aH
	DB	085H
	DB	01bH
	DB	040H
	DB	04fH
	DB	040H
	DB	01H
	DB	0bH
	DB	0ddH
	DB	03fH
	DB	06H
	DB	068H
	DB	029H
	DB	05H
	DB	05bH
	DB	045H
	DB	0dH
	DB	097H
	DB	017H
	DB	05H
	DB	0c3H
	DB	03H
	DB	08H
	DB	079H
	DB	02H
	DB	08H
	DB	085H
	DB	0cH
	DB	0bH
	DB	0eH
	DB	00H
	DB	08H
	DB	0b5H
	DB	01cH
	DB	07H
	DB	0deH
	DB	04H
	DB	09H
	DB	041H
	DB	01H
	DB	05H
	DB	02eH
	DB	01H
	DB	06H
	DB	0b0H
	DB	04H
	DB	0dH
	DB	048H
	DB	01dH
	DB	05H
	DB	083H
	DB	07H
	DB	08H
	DB	07eH
	DB	02H
	DB	0dH
	DB	085H
	DB	0cH
	DB	014H
	DB	080H
	DB	02H
	DB	08H
	DB	0aH
	DB	037H
	DB	05H
	DB	038H
	DB	01cH
	DB	08H
	DB	0b0H
	DB	011H
	DB	017H
	DB	0fcH
	DB	05eH
	DB	040H
	DB	06eH
	DB	040H
	DB	01H
	DB	05H
	DB	018H
	DB	01H
	DB	07H
	DB	056H
	DB	029H
	DB	05H
	DB	077H
	DB	03H
	DB	04H
	DB	00H
	DB	01H
	DB	04H
	DB	0e6H
	DB	04H
	DB	07H
	DB	0cdH
	DB	0fH
	DB	09H
	DB	0d0H
	DB	00H
	DB	0aH
	DB	08dH
	DB	0dH
	DB	06H
	DB	095H
	DB	03H
	DB	0aH
	DB	0c6H
	DB	0dH
	DB	0dH
	DB	0dbH
	DB	0eH
	DB	09H
	DB	0f5H
	DB	09H
	DB	08H
	DB	0c8H
	DB	07H
	DB	08H
	DB	040H
	DB	01H
	DB	0aH
	DB	0d0H
	DB	026H
	DB	08H
	DB	085H
	DB	01bH
	DB	0aH
	DB	05dH
	DB	00H
	DB	011H
	DB	03bH
	DB	01H
	DB	08H
	DB	0f8H
	DB	048H
	DB	0fH
	DB	053H
	DB	02eH
	DB	0bH
	DB	080H
	DB	07H
	DB	080H
	DB	05H
	DB	08H
	DB	090H
	DB	01H
	DB	040H
	DB	07aH
	DB	040H
	DB	01H
	DB	08H
	DB	060H
	DB	074H
	DB	0aH
	DB	053H
	DB	01cH
	DB	08H
	DB	033H
	DB	07H
	DB	080H
	DB	00H
	DB	04H
	DB	0efH
	DB	035H
	DB	080H
	DB	09H
	DB	0eH
	DB	045H
	DB	06H
	DB	0aH
	DB	05H
	DB	0fH
	DB	08H
	DB	0aH
	DB	06fH
	DB	08H
	DB	053H
	DB	078H
	DB	05H
	DB	0c8H
	DB	0eH
	DB	080H
	DB	08H
	DB	05H
	DB	0b8H
	DB	03H
	DB	081H
	DB	08H
	DB	08H
	DB	0bH
	DB	0e6H
	DB	03H
	DB	08H
	DB	084H
	DB	02H
	DB	081H
	DB	01H
	DB	01H
	DB	04H
	DB	09bH
	DB	0cH
	DB	07H
	DB	06aH
	DB	01aH
	DB	06H
	DB	076H
	DB	0cH
	DB	015H
	DB	078H
	DB	0cH
	DB	010H
	DB	0bH
	DB	05H
	DB	05H
	DB	08H
	DB	03cH
	DB	08H
	DB	0b6H
	DB	030H
	DB	05H
	DB	0eeH
	DB	02aH
	DB	04H
	DB	0b0H
	DB	01bH
	DB	08H
	DB	088H
	DB	04bH
	DB	021H
	DB	032H
	DB	05cH
	DB	040H
	DB	067H
	DB	080H
	DB	02H
	DB	08H
	DB	01dH
	DB	016H
	DB	08H
	DB	0c8H
	DB	03fH
	DB	07H
	DB	073H
	DB	03H
	DB	08H
	DB	0c0H
	DB	03H
	DB	0bH
	DB	0d0H
	DB	00H
	DB	0aH
	DB	0c3H
	DB	07eH
	DB	07H
	DB	083H
	DB	032H
	DB	04H
	DB	08fH
	DB	02H
	DB	080H
	DB	08H
	DB	07H
	DB	0daH
	DB	039H
	DB	07H
	DB	08cH
	DB	049H
	DB	0cH
	DB	05cH
	DB	06H
	DB	0fH
	DB	0faH
	DB	03fH
	DB	04H
	DB	0b5H
	DB	0eH
	DB	08H
	DB	0c8H
	DB	07H
	DB	05H
	DB	0d8H
	DB	048H
	DB	0bH
	DB	06dH
	DB	02H
	DB	0dH
	DB	073H
	DB	07H
	DB	0bH
	DB	01cH
	DB	01H
	DB	0aH
	DB	0d8H
	DB	033H
	DB	011H
	DB	0c0H
	DB	038H
	DB	0bH
	DB	0deH
	DB	073H
	DB	040H
	DB	07fH
	DB	040H
	DB	01H
	DB	07H
	DB	08dH
	DB	04H
	DB	07H
	DB	09dH
	DB	01dH
	DB	08H
	DB	059H
	DB	022H
	DB	0aH
	DB	010H
	DB	029H
	DB	08H
	DB	0d3H
	DB	00H
	DB	010H
	DB	093H
	DB	072H
	DB	08H
	DB	0b0H
	DB	045H
	DB	0bH
	DB	0c5H
	DB	03H
	DB	0dH
	DB	028H
	DB	0fH
	DB	0cH
	DB	07aH
	DB	042H
	DB	07H
	DB	060H
	DB	00H
	DB	0aH
	DB	018H
	DB	00H
	DB	0bH
	DB	070H
	DB	029H
	DB	011H
	DB	07bH
	DB	02H
	DB	09H
	DB	058H
	DB	01H
	DB	09H
	DB	0b0H
	DB	02bH
	DB	08H
	DB	0c0H
	DB	038H
	DB	0aH
	DB	0c8H
	DB	038H
	DB	06H
	DB	0f8H
	DB	01H
	DB	03aH
	DB	082H
	DB	065H
	DB	040H
	DB	050H
	DB	040H
	DB	01H
	DB	07H
	DB	092H
	DB	01dH
	DB	06H
	DB	0d0H
	DB	01H
	DB	04H
	DB	098H
	DB	03H
	DB	07H
	DB	048H
	DB	01bH
	DB	011H
	DB	00H
	DB	036H
	DB	0cH
	DB	073H
	DB	03fH
	DB	06H
	DB	08eH
	DB	029H
	DB	081H
	DB	08H
	DB	08H
	DB	0bH
	DB	040H
	DB	01H
	DB	09H
	DB	0deH
	DB	08H
	DB	0eH
	DB	01eH
	DB	023H
	DB	0aH
	DB	0dH
	DB	0fH
	DB	0aH
	DB	022H
	DB	019H
	DB	016H
	DB	076H
	DB	0cH
	DB	0cH
	DB	08aH
	DB	02H
	DB	0bH
	DB	090H
	DB	034H
	DB	09H
	DB	0d0H
	DB	03aH
	DB	07H
	DB	00H
	DB	02dH
	DB	08H
	DB	048H
	DB	04bH
	DB	040H
	DB	083H
	DB	040H
	DB	01H
	DB	081H
	DB	01H
	DB	01H
	DB	06H
	DB	056H
	DB	03H
	DB	08H
	DB	0d8H
	DB	0bH
	DB	05H
	DB	080H
	DB	07H
	DB	05H
	DB	0dbH
	DB	014H
	DB	09H
	DB	0a0H
	DB	04H
	DB	0dH
	DB	042H
	DB	01H
	DB	06H
	DB	048H
	DB	01aH
	DB	05H
	DB	02dH
	DB	01H
	DB	05H
	DB	015H
	DB	01H
	DB	0bH
	DB	050H
	DB	06H
	DB	0bH
	DB	096H
	DB	07H
	DB	0dH
	DB	095H
	DB	025H
	DB	05H
	DB	0fH
	DB	00H
	DB	08H
	DB	0b8H
	DB	012H
	DB	0bH
	DB	058H
	DB	00H
	DB	015H
	DB	03H
	DB	05H
	DB	0eH
	DB	0c0H
	DB	03H
	DB	0aH
	DB	065H
	DB	029H
	DB	0aH
	DB	070H
	DB	036H
	DB	06H
	DB	00H
	DB	022H
	DB	06H
	DB	0adH
	DB	0bH
	DB	040H
	DB	084H
	DB	040H
	DB	01H
	DB	06H
	DB	0e0H
	DB	00H
	DB	07H
	DB	0b5H
	DB	012H
	DB	0bH
	DB	070H
	DB	017H
	DB	04H
	DB	01eH
	DB	03H
	DB	0cH
	DB	086H
	DB	02H
	DB	09H
	DB	0d4H
	DB	07aH
	DB	08H
	DB	0a2H
	DB	03H
	DB	0cH
	DB	04dH
	DB	0cH
	DB	0bH
	DB	05dH
	DB	015H
	DB	016H
	DB	048H
	DB	04bH
	DB	08H
	DB	088H
	DB	020H
	DB	0bH
	DB	052H
	DB	00H
	DB	017H
	DB	040H
	DB	01H
	DB	0aH
	DB	07eH
	DB	0cH
	DB	0dH
	DB	086H
	DB	028H
	DB	06H
	DB	02dH
	DB	044H
	DB	09H
	DB	040H
	DB	01H
	DB	05H
	DB	095H
	DB	06H
	DB	040H
	DB	089H
	DB	040H
	DB	01H
	DB	08H
	DB	0a0H
	DB	04H
	DB	07H
	DB	048H
	DB	047H
	DB	08H
	DB	06eH
	DB	07H
	DB	05H
	DB	066H
	DB	00H
	DB	0bH
	DB	01bH
	DB	016H
	DB	06H
	DB	07cH
	DB	03H
	DB	0bH
	DB	05H
	DB	0fH
	DB	07H
	DB	026H
	DB	01H
	DB	011H
	DB	040H
	DB	01H
	DB	06H
	DB	092H
	DB	07H
	DB	0eH
	DB	0ccH
	DB	08H
	DB	014H
	DB	0b8H
	DB	03cH
	DB	017H
	DB	080H
	DB	02H
	DB	010H
	DB	03H
	DB	0fH
	DB	0eH
	DB	0a7H
	DB	0fH
	DB	0aH
	DB	093H
	DB	032H
	DB	040H
	DB	086H
	DB	0c0H
	DB	03H
	DB	0aH
	DB	0a2H
	DB	04H
	DB	09H
	DB	0c2H
	DB	0dH
	DB	09H
	DB	025H
	DB	06H
	DB	07H
	DB	025H
	DB	011H
	DB	07H
	DB	0f0H
	DB	08H
	DB	05H
	DB	038H
	DB	0dH
	DB	010H
	DB	0d0H
	DB	08H
	DB	08H
	DB	036H
	DB	01H
	DB	08H
	DB	0eH
	DB	00H
	DB	08H
	DB	051H
	DB	01H
	DB	08H
	DB	053H
	DB	00H
	DB	0cH
	DB	08eH
	DB	010H
	DB	0dH
	DB	0fbH
	DB	06H
	DB	010H
	DB	06dH
	DB	01fH
	DB	010H
	DB	098H
	DB	02H
	DB	0dH
	DB	07bH
	DB	02H
	DB	0dH
	DB	065H
	DB	03bH
	DB	09H
	DB	074H
	DB	03bH
	DB	040H
	DB	085H
	DB	040H
	DB	01H
	DB	0dH
	DB	01bH
	DB	07H
	DB	08H
	DB	028H
	DB	06H
	DB	05H
	DB	084H
	DB	07H
	DB	05H
	DB	069H
	DB	02H
	DB	04H
	DB	026H
	DB	020H
	DB	08H
	DB	078H
	DB	0dH
	DB	04H
	DB	01eH
	DB	01H
	DB	04H
	DB	01bH
	DB	05H
	DB	0aH
	DB	090H
	DB	07H
	DB	07H
	DB	05dH
	DB	032H
	DB	06H
	DB	078H
	DB	02H
	DB	09H
	DB	040H
	DB	01H
	DB	0aH
	DB	026H
	DB	01aH
	DB	0aH
	DB	0a5H
	DB	07dH
	DB	06H
	DB	03fH
	DB	01H
	DB	06H
	DB	043H
	DB	0aH
	DB	012H
	DB	0b6H
	DB	025H
	DB	012H
	DB	032H
	DB	09H
	DB	0cH
	DB	053H
	DB	02cH
	DB	0cH
	DB	086H
	DB	02H
	DB	0cH
	DB	068H
	DB	036H
	DB	040H
	DB	087H
	DB	040H
	DB	01H
	DB	08H
	DB	07bH
	DB	02H
	DB	05H
	DB	088H
	DB	02H
	DB	08H
	DB	053H
	DB	02H
	DB	09H
	DB	05eH
	DB	07dH
	DB	07H
	DB	026H
	DB	00H
	DB	06H
	DB	079H
	DB	00H
	DB	07H
	DB	045H
	DB	07H
	DB	04H
	DB	010H
	DB	00H
	DB	0aH
	DB	04dH
	DB	02H
	DB	09H
	DB	052H
	DB	01bH
	DB	08H
	DB	087H
	DB	020H
	DB	0cH
	DB	073H
	DB	06H
	DB	04H
	DB	0f8H
	DB	01fH
	DB	09H
	DB	0eaH
	DB	03H
	DB	0aH
	DB	099H
	DB	051H
	DB	07H
	DB	0c2H
	DB	00H
	DB	010H
	DB	040H
	DB	01H
	DB	0bH
	DB	0dbH
	DB	00H
	DB	08H
	DB	0b8H
	DB	0dH
	DB	07H
	DB	07dH
	DB	02H
	DB	06H
	DB	00H
	DB	0fH
	DB	08H
	DB	048H
	DB	06H
	DB	03dH
	DB	0bH
	DB	032H
	DB	040H
	DB	050H
	DB	0c0H
	DB	03H
	DB	05H
	DB	0d2H
	DB	00H
	DB	08H
	DB	080H
	DB	0cH
	DB	08H
	DB	0ceH
	DB	03H
	DB	09H
	DB	0e0H
	DB	014H
	DB	0bH
	DB	0fdH
	DB	04H
	DB	0aH
	DB	0c0H
	DB	012H
	DB	08H
	DB	0b6H
	DB	03H
	DB	05H
	DB	0f0H
	DB	012H
	DB	016H
	DB	0d5H
	DB	01fH
	DB	081H
	DB	00H
	DB	00H
	DB	04H
	DB	0bH
	DB	0eH
	DB	080H
	DB	01H
	DB	0eH
	DB	0a5H
	DB	058H
	DB	07H
	DB	0a9H
	DB	02H
	DB	080H
	DB	08H
	DB	0bH
	DB	0e0H
	DB	0cH
	DB	0fH
	DB	080H
	DB	02H
	DB	0eH
	DB	080H
	DB	01bH
	DB	06H
	DB	0dbH
	DB	01fH
	DB	08H
	DB	0fdH
	DB	02aH
	DB	08H
	DB	0c8H
	DB	08H
	DB	08H
	DB	015H
	DB	00H
	DB	040H
	DB	082H
	DB	040H
	DB	0bH
	DB	08H
	DB	018H
	DB	03cH
	DB	081H
	DB	04H
	DB	04H
	DB	04H
	DB	01dH
	DB	057H
	DB	0cH
	DB	090H
	DB	012H
	DB	06H
	DB	066H
	DB	00H
	DB	0eH
	DB	05aH
	DB	03H
	DB	0aH
	DB	058H
	DB	016H
	DB	0aH
	DB	0d5H
	DB	09H
	DB	08H
	DB	0caH
	DB	0dH
	DB	08H
	DB	0dbH
	DB	09H
	DB	0bH
	DB	0edH
	DB	07cH
	DB	09H
	DB	011H
	DB	00H
	DB	0aH
	DB	0f3H
	DB	01dH
	DB	0aH
	DB	0c0H
	DB	00H
	DB	0cH
	DB	06bH
	DB	011H
	DB	0fH
	DB	04aH
	DB	01H
	DB	06H
	DB	0deH
	DB	00H
	DB	0aH
	DB	086H
	DB	043H
	DB	09H
	DB	048H
	DB	02cH
	DB	0dH
	DB	0f0H
	DB	01fH
	DB	08H
	DB	0c9H
	DB	053H
	DB	030H
	DB	08bH
	DB	039H
	DB	040H
	DB	04fH
	DB	040H
	DB	01H
	DB	09H
	DB	0c0H
	DB	08H
	DB	08H
	DB	0edH
	DB	0aH
	DB	08H
	DB	050H
	DB	016H
	DB	05H
	DB	023H
	DB	0bH
	DB	09H
	DB	014H
	DB	020H
	DB	07H
	DB	0d0H
	DB	027H
	DB	08H
	DB	0b0H
	DB	02H
	DB	0dH
	DB	0edH
	DB	0eH
	DB	08H
	DB	074H
	DB	06H
	DB	08H
	DB	0e2H
	DB	03H
	DB	08H
	DB	06dH
	DB	016H
	DB	08H
	DB	0c8H
	DB	03H
	DB	0eH
	DB	010H
	DB	0eH
	DB	0fH
	DB	035H
	DB	01H
	DB	01bH
	DB	0bH
	DB	05H
	DB	0eH
	DB	03dH
	DB	06H
	DB	011H
	DB	042H
	DB	06H
	DB	04H
	DB	040H
	DB	01H
	DB	032H
	DB	01dH
	DB	06eH
	DB	040H
	DB	058H
	DB	040H
	DB	01H
	DB	08H
	DB	042H
	DB	015H
	DB	09H
	DB	08eH
	DB	0cH
	DB	05H
	DB	033H
	DB	037H
	DB	0aH
	DB	065H
	DB	017H
	DB	0bH
	DB	0c8H
	DB	013H
	DB	06H
	DB	074H
	DB	011H
	DB	08H
	DB	07eH
	DB	07H
	DB	08H
	DB	028H
	DB	01eH
	DB	0cH
	DB	027H
	DB	015H
	DB	08H
	DB	064H
	DB	016H
	DB	0bH
	DB	0c8H
	DB	012H
	DB	020H
	DB	020H
	DB	03fH
	DB	0eH
	DB	0b3H
	DB	015H
	DB	0bH
	DB	022H
	DB	017H
	DB	0bH
	DB	046H
	DB	01aH
	DB	010H
	DB	06dH
	DB	01dH
	DB	07H
	DB	0d8H
	DB	06cH
	DB	033H
	DB	010H
	DB	05fH
	DB	040H
	DB	052H
	DB	0c0H
	DB	08H
	DB	06H
	DB	03eH
	DB	047H
	DB	0dH
	DB	01dH
	DB	024H
	DB	080H
	DB	01H
	DB	05H
	DB	088H
	DB	07H
	DB	0eH
	DB	0d3H
	DB	02cH
	DB	09H
	DB	083H
	DB	00H
	DB	04H
	DB	01dH
	DB	01H
	DB	0dH
	DB	04aH
	DB	00H
	DB	07H
	DB	030H
	DB	01H
	DB	014H
	DB	06bH
	DB	01fH
	DB	07H
	DB	090H
	DB	06H
	DB	0eH
	DB	058H
	DB	06cH
	DB	07H
	DB	030H
	DB	00H
	DB	08H
	DB	018H
	DB	04H
	DB	09H
	DB	05bH
	DB	0aH
	DB	0cH
	DB	04dH
	DB	019H
	DB	0eH
	DB	0b5H
	DB	051H
	DB	09H
	DB	010H
	DB	0fH
	DB	08H
	DB	0fbH
	DB	033H
	DB	08H
	DB	0c2H
	DB	08H
	DB	024H
	DB	048H
	DB	077H
	DB	0cH
	DB	03eH
	DB	024H
	DB	040H
	DB	050H
	DB	0c0H
	DB	08H
	DB	07H
	DB	020H
	DB	0cH
	DB	05H
	DB	0d3H
	DB	036H
	DB	08H
	DB	04bH
	DB	034H
	DB	06H
	DB	035H
	DB	02H
	DB	06H
	DB	04cH
	DB	010H
	DB	013H
	DB	0fbH
	DB	012H
	DB	0aH
	DB	068H
	DB	07H
	DB	0bH
	DB	0c6H
	DB	07H
	DB	0eH
	DB	084H
	DB	011H
	DB	09H
	DB	04eH
	DB	05H
	DB	09H
	DB	03bH
	DB	014H
	DB	0fH
	DB	069H
	DB	0bH
	DB	08H
	DB	037H
	DB	0fH
	DB	05H
	DB	03dH
	DB	00H
	DB	04H
	DB	0bH
	DB	00H
	DB	0aH
	DB	020H
	DB	09H
	DB	06H
	DB	08dH
	DB	038H
	DB	08H
	DB	038H
	DB	059H
	DB	08H
	DB	040H
	DB	04cH
	DB	0fH
	DB	0aaH
	DB	070H
	DB	09H
	DB	04bH
	DB	029H
	DB	023H
	DB	03eH
	DB	01H
	DB	0dH
	DB	07eH
	DB	025H
	DB	040H
	DB	04cH
	DB	040H
	DB	01H
	DB	06H
	DB	05bH
	DB	047H
	DB	08H
	DB	015H
	DB	08H
	DB	06H
	DB	0a0H
	DB	00H
	DB	0fH
	DB	065H
	DB	01eH
	DB	0aH
	DB	07dH
	DB	023H
	DB	07H
	DB	09bH
	DB	030H
	DB	0cH
	DB	029H
	DB	07H
	DB	08H
	DB	00H
	DB	0fH
	DB	016H
	DB	0dbH
	DB	01cH
	DB	01aH
	DB	0f8H
	DB	017H
	DB	0cH
	DB	052H
	DB	01eH
	DB	08H
	DB	08bH
	DB	06H
	DB	08H
	DB	095H
	DB	01bH
	DB	07H
	DB	09dH
	DB	019H
	DB	08H
	DB	038H
	DB	05eH
	DB	05H
	DB	068H
	DB	02eH
	DB	0bH
	DB	0d8H
	DB	071H
	DB	08H
	DB	0abH
	DB	00H
	DB	09H
	DB	042H
	DB	0bH
	DB	022H
	DB	080H
	DB	02H
	DB	010H
	DB	088H
	DB	028H
	DB	040H
	DB	04eH
	DB	00H
	DB	014H
	DB	07H
	DB	03H
	DB	0aH
	DB	09H
	DB	050H
	DB	03dH
	DB	0dH
	DB	0c0H
	DB	027H
	DB	0aH
	DB	013H
	DB	0fH
	DB	06H
	DB	0e8H
	DB	027H
	DB	08H
	DB	01bH
	DB	00H
	DB	0aH
	DB	0f0H
	DB	04H
	DB	0dH
	DB	03eH
	DB	01H
	DB	0bH
	DB	092H
	DB	016H
	DB	020H
	DB	040H
	DB	01H
	DB	0dH
	DB	0eeH
	DB	012H
	DB	06H
	DB	038H
	DB	018H
	DB	010H
	DB	0b3H
	DB	044H
	DB	0dH
	DB	0c0H
	DB	042H
	DB	0bH
	DB	081H
	DB	02H
	DB	08H
	DB	090H
	DB	02H
	DB	028H
	DB	080H
	DB	07H
	DB	0dH
	DB	045H
	DB	012H
	DB	040H
	DB	04bH
	DB	040H
	DB	01H
	DB	0bH
	DB	0d8H
	DB	031H
	DB	08H
	DB	0dbH
	DB	03bH
	DB	07H
	DB	043H
	DB	020H
	DB	09H
	DB	022H
	DB	01H
	DB	08H
	DB	063H
	DB	03H
	DB	06H
	DB	0e3H
	DB	018H
	DB	04H
	DB	088H
	DB	042H
	DB	0bH
	DB	0bbH
	DB	0dH
	DB	015H
	DB	012H
	DB	023H
	DB	05H
	DB	090H
	DB	02H
	DB	016H
	DB	043H
	DB	024H
	DB	016H
	DB	095H
	DB	02H
	DB	07H
	DB	0edH
	DB	08H
	DB	0eH
	DB	08bH
	DB	043H
	DB	0aH
	DB	0e5H
	DB	048H
	DB	0dH
	DB	048H
	DB	06H
	DB	09H
	DB	030H
	DB	044H
	DB	030H
	DB	040H
	DB	01H
	DB	040H
	DB	04fH
	DB	0c0H
	DB	021H
	DB	0bH
	DB	040H
	DB	01H
	DB	09H
	DB	095H
	DB	035H
	DB	08H
	DB	068H
	DB	04H
	DB	0cH
	DB	00H
	DB	0fH
	DB	05H
	DB	07dH
	DB	02fH
	DB	0aH
	DB	053H
	DB	02H
	DB	012H
	DB	07dH
	DB	03H
	DB	012H
	DB	065H
	DB	025H
	DB	06H
	DB	02dH
	DB	00H
	DB	0fH
	DB	0d0H
	DB	012H
	DB	09H
	DB	060H
	DB	01H
	DB	09H
	DB	0faH
	DB	017H
	DB	05H
	DB	0c3H
	DB	026H
	DB	05H
	DB	055H
	DB	06H
	DB	0fH
	DB	034H
	DB	02dH
	DB	0eH
	DB	04bH
	DB	042H
	DB	0dH
	DB	02H
	DB	064H
	DB	0bH
	DB	0fdH
	DB	047H
	DB	02fH
	DB	08bH
	DB	061H
	DB	040H
	DB	054H
	DB	0c0H
	DB	03H
	DB	07H
	DB	087H
	DB	03H
	DB	08H
	DB	050H
	DB	058H
	DB	08H
	DB	01bH
	DB	03H
	DB	08H
	DB	088H
	DB	07H
	DB	06H
	DB	0c0H
	DB	058H
	DB	08H
	DB	02eH
	DB	01H
	DB	0fH
	DB	038H
	DB	02H
	DB	019H
	DB	095H
	DB	025H
	DB	0bH
	DB	038H
	DB	06H
	DB	0aH
	DB	0d8H
	DB	04H
	DB	0cH
	DB	032H
	DB	019H
	DB	080H
	DB	08H
	DB	08H
	DB	0dH
	DB	02H
	DB	08H
	DB	030H
	DB	05bH
	DB	0bH
	DB	0cbH
	DB	018H
	DB	0bH
	DB	073H
	DB	07H
	DB	0bH
	DB	0c0H
	DB	044H
	DB	0cH
	DB	088H
	DB	052H
	DB	08H
	DB	050H
	DB	014H
	DB	06H
	DB	02dH
	DB	03H
	DB	033H
	DB	090H
	DB	075H
	DB	035H
	DB	00H
	DB	041H
	DB	01eH
	DB	040H
	DB	06H
	DB	08H
	DB	03dH
	DB	010H
	DB	0fH
	DB	07bH
	DB	03fH
	DB	06H
	DB	0faH
	DB	04H
	DB	0aH
	DB	0a6H
	DB	01cH
	DB	013H
	DB	00H
	DB	028H
	DB	0bH
	DB	0bdH
	DB	017H
	DB	0dH
	DB	05dH
	DB	07H
	DB	05H
	DB	048H
	DB	0fH
	DB	0eH
	DB	0edH
	DB	01H
	DB	07H
	DB	07aH
	DB	07fH
	DB	08H
	DB	013H
	DB	041H
	DB	06H
	DB	068H
	DB	0cH
	DB	010H
	DB	0f0H
	DB	035H
	DB	013H
	DB	0d5H
	DB	03dH
	DB	010H
	DB	040H
	DB	01H
	DB	035H
	DB	080H
	DB	02H
	DB	03eH
	DB	00H
	DB	05aH
	DB	024H
	DB	0c2H
	DB	03H
	DB	08H
	DB	0c8H
	DB	01cH
	DB	08H
	DB	01cH
	DB	037H
	DB	09H
	DB	063H
	DB	00H
	DB	05H
	DB	06bH
	DB	026H
	DB	07H
	DB	0caH
	DB	03H
	DB	07H
	DB	060H
	DB	01H
	DB	0aH
	DB	05bH
	DB	020H
	DB	0dH
	DB	018H
	DB	014H
	DB	06H
	DB	030H
	DB	014H
	DB	016H
	DB	0fcH
	DB	03eH
	DB	0cH
	DB	0dH
	DB	018H
	DB	011H
	DB	083H
	DB	00H
	DB	04H
	DB	060H
	DB	00H
	DB	08H
	DB	0edH
	DB	02aH
	DB	0eH
	DB	062H
	DB	063H
	DB	0bH
	DB	09dH
	DB	064H
	DB	012H
	DB	06bH
	DB	079H
	DB	040H
	DB	081H
	DB	0c0H
	DB	03H
	DB	07H
	DB	048H
	DB	03H
	DB	09H
	DB	0abH
	DB	013H
	DB	08H
	DB	0e8H
	DB	01fH
	DB	05H
	DB	0d8H
	DB	021H
	DB	07H
	DB	083H
	DB	0eH
	DB	08H
	DB	040H
	DB	01H
	DB	04H
	DB	033H
	DB	01H
	DB	0cH
	DB	03H
	DB	03aH
	DB	011H
	DB	010H
	DB	015H
	DB	0bH
	DB	060H
	DB	016H
	DB	0cH
	DB	023H
	DB	01H
	DB	09H
	DB	07dH
	DB	0cH
	DB	05H
	DB	0f3H
	DB	019H
	DB	0aH
	DB	063H
	DB	057H
	DB	06H
	DB	0d3H
	DB	01cH
	DB	05H
	DB	0e5H
	DB	09H
	DB	06H
	DB	0f4H
	DB	012H
	DB	015H
	DB	0abH
	DB	064H
	DB	0dH
	DB	07bH
	DB	03cH
	DB	011H
	DB	01H
	DB	0aH
	DB	02fH
	DB	03cH
	DB	02eH
	DB	06H
	DB	0d8H
	DB	014H
	DB	040H
	DB	04fH
	DB	040H
	DB	01aH
	DB	04H
	DB	0d8H
	DB	00H
	DB	07H
	DB	0e8H
	DB	05H
	DB	05H
	DB	040H
	DB	01H
	DB	06H
	DB	0a3H
	DB	044H
	DB	06H
	DB	0e0H
	DB	03bH
	DB	08H
	DB	0fdH
	DB	036H
	DB	0aH
	DB	063H
	DB	060H
	DB	0aH
	DB	0c8H
	DB	017H
	DB	0eH
	DB	0fbH
	DB	031H
	DB	08H
	DB	083H
	DB	06H
	DB	06H
	DB	090H
	DB	011H
	DB	0cH
	DB	078H
	DB	0cH
	DB	0bH
	DB	0f8H
	DB	027H
	DB	08H
	DB	0fbH
	DB	012H
	DB	0bH
	DB	0d5H
	DB	017H
	DB	0bH
	DB	0c2H
	DB	08H
	DB	010H
	DB	0a8H
	DB	08H
	DB	013H
	DB	01dH
	DB	044H
	DB	03cH
	DB	040H
	DB	01H
	DB	0eH
	DB	0c6H
	DB	03H
	DB	040H
	DB	04bH
	DB	040H
	DB	01H
	DB	07H
	DB	018H
	DB	015H
	DB	09H
	DB	040H
	DB	01H
	DB	0fH
	DB	0a0H
	DB	052H
	DB	04H
	DB	04dH
	DB	06H
	DB	0aH
	DB	028H
	DB	010H
	DB	06H
	DB	050H
	DB	02H
	DB	0cH
	DB	098H
	DB	02fH
	DB	08H
	DB	07dH
	DB	0cH
	DB	06H
	DB	06bH
	DB	06H
	DB	06H
	DB	047H
	DB	01H
	DB	0cH
	DB	098H
	DB	020H
	DB	0eH
	DB	0b3H
	DB	08H
	DB	0bH
	DB	035H
	DB	01H
	DB	0bH
	DB	0adH
	DB	020H
	DB	08H
	DB	0b8H
	DB	025H
	DB	018H
	DB	07dH
	DB	02H
	DB	0aH
	DB	048H
	DB	04bH
	DB	0eH
	DB	040H
	DB	049H
	DB	040H
	DB	087H
	DB	040H
	DB	01H
	DB	08H
	DB	0d6H
	DB	013H
	DB	06H
	DB	01bH
	DB	03eH
	DB	010H
	DB	0e0H
	DB	04eH
	DB	0bH
	DB	0d4H
	DB	0eH
	DB	06H
	DB	0fcH
	DB	04H
	DB	0cH
	DB	06bH
	DB	01bH
	DB	0eH
	DB	0adH
	DB	012H
	DB	08H
	DB	02dH
	DB	0aH
	DB	0dH
	DB	077H
	DB	034H
	DB	08H
	DB	018H
	DB	06H
	DB	08H
	DB	08H
	DB	041H
	DB	0dH
	DB	088H
	DB	02fH
	DB	010H
	DB	0c0H
	DB	042H
	DB	012H
	DB	0e4H
	DB	059H
	DB	09H
	DB	0d5H
	DB	06cH
	DB	0dH
	DB	0f8H
	DB	051H
	DB	08H
	DB	0b0H
	DB	023H
	DB	040H
	DB	066H
	DB	0c0H
	DB	05dH
	DB	020H
	DB	09fH
	DB	057H
	DB	08H
	DB	058H
	DB	021H
	DB	015H
	DB	086H
	DB	07fH
	DB	01bH
	DB	02bH
	DB	06bH
	DB	0cH
	DB	0f5H
	DB	017H
	DB	08H
	DB	0c0H
	DB	026H
	DB	09H
	DB	09eH
	DB	00H
	DB	08H
	DB	048H
	DB	019H
	DB	08H
	DB	0b8H
	DB	0aH
	DB	0aH
	DB	0d6H
	DB	057H
	DB	019H
	DB	0c0H
	DB	04eH
	DB	0fH
	DB	0faH
	DB	02H
	DB	015H
	DB	0b2H
	DB	058H
	DB	09H
	DB	043H
	DB	044H
	DB	012H
	DB	08H
	DB	02dH
	DB	028H
	DB	0bdH
	DB	035H
	DB	040H
	DB	051H
	DB	040H
	DB	01H
	DB	07H
	DB	058H
	DB	016H
	DB	0bH
	DB	0bdH
	DB	00H
	DB	010H
	DB	040H
	DB	01H
	DB	013H
	DB	0c0H
	DB	08H
	DB	07H
	DB	03H
	DB	010H
	DB	09H
	DB	014H
	DB	03dH
	DB	0aH
	DB	068H
	DB	02H
	DB	09H
	DB	04H
	DB	09H
	DB	014H
	DB	0b0H
	DB	056H
	DB	08H
	DB	0ebH
	DB	034H
	DB	011H
	DB	058H
	DB	03eH
	DB	0aH
	DB	098H
	DB	08H
	DB	0aH
	DB	094H
	DB	055H
	DB	09H
	DB	038H
	DB	024H
	DB	0bH
	DB	0f0H
	DB	03dH
	DB	0aH
	DB	068H
	DB	06fH
	DB	02dH
	DB	0c2H
	DB	021H
	DB	040H
	DB	05cH
	DB	080H
	DB	02H
	DB	0aH
	DB	098H
	DB	017H
	DB	0eH
	DB	01bH
	DB	041H
	DB	0cH
	DB	052H
	DB	02eH
	DB	0eH
	DB	09bH
	DB	012H
	DB	0aH
	DB	07fH
	DB	025H
	DB	0eH
	DB	0b0H
	DB	049H
	DB	0dH
	DB	0b6H
	DB	0dH
	DB	017H
	DB	03fH
	DB	01H
	DB	09H
	DB	040H
	DB	01H
	DB	0eH
	DB	0d8H
	DB	036H
	DB	0aH
	DB	084H
	DB	069H
	DB	0dH
	DB	030H
	DB	01aH
	DB	08H
	DB	02bH
	DB	05dH
	DB	0cH
	DB	07eH
	DB	0cH
	DB	02fH
	DB	040H
	DB	01H
	DB	03dH
	DB	040H
	DB	06aH
	DB	03bH
	DB	040H
	DB	01H
	DB	010H
	DB	04dH
	DB	0bH
	DB	0dH
	DB	01bH
	DB	05fH
	DB	09H
	DB	015H
	DB	00H
	DB	0aH
	DB	015H
	DB	06H
	DB	0eH
	DB	03bH
	DB	05fH
	DB	08H
	DB	0ddH
	DB	030H
	DB	010H
	DB	095H
	DB	03H
	DB	018H
	DB	0d8H
	DB	053H
	DB	0dH
	DB	080H
	DB	04bH
	DB	0eH
	DB	0c0H
	DB	05dH
	DB	08H
	DB	0a8H
	DB	041H
	DB	0aH
	DB	013H
	DB	00H
	DB	05H
	DB	070H
	DB	06H
	DB	029H
	DB	0f6H
	DB	02cH
	DB	040H
	DB	05fH
	DB	040H
	DB	01H
	DB	05H
	DB	016H
	DB	0cH
	DB	08H
	DB	031H
	DB	02H
	DB	013H
	DB	02H
	DB	05H
	DB	0dH
	DB	022H
	DB	05aH
	DB	08H
	DB	0e6H
	DB	05fH
	DB	09H
	DB	048H
	DB	038H
	DB	013H
	DB	048H
	DB	047H
	DB	0aH
	DB	01eH
	DB	05H
	DB	012H
	DB	0d5H
	DB	04H
	DB	019H
	DB	0f9H
	DB	070H
	DB	0bH
	DB	042H
	DB	04aH
	DB	07H
	DB	00H
	DB	05fH
	DB	09H
	DB	06H
	DB	03H
	DB	08H
	DB	0c5H
	DB	01cH
	DB	010H
	DB	0fdH
	DB	051H
	DB	0aH
	DB	0f8H
	DB	039H
	DB	040H
	DB	07aH
	DB	080H
	DB	0cH
	DB	0cH
	DB	0e0H
	DB	04eH
	DB	0aH
	DB	060H
	DB	044H
	DB	012H
	DB	040H
	DB	01H
	DB	010H
	DB	034H
	DB	055H
	DB	0cH
	DB	02eH
	DB	01eH
	DB	07H
	DB	0adH
	DB	012H
	DB	09H
	DB	01cH
	DB	00H
	DB	0dH
	DB	0aeH
	DB	08H
	DB	015H
	DB	07bH
	DB	02H
	DB	016H
	DB	020H
	DB	06fH
	DB	0dH
	DB	010H
	DB	058H
	DB	0fH
	DB	097H
	DB	02H
	DB	010H
	DB	0d6H
	DB	01H
	DB	06H
	DB	0feH
	DB	0eH
	DB	020H
	DB	040H
	DB	01H
	DB	0aH
	DB	098H
	DB	03cH
	DB	040H
	DB	05cH
	DB	040H
	DB	01H
	DB	07H
	DB	080H
	DB	06dH
	DB	08H
	DB	042H
	DB	01H
	DB	01dH
	DB	040H
	DB	01H
	DB	06H
	DB	0c3H
	DB	014H
	DB	0bH
	DB	0dbH
	DB	03H
	DB	08H
	DB	070H
	DB	034H
	DB	06H
	DB	0dbH
	DB	04dH
	DB	09H
	DB	01cH
	DB	00H
	DB	010H
	DB	040H
	DB	01H
	DB	0cH
	DB	02bH
	DB	045H
	DB	017H
	DB	01aH
	DB	051H
	DB	0eH
	DB	050H
	DB	059H
	DB	012H
	DB	03aH
	DB	0bH
	DB	0bH
	DB	070H
	DB	040H
	DB	02eH
	DB	040H
	DB	01H
	DB	012H
	DB	045H
	DB	03bH
	DB	040H
	DB	050H
	DB	080H
	DB	02H
	DB	08H
	DB	00H
	DB	069H
	DB	08H
	DB	05bH
	DB	0dH
	DB	019H
	DB	07bH
	DB	02H
	DB	015H
	DB	01aH
	DB	00H
	DB	0aH
	DB	0c8H
	DB	02fH
	DB	010H
	DB	0c4H
	DB	03H
	DB	0aH
	DB	093H
	DB	076H
	DB	0cH
	DB	0d9H
	DB	052H
	DB	017H
	DB	018H
	DB	04cH
	DB	015H
	DB	018H
	DB	053H
	DB	015H
	DB	0e5H
	DB	033H
	DB	07H
	DB	025H
	DB	05H
	DB	08H
	DB	02eH
	DB	01dH
	DB	01fH
	DB	040H
	DB	01H
	DB	0fH
	DB	09H
	DB	030H
	DB	040H
	DB	05cH
	DB	040H
	DB	01H
	DB	08H
	DB	0ddH
	DB	032H
	DB	018H
	DB	03eH
	DB	01H
	DB	01aH
	DB	040H
	DB	01H
	DB	011H
	DB	019H
	DB	00H
	DB	0aH
	DB	0c2H
	DB	03H
	DB	011H
	DB	0bfH
	DB	03H
	DB	01aH
	DB	08dH
	DB	061H
	DB	0dH
	DB	065H
	DB	065H
	DB	0bH
	DB	0ddH
	DB	062H
	DB	016H
	DB	040H
	DB	01H
	DB	05H
	DB	0bH
	DB	073H
	DB	02dH
	DB	078H
	DB	016H
	DB	040H
	DB	065H
	DB	040H
	DB	01H
	DB	014H
	DB	06eH
	DB	060H
	DB	0dH
	DB	043H
	DB	03H
	DB	015H
	DB	046H
	DB	01H
	DB	0aH
	DB	0d3H
	DB	063H
	DB	0aH
	DB	09aH
	DB	05bH
	DB	09H
	DB	0d0H
	DB	07H
	DB	0bH
	DB	04dH
	DB	025H
	DB	025H
	DB	040H
	DB	01H
	DB	0bH
	DB	0e5H
	DB	04dH
	DB	01bH
	DB	080H
	DB	02H
	DB	022H
	DB	040H
	DB	01H
	DB	0bH
	DB	048H
	DB	017H
	DB	040H
	DB	067H
	DB	040H
	DB	01H
	DB	07H
	DB	013H
	DB	016H
	DB	01cH
	DB	042H
	DB	01H
	DB	018H
	DB	088H
	DB	02H
	DB	0eH
	DB	0ddH
	DB	0fH
	DB	0aH
	DB	060H
	DB	04bH
	DB	08H
	DB	0e8H
	DB	04dH
	DB	0bH
	DB	015H
	DB	054H
	DB	010H
	DB	058H
	DB	039H
	DB	0dH
	DB	040H
	DB	01H
	DB	0eH
	DB	063H
	DB	00H
	DB	0bH
	DB	03H
	DB	05H
	DB	0cH
	DB	07dH
	DB	05H
	DB	08H
	DB	0c0H
	DB	03H
	DB	016H
	DB	0c8H
	DB	03aH
	DB	0eH
	DB	030H
	DB	01aH
	DB	040H
	DB	062H
	DB	080H
	DB	07H
	DB	0aH
	DB	0d8H
	DB	027H
	DB	0cH
	DB	08H
	DB	051H
	DB	01cH
	DB	041H
	DB	01H
	DB	01bH
	DB	060H
	DB	06H
	DB	06H
	DB	028H
	DB	00H
	DB	07H
	DB	02bH
	DB	05aH
	DB	024H
	DB	025H
	DB	05fH
	DB	0aH
	DB	043H
	DB	036H
	DB	0aH
	DB	065H
	DB	00H
	DB	0eH
	DB	0f3H
	DB	06fH
	DB	0aH
	DB	0a0H
	DB	05aH
	DB	0cH
	DB	083H
	DB	020H
	DB	09H
	DB	012H
	DB	03dH
	DB	021H
	DB	0f0H
	DB	018H
	DB	010H
	DB	040H
	DB	01H
	DB	081H
	DB	09H
	DB	09H
	DB	04H
	DB	0c3H
	DB	034H
	DB	040H
	DB	053H
	DB	0c3H
	DB	08H
	DB	09H
	DB	043H
	DB	01H
	DB	01bH
	DB	01aH
	DB	01H
	DB	01dH
	DB	03cH
	DB	01H
	DB	0bH
	DB	040H
	DB	01H
	DB	05H
	DB	0eeH
	DB	058H
	DB	012H
	DB	011H
	DB	059H
	DB	017H
	DB	0e4H
	DB	04dH
	DB	0bH
	DB	0a9H
	DB	08H
	DB	0bH
	DB	04bH
	DB	06aH
	DB	012H
	DB	0b5H
	DB	012H
	DB	0aH
	DB	090H
	DB	07H
	DB	01dH
	DB	0beH
	DB	017H
	DB	01eH
	DB	040H
	DB	01H
	DB	0aH
	DB	082H
	DB	03dH
	DB	040H
	DB	04cH
	DB	040H
	DB	01H
	DB	0aH
	DB	086H
	DB	0cH
	DB	01dH
	DB	040H
	DB	01H
	DB	019H
	DB	038H
	DB	01H
	DB	0aH
	DB	0b0H
	DB	06bH
	DB	0dH
	DB	0eeH
	DB	019H
	DB	01eH
	DB	042H
	DB	01H
	DB	0cH
	DB	025H
	DB	01aH
	DB	07H
	DB	05dH
	DB	0cH
	DB	08H
	DB	090H
	DB	033H
	DB	0aH
	DB	0aH
	DB	078H
	DB	06H
	DB	043H
	DB	0bH
	DB	010H
	DB	065H
	DB	059H
	DB	016H
	DB	076H
	DB	02H
	DB	01eH
	DB	0baH
	DB	07bH
	DB	0cH
	DB	040H
	DB	01H
	DB	0eH
	DB	0f2H
	DB	047H
	DB	040H
	DB	049H
	DB	048H
	DB	015H
	DB	022H
	DB	05cH
	DB	02H
	DB	017H
	DB	043H
	DB	01H
	DB	0dH
	DB	00H
	DB	07eH
	DB	0fH
	DB	07bH
	DB	017H
	DB	021H
	DB	082H
	DB	02H
	DB	015H
	DB	08aH
	DB	01H
	DB	015H
	DB	034H
	DB	04H
	DB	09H
	DB	0adH
	DB	01eH
	DB	01cH
	DB	070H
	DB	07H
	DB	024H
	DB	040H
	DB	01H
	DB	040H
	DB	042H
	DB	083H
	DB	02H
	DB	0bH
	DB	05H
	DB	04H
	DB	08H
	DB	038H
	DB	016H
	DB	05H
	DB	0c0H
	DB	03H
	DB	01eH
	DB	03eH
	DB	01H
	DB	01fH
	DB	0c2H
	DB	03H
	DB	012H
	DB	064H
	DB	078H
	DB	023H
	DB	0c2H
	DB	03H
	DB	011H
	DB	08aH
	DB	01H
	DB	0dH
	DB	090H
	DB	069H
	DB	0eH
	DB	062H
	DB	01H
	DB	08H
	DB	0a8H
	DB	01H
	DB	017H
	DB	02H
	DB	041H
	DB	01bH
	DB	038H
	DB	01H
	DB	012H
	DB	0ddH
	DB	047H
	DB	040H
	DB	040H
	DB	07eH
	DB	020H
	DB	0cH
	DB	0c5H
	DB	022H
	DB	0aH
	DB	05bH
	DB	011H
	DB	023H
	DB	080H
	DB	02H
	DB	01bH
	DB	048H
	DB	01H
	DB	010H
	DB	041H
	DB	016H
	DB	024H
	DB	00H
	DB	05H
	DB	0bH
	DB	0b2H
	DB	015H
	DB	09H
	DB	03dH
	DB	0aH
	DB	0cH
	DB	0b8H
	DB	074H
	DB	010H
	DB	0a0H
	DB	02H
	DB	06H
	DB	05bH
	DB	02dH
	DB	06H
	DB	040H
	DB	01H
	DB	0cH
	DB	040H
	DB	01fH
	DB	023H
	DB	03dH
	DB	01H
	DB	013H
	DB	0f5H
	DB	08H
	DB	0cH
	DB	0a9H
	DB	019H
	DB	014H
	DB	060H
	DB	011H
	DB	016H
	DB	06bH
	DB	01H
	DB	0dH
	DB	0c3H
	DB	03dH
	DB	08H
	DB	040H
	DB	01H
	DB	0dH
	DB	0eeH
	DB	076H
	DB	01fH
	DB	0c5H
	DB	08H
	DB	024H
	DB	040H
	DB	01H
	DB	018H
	DB	018H
	DB	068H
	DB	016H
	DB	07bH
	DB	0cH
	DB	08H
	DB	023H
	DB	050H
	DB	0cH
	DB	040H
	DB	01H
	DB	011H
	DB	0fbH
	DB	09H
	DB	08H
	DB	082H
	DB	0fH
	DB	07H
	DB	040H
	DB	01H
	DB	0bH
	DB	08bH
	DB	07fH
	DB	026H
	DB	03eH
	DB	01H
	DB	037H
	DB	0faH
	DB	030H
	DB	017H
	DB	042H
	DB	01fH
	DB	01aH
	DB	040H
	DB	01H
	DB	020H
	DB	0a0H
	DB	03H
	DB	01aH
	DB	048H
	DB	0bH
	DB	02bH
	DB	0adH
	DB	070H
	DB	012H
	DB	0fbH
	DB	09H
	DB	08H
	DB	0b0H
	DB	03dH
	DB	0bH
	DB	0e8H
	DB	022H
	DB	011H
	DB	07bH
	DB	025H
	DB	05H
	DB	062H
	DB	0bH
	DB	08H
	DB	080H
	DB	02H
	DB	017H
	DB	030H
	DB	054H
	DB	040H
	DB	063H
	DB	040H
	DB	01H
	DB	0aH
	DB	050H
	DB	01bH
	DB	04H
	DB	07fH
	DB	00H
	DB	08H
	DB	05H
	DB	025H
	DB	09H
	DB	015H
	DB	03cH
	DB	020H
	DB	05H
	DB	0aH
	DB	0eH
	DB	0deH
	DB	0fH
	DB	0eH
	DB	0c1H
	DB	061H
	DB	035H
	DB	040H
	DB	01H
	DB	06H
	DB	057H
	DB	02aH
	DB	0aH
	DB	0c6H
	DB	06H
	DB	0aH
	DB	020H
	DB	00H
	DB	010H
	DB	0a0H
	DB	011H
	DB	06H
	DB	0cbH
	DB	035H
	DB	0eH
	DB	00H
	DB	05H
	DB	040H
	DB	075H
	DB	040H
	DB	01H
	DB	07H
	DB	03H
	DB	05H
	DB	04H
	DB	07fH
	DB	00H
	DB	07H
	DB	055H
	DB	020H
	DB	01eH
	DB	040H
	DB	01H
	DB	0fH
	DB	0caH
	DB	0dH
	DB	011H
	DB	08dH
	DB	02H
	DB	02bH
	DB	0f8H
	DB	04H
	DB	0cH
	DB	0baH
	DB	012H
	DB	06H
	DB	013H
	DB	06H
	DB	06H
	DB	095H
	DB	0dH
	DB	0aH
	DB	07eH
	DB	015H
	DB	0dH
	DB	0c5H
	DB	030H
	DB	011H
	DB	0c3H
	DB	03H
	DB	010H
	DB	08H
	DB	01H
	DB	040H
	DB	06dH
	DB	040H
	DB	01H
	DB	0aH
	DB	0a0H
	DB	010H
	DB	08H
	DB	00H
	DB	03H
	DB	06H
	DB	0fcH
	DB	032H
	DB	0bH
	DB	076H
	DB	03aH
	DB	01cH
	DB	03eH
	DB	01H
	DB	0bH
	DB	05H
	DB	025H
	DB	0bH
	DB	083H
	DB	042H
	DB	032H
	DB	080H
	DB	02H
	DB	0bH
	DB	0c8H
	DB	079H
	DB	06H
	DB	080H
	DB	02H
	DB	0bH
	DB	08H
	DB	030H
	DB	05H
	DB	088H
	DB	00H
	DB	07H
	DB	09eH
	DB	07H
	DB	013H
	DB	03H
	DB	05H
	DB	05H
	DB	083H
	DB	016H
	DB	0cH
	DB	083H
	DB	0cH
	DB	040H
	DB	05fH
	DB	040H
	DB	01H
	DB	01fH
	DB	0deH
	DB	025H
	DB	07H
	DB	0c0H
	DB	03H
	DB	081H
	DB	08H
	DB	08H
	DB	05H
	DB	046H
	DB	01bH
	DB	0cH
	DB	04cH
	DB	01cH
	DB	01aH
	DB	03H
	DB	0fH
	DB	016H
	DB	040H
	DB	01H
	DB	02cH
	DB	082H
	DB	02H
	DB	09H
	DB	08bH
	DB	01H
	DB	08H
	DB	055H
	DB	02H
	DB	010H
	DB	0c0H
	DB	039H
	DB	07H
	DB	068H
	DB	072H
	DB	013H
	DB	0c5H
	DB	01H
	DB	05H
	DB	048H
	DB	014H
	DB	08H
	DB	0f8H
	DB	020H
	DB	040H
	DB	063H
	DB	040H
	DB	06H
	DB	016H
	DB	090H
	DB	02H
	DB	0aH
	DB	0bH
	DB	00H
	DB	09H
	DB	0c0H
	DB	08H
	DB	010H
	DB	0a8H
	DB	08H
	DB	01dH
	DB	00H
	DB	05H
	DB	015H
	DB	066H
	DB	01cH
	DB	02aH
	DB	09cH
	DB	06bH
	DB	0cH
	DB	0f8H
	DB	018H
	DB	0fH
	DB	040H
	DB	01H
	DB	0bH
	DB	0dbH
	DB	04cH
	DB	0dH
	DB	0ccH
	DB	01H
	DB	08H
	DB	034H
	DB	00H
	DB	08H
	DB	040H
	DB	01H
	DB	033H
	DB	0c2H
	DB	03H
	DB	040H
	DB	05bH
	DB	040H
	DB	01H
	DB	07H
	DB	07eH
	DB	07H
	DB	09H
	DB	038H
	DB	074H
	DB	013H
	DB	093H
	DB	0cH
	DB	019H
	DB	09cH
	DB	01dH
	DB	0fH
	DB	0e0H
	DB	07fH
	DB	025H
	DB	03dH
	DB	01H
	DB	016H
	DB	0e3H
	DB	01dH
	DB	0aH
	DB	0faH
	DB	0eH
	DB	0fH
	DB	0eeH
	DB	02H
	DB	0eH
	DB	0d0H
	DB	016H
	DB	0aH
	DB	0cdH
	DB	049H
	DB	0cH
	DB	0deH
	DB	077H
	DB	040H
	DB	072H
	DB	040H
	DB	01H
	DB	06H
	DB	0dH
	DB	00H
	DB	05H
	DB	0c0H
	DB	0dH
	DB	07H
	DB	0c0H
	DB	012H
	DB	0bH
	DB	0b7H
	DB	00H
	DB	0eH
	DB	040H
	DB	01H
	DB	010H
	DB	086H
	DB	07bH
	DB	0bH
	DB	0fbH
	DB	019H
	DB	0cH
	DB	039H
	DB	025H
	DB	02bH
	DB	07fH
	DB	02H
	DB	0bH
	DB	052H
	DB	00H
	DB	06H
	DB	078H
	DB	01bH
	DB	0cH
	DB	040H
	DB	01H
	DB	013H
	DB	02aH
	DB	09H
	DB	0bH
	DB	0a8H
	DB	020H
	DB	09H
	DB	03H
	DB	07H
	DB	040H
	DB	07dH
	DB	00H
	DB	05H
	DB	09H
	DB	0dcH
	DB	03bH
	DB	04H
	DB	082H
	DB	02H
	DB	06H
	DB	04bH
	DB	048H
	DB	0dH
	DB	05eH
	DB	056H
	DB	08H
	DB	0f5H
	DB	0bH
	DB	09H
	DB	0e5H
	DB	018H
	DB	0eH
	DB	050H
	DB	03aH
	DB	0dH
	DB	0a0H
	DB	022H
	DB	024H
	DB	038H
	DB	06H
	DB	015H
	DB	01fH
	DB	024H
	DB	08H
	DB	0b5H
	DB	011H
	DB	081H
	DB	04H
	DB	04H
	DB	010H
	DB	0fcH
	DB	0eH
	DB	010H
	DB	0deH
	DB	0dH
	DB	0dH
	DB	038H
	DB	076H
	DB	02bH
	DB	035H
	DB	01H
	DB	040H
	DB	058H
	DB	040H
	DB	01H
	DB	09H
	DB	018H
	DB	077H
	DB	0aH
	DB	080H
	DB	031H
	DB	0aH
	DB	08dH
	DB	03H
	DB	0eH
	DB	0bdH
	DB	00H
	DB	01bH
	DB	0eeH
	DB	04H
	DB	0eH
	DB	0ebH
	DB	07dH
	DB	024H
	DB	0f0H
	DB	013H
	DB	0bH
	DB	060H
	DB	06fH
	DB	0bH
	DB	036H
	DB	00H
	DB	08H
	DB	0abH
	DB	052H
	DB	013H
	DB	0f8H
	DB	09H
	DB	010H
	DB	03H
	DB	08H
	DB	07H
	DB	0d0H
	DB	057H
	DB	040H
	DB	07eH
	DB	03eH
	DB	01H
	DB	0dH
	DB	07eH
	DB	05H
	DB	06H
	DB	040H
	DB	06H
	DB	08H
	DB	088H
	DB	027H
	DB	015H
	DB	01bH
	DB	011H
	DB	0fH
	DB	048H
	DB	01H
	DB	018H
	DB	08eH
	DB	03H
	DB	021H
	DB	08H
	DB	073H
	DB	0eH
	DB	0c3H
	DB	02H
	DB	0aH
	DB	0dH
	DB	04H
	DB	07H
	DB	07dH
	DB	0cH
	DB	011H
	DB	030H
	DB	033H
	DB	012H
	DB	0fdH
	DB	079H
	DB	09H
	DB	0c8H
	DB	06aH
	DB	040H
	DB	084H
	DB	03dH
	DB	01H
	DB	0bH
	DB	05H
	DB	033H
	DB	09H
	DB	02H
	DB	0aH
	DB	0dH
	DB	01bH
	DB	011H
	DB	017H
	DB	0c8H
	DB	08H
	DB	018H
	DB	0cdH
	DB	04H
	DB	039H
	DB	03dH
	DB	06H
	DB	08H
	DB	0beH
	DB	012H
	DB	0eH
	DB	09bH
	DB	0cH
	DB	0fH
	DB	0c3H
	DB	01aH
	DB	06H
	DB	028H
	DB	04H
	DB	0aH
	DB	06bH
	DB	059H
	DB	040H
	DB	082H
	DB	082H
	DB	02H
	DB	0bH
	DB	040H
	DB	035H
	DB	080H
	DB	01H
	DB	0cH
	DB	09dH
	DB	04dH
	DB	09H
	DB	038H
	DB	08H
	DB	013H
	DB	0c0H
	DB	01eH
	DB	0cH
	DB	0e0H
	DB	071H
	DB	0dH
	DB	07dH
	DB	07H
	DB	02fH
	DB	040H
	DB	01H
	DB	0cH
	DB	038H
	DB	0aH
	DB	0eH
	DB	0d0H
	DB	08H
	DB	012H
	DB	06eH
	DB	0aH
	DB	0eH
	DB	0e8H
	DB	026H
	DB	08H
	DB	0d0H
	DB	06aH
	DB	040H
	DB	083H
	DB	0c2H
	DB	03H
	DB	08H
	DB	040H
	DB	01H
	DB	08H
	DB	0c0H
	DB	03H
	DB	013H
	DB	074H
	DB	020H
	DB	0dH
	DB	084H
	DB	0eH
	DB	012H
	DB	080H
	DB	012H
	DB	010H
	DB	038H
	DB	025H
	DB	02eH
	DB	042H
	DB	01H
	DB	0eH
	DB	013H
	DB	05H
	DB	09H
	DB	078H
	DB	00H
	DB	014H
	DB	018H
	DB	04H
	DB	08H
	DB	088H
	DB	02fH
	DB	035H
	DB	040H
	DB	01H
	DB	05H
	DB	0f6H
	DB	024H
	DB	040H
	DB	05bH
	DB	040H
	DB	01H
	DB	0fH
	DB	0f8H
	DB	023H
	DB	09H
	DB	0b8H
	DB	03H
	DB	08H
	DB	020H
	DB	023H
	DB	0eH
	DB	02bH
	DB	02H
	DB	0cH
	DB	00H
	DB	07cH
	DB	09H
	DB	0cH
	DB	00H
	DB	024H
	DB	09aH
	DB	07fH
	DB	0eH
	DB	035H
	DB	0aH
	DB	013H
	DB	088H
	DB	016H
	DB	0aH
	DB	07dH
	DB	07H
	DB	010H
	DB	0dbH
	DB	02H
	DB	09H
	DB	0d5H
	DB	0dH
	DB	0aH
	DB	0a2H
	DB	05H
	DB	02dH
	DB	040H
	DB	01H
	DB	080H
	DB	06H
	DB	040H
	DB	05fH
	DB	040H
	DB	01H
	DB	09H
	DB	028H
	DB	01H
	DB	0dH
	DB	074H
	DB	02H
	DB	0aH
	DB	060H
	DB	024H
	DB	011H
	DB	068H
	DB	07H
	DB	01aH
	DB	040H
	DB	01H
	DB	012H
	DB	0bdH
	DB	077H
	DB	0cH
	DB	075H
	DB	011H
	DB	0cH
	DB	00H
	DB	09H
	DB	09H
	DB	0c8H
	DB	01cH
	DB	0fH
	DB	04dH
	DB	077H
	DB	010H
	DB	040H
	DB	01H
	DB	0dH
	DB	065H
	DB	0aH
	DB	09H
	DB	05bH
	DB	015H
	DB	02eH
	DB	080H
	DB	02H
	DB	040H
	DB	057H
	DB	0c0H
	DB	03H
	DB	08H
	DB	080H
	DB	07H
	DB	05H
	DB	068H
	DB	053H
	DB	0cH
	DB	093H
	DB	04H
	DB	025H
	DB	0bfH
	DB	0dH
	DB	025H
	DB	0c0H
	DB	03H
	DB	05H
	DB	0b5H
	DB	0eH
	DB	09H
	DB	04bH
	DB	039H
	DB	0cH
	DB	0b5H
	DB	0cH
	DB	0cH
	DB	080H
	DB	02H
	DB	0cH
	DB	03eH
	DB	0bH
	DB	010H
	DB	00H
	DB	014H
	DB	0cH
	DB	06dH
	DB	0fH
	DB	035H
	DB	080H
	DB	02H
	DB	040H
	DB	05aH
	DB	085H
	DB	07H
	DB	08H
	DB	050H
	DB	04dH
	DB	0dH
	DB	07bH
	DB	01dH
	DB	019H
	DB	08bH
	DB	022H
	DB	012H
	DB	00H
	DB	054H
	DB	08H
	DB	098H
	DB	013H
	DB	017H
	DB	0beH
	DB	08H
	DB	07H
	DB	04dH
	DB	07aH
	DB	0bH
	DB	040H
	DB	01H
	DB	015H
	DB	053H
	DB	00H
	DB	0dH
	DB	07cH
	DB	024H
	DB	015H
	DB	020H
	DB	013H
	DB	0bH
	DB	010H
	DB	0fH
	DB	0bH
	DB	0a0H
	DB	069H
	DB	040H
	DB	080H
	DB	080H
	DB	07H
	DB	08H
	DB	040H
	DB	01H
	DB	0aH
	DB	040H
	DB	01aH
	DB	013H
	DB	08H
	DB	020H
	DB	01bH
	DB	03fH
	DB	0bH
	DB	0fH
	DB	0d6H
	DB	08H
	DB	014H
	DB	048H
	DB	01H
	DB	0aH
	DB	0c8H
	DB	027H
	DB	010H
	DB	050H
	DB	02H
	DB	0eH
	DB	055H
	DB	019H
	DB	08H
	DB	020H
	DB	01aH
	DB	0fH
	DB	013H
	DB	07bH
	DB	0bH
	DB	0edH
	DB	065H
	DB	0bH
	DB	088H
	DB	043H
	DB	07H
	DB	0a3H
	DB	02H
	DB	02cH
	DB	03aH
	DB	01H
	DB	040H
	DB	057H
	DB	040H
	DB	01H
	DB	09H
	DB	058H
	DB	04dH
	DB	017H
	DB	06dH
	DB	01bH
	DB	02dH
	DB	040H
	DB	01H
	DB	014H
	DB	0c8H
	DB	0dH
	DB	010H
	DB	073H
	DB	02H
	DB	017H
	DB	045H
	DB	07cH
	DB	0dH
	DB	040H
	DB	01H
	DB	010H
	DB	040H
	DB	024H
	DB	09H
	DB	0bdH
	DB	044H
	DB	07H
	DB	0f8H
	DB	042H
	DB	09H
	DB	04dH
	DB	06H
	DB	015H
	DB	0e8H
	DB	027H
	DB	040H
	DB	068H
	DB	03fH
	DB	0bH
	DB	08H
	DB	038H
	DB	01dH
	DB	08H
	DB	0d0H
	DB	02cH
	DB	016H
	DB	03fH
	DB	015H
	DB	0dH
	DB	0b8H
	DB	04H
	DB	012H
	DB	035H
	DB	011H
	DB	06H
	DB	068H
	DB	074H
	DB	013H
	DB	0b1H
	DB	07cH
	DB	0dH
	DB	053H
	DB	01H
	DB	011H
	DB	0dcH
	DB	01cH
	DB	01eH
	DB	010H
	DB	01dH
	DB	014H
	DB	0c0H
	DB	03H
	DB	07H
	DB	038H
	DB	069H
	DB	0eH
	DB	0e0H
	DB	012H
	DB	040H
	DB	07dH
	DB	0c0H
	DB	03H
	DB	0bH
	DB	040H
	DB	01H
	DB	07H
	DB	048H
	DB	034H
	DB	01dH
	DB	07dH
	DB	016H
	DB	02bH
	DB	040H
	DB	01H
	DB	010H
	DB	075H
	DB	08H
	DB	0eH
	DB	060H
	DB	06H
	DB	013H
	DB	042H
	DB	01H
	DB	010H
	DB	0e0H
	DB	07eH
	DB	010H
	DB	0caH
	DB	010H
	DB	07H
	DB	048H
	DB	00H
	DB	09H
	DB	08H
	DB	0aH
	DB	07H
	DB	04bH
	DB	00H
	DB	040H
	DB	043H
	DB	00H
	DB	05H
	DB	0eH
	DB	052H
	DB	01bH
	DB	013H
	DB	03bH
	DB	041H
	DB	01cH
	DB	058H
	DB	069H
	DB	08H
	DB	0c0H
	DB	03H
	DB	011H
	DB	065H
	DB	02aH
	DB	028H
	DB	043H
	DB	01H
	DB	015H
	DB	07bH
	DB	01bH
	DB	016H
	DB	0cbH
	DB	036H
	DB	018H
	DB	042H
	DB	00H
	DB	08H
	DB	0e8H
	DB	018H
	DB	0fH
	DB	073H
	DB	05H
	DB	0eH
	DB	0d6H
	DB	02aH
	DB	09H
	DB	0e7H
	DB	01cH
	DB	0bH
	DB	01dH
	DB	01eH
	DB	06H
	DB	015H
	DB	05aH
	DB	028H
	DB	0c0H
	DB	08H
	DB	06H
	DB	0cbH
	DB	05aH
	DB	0bH
	DB	038H
	DB	07H
	DB	012H
	DB	0a3H
	DB	066H
	DB	020H
	DB	055H
	DB	02dH
	DB	0bH
	DB	02aH
	DB	00H
	DB	0dH
	DB	010H
	DB	00H
	DB	0dH
	DB	00H
	DB	05H
	DB	013H
	DB	07dH
	DB	016H
	DB	010H
	DB	051H
	DB	03H
	DB	013H
	DB	0a1H
	DB	013H
	DB	0cH
	DB	0cdH
	DB	08H
	DB	016H
	DB	018H
	DB	014H
	DB	0eH
	DB	02dH
	DB	00H
	DB	0eH
	DB	01fH
	DB	00H
	DB	0dH
	DB	038H
	DB	023H
	DB	08H
	DB	03dH
	DB	01eH
	DB	0fH
	DB	040H
	DB	01H
	DB	0bH
	DB	08fH
	DB	0aH
	DB	0aH
	DB	020H
	DB	041H
	DB	08H
	DB	0c2H
	DB	038H
	DB	026H
	DB	02H
	DB	0aH
	DB	0dH
	DB	055H
	DB	059H
	DB	09H
	DB	070H
	DB	044H
	DB	012H
	DB	010H
	DB	0bH
	DB	08H
	DB	08H
	DB	022H
	DB	0bH
	DB	058H
	DB	00H
	DB	012H
	DB	060H
	DB	028H
	DB	08H
	DB	0e0H
	DB	02fH
	DB	010H
	DB	040H
	DB	06H
	DB	08H
	DB	0ebH
	DB	051H
	DB	0eH
	DB	05bH
	DB	03H
	DB	012H
	DB	0d0H
	DB	037H
	DB	020H
	DB	0aH
	DB	01eH
	DB	0bH
	DB	0eH
	DB	018H
	DB	0eH
	DB	068H
	DB	02fH
	DB	0cH
	DB	050H
	DB	025H
	DB	09H
	DB	0e8H
	DB	07fH
	DB	010H
	DB	040H
	DB	00H
	DB	012H
	DB	0deH
	DB	021H
	DB	0dH
	DB	07aH
	DB	05fH
	DB	06H
	DB	058H
	DB	056H
	DB	081H
	DB	03H
	DB	03H
	DB	0bH
	DB	0d5H
	DB	04cH
	DB	023H
	DB	043H
	DB	01H
	DB	010H
	DB	0d4H
	DB	030H
	DB	010H
	DB	065H
	DB	03dH
	DB	06H
	DB	038H
	DB	01H
	DB	0aH
	DB	067H
	DB	058H
	DB	0aH
	DB	025H
	DB	052H
	DB	010H
	DB	02eH
	DB	018H
	DB	0cH
	DB	0d0H
	DB	045H
	DB	0fH
	DB	082H
	DB	053H
	DB	09H
	DB	040H
	DB	01H
	DB	0aH
	DB	0dcH
	DB	030H
	DB	010H
	DB	00H
	DB	016H
	DB	019H
	DB	0a6H
	DB	016H
	DB	0cH
	DB	060H
	DB	02H
	DB	0dH
	DB	0b3H
	DB	079H
	DB	0cH
	DB	0d0H
	DB	04H
	DB	0aH
	DB	053H
	DB	07H
	DB	0aH
	DB	0a0H
	DB	030H
	DB	0cH
	DB	0bcH
	DB	02fH
	DB	010H
	DB	0aaH
	DB	07H
	DB	0cH
	DB	0e0H
	DB	08H
	DB	04H
	DB	0c0H
	DB	021H
	DB	08H
	DB	0dH
	DB	05H
	DB	04H
	DB	040H
	DB	01H
	DB	04H
	DB	0aaH
	DB	03cH
	DB	010H
	DB	0f3H
	DB	05cH
	DB	01fH
	DB	0feH
	DB	04H
	DB	0dH
	DB	010H
	DB	00H
	DB	014H
	DB	0cbH
	DB	041H
	DB	018H
	DB	0b8H
	DB	058H
	DB	0dH
	DB	0f8H
	DB	018H
	DB	08H
	DB	022H
	DB	04cH
	DB	0aH
	DB	0bbH
	DB	024H
	DB	05H
	DB	04H
	DB	05H
	DB	08H
	DB	090H
	DB	07bH
	DB	08H
	DB	0c9H
	DB	017H
	DB	0dH
	DB	065H
	DB	065H
	DB	0fH
	DB	0b0H
	DB	08H
	DB	012H
	DB	073H
	DB	02H
	DB	06H
	DB	088H
	DB	061H
	DB	0cH
	DB	0c0H
	DB	04fH
	DB	0bH
	DB	0f5H
	DB	07cH
	DB	0cH
	DB	0ceH
	DB	077H
	DB	0aH
	DB	0c5H
	DB	0eH
	DB	0dH
	DB	0dH
	DB	04H
	DB	06H
	DB	07aH
	DB	01bH
	DB	010H
	DB	033H
	DB	05H
	DB	08H
	DB	072H
	DB	0cH
	DB	0aH
	DB	030H
	DB	07cH
	DB	08H
	DB	0cH
	DB	07cH
	DB	06H
	DB	0c8H
	DB	012H
	DB	0fH
	DB	0a3H
	DB	01dH
	DB	015H
	DB	0ccH
	DB	03H
	DB	013H
	DB	0e4H
	DB	08H
	DB	05H
	DB	0beH
	DB	04H
	DB	013H
	DB	0ddH
	DB	037H
	DB	08H
	DB	00H
	DB	04cH
	DB	0bH
	DB	0ebH
	DB	056H
	DB	0bH
	DB	028H
	DB	023H
	DB	08H
	DB	08H
	DB	00H
	DB	010H
	DB	07eH
	DB	068H
	DB	08H
	DB	020H
	DB	06fH
	DB	081H
	DB	00H
	DB	00H
	DB	08H
	DB	020H
	DB	05aH
	DB	0cH
	DB	0d3H
	DB	00H
	DB	0cH
	DB	015H
	DB	052H
	DB	014H
	DB	096H
	DB	031H
	DB	09H
	DB	058H
	DB	049H
	DB	08H
	DB	01bH
	DB	073H
	DB	09H
	DB	08H
	DB	0aH
	DB	0aH
	DB	0e8H
	DB	027H
	DB	0bH
	DB	015H
	DB	023H
	DB	06H
	DB	0d8H
	DB	07bH
	DB	0dH
	DB	010H
	DB	0bH
	DB	08H
	DB	0b8H
	DB	04eH
	DB	07H
	DB	020H
	DB	01aH
	DB	09H
	DB	0e5H
	DB	074H
	DB	07H
	DB	018H
	DB	028H
	DB	06H
	DB	013H
	DB	00H
	DB	08H
	DB	030H
	DB	063H
	DB	08H
	DB	0d0H
	DB	07fH
	DB	015H
	DB	083H
	DB	06aH
	DB	015H
	DB	05aH
	DB	015H
	DB	011H
	DB	040H
	DB	01H
	DB	07H
	DB	0feH
	DB	05H
	DB	082H
	DB	07H
	DB	07H
	DB	07H
	DB	0dH
	DB	0ceH
	DB	051H
	DB	06H
	DB	051H
	DB	01H
	DB	0dH
	DB	03aH
	DB	039H
	DB	0bH
	DB	012H
	DB	043H
	DB	08H
	DB	02H
	DB	02cH
	DB	0aH
	DB	0b8H
	DB	02H
	DB	018H
	DB	04H
	DB	047H
	DB	017H
	DB	0f3H
	DB	063H
	DB	05H
	DB	0adH
	DB	03eH
	DB	07H
	DB	055H
	DB	01H
	DB	0eH
	DB	01bH
	DB	037H
	DB	0aH
	DB	06dH
	DB	057H
	DB	010H
	DB	046H
	DB	065H
	DB	0eH
	DB	0d8H
	DB	030H
	DB	0bH
	DB	0bH
	DB	00H
	DB	022H
	DB	026H
	DB	00H
	DB	0eH
	DB	0d2H
	DB	02fH
	DB	012H
	DB	030H
	DB	00H
	DB	08H
	DB	083H
	DB	00H
	DB	0dH
	DB	08bH
	DB	00H
	DB	015H
	DB	04eH
	DB	06H
	DB	011H
	DB	07fH
	DB	02H
	DB	07H
	DB	09bH
	DB	070H
	DB	082H
	DB	07H
	DB	07H
	DB	07H
	DB	0eH
	DB	0dH
	DB	053H
	DB	01fH
	DB	04H
	DB	01H
	DB	06H
	DB	0eH
	DB	047H
	DB	023H
	DB	02cH
	DB	01H
	DB	018H
	DB	018H
	DB	00H
	DB	0aH
	DB	0b2H
	DB	011H
	DB	0bH
	DB	076H
	DB	04dH
	DB	028H
	DB	082H
	DB	01H
	DB	030H
	DB	030H
	DB	00H
	DB	036H
	DB	036H
	DB	00H
	DB	0cH
	DB	032H
	DB	04fH
	DB	010H
	DB	0f8H
	DB	047H
	DB	013H
	DB	0c0H
	DB	03H
	DB	0dH
	DB	040H
	DB	01H
	DB	080H
	DB	01H
	DB	05H
	DB	07bH
	DB	053H
	DB	0bH
	DB	0cbH
	DB	02H
	DB	05H
	DB	052H
	DB	00H
	DB	0bH
	DB	0a8H
	DB	01cH
	DB	05H
	DB	0d8H
	DB	03H
	DB	06H
	DB	048H
	DB	071H
	DB	05H
	DB	08aH
	DB	02H
	DB	0bH
	DB	096H
	DB	02H
	DB	08H
	DB	038H
	DB	065H
	DB	0dH
	DB	060H
	DB	044H
	DB	07H
	DB	010H
	DB	03H
	DB	06H
	DB	028H
	DB	05H
	DB	06H
	DB	04dH
	DB	00H
	DB	04H
	DB	01dH
	DB	00H
	DB	04H
	DB	083H
	DB	03eH
	DB	07H
	DB	050H
	DB	00H
	DB	08H
	DB	067H
	DB	00H
	DB	06H
	DB	046H
	DB	00H
	DB	05H
	DB	015H
	DB	00H
	DB	0bH
	DB	052H
	DB	00H
	DB	08H
	DB	072H
	DB	03dH
	DB	08H
	DB	0dH
	DB	00H
	DB	07H
	DB	078H
	DB	00H
	DB	0bH
	DB	033H
	DB	04cH
	DB	09H
	DB	088H
	DB	00H
	DB	08H
	DB	04dH
	DB	00H
	DB	05H
	DB	04H
	DB	01H
	DB	0aH
	DB	03dH
	DB	00H
	DB	09H
	DB	00H
	DB	058H
	DB	07H
	DB	0bH
	DB	049H
	DB	08H
	DB	0c5H
	DB	070H
	DB	06H
	DB	068H
	DB	054H
	DB	082H
	DB	02H
	DB	02H
	DB	05H
	DB	07H
	DB	098H
	DB	00H
	DB	0bH
	DB	080H
	DB	00H
	DB	06H
	DB	058H
	DB	07H
	DB	0fH
	DB	05H
	DB	070H
	DB	018H
	DB	00H
	DB	05H
	DB	08H
	DB	06H
	DB	04H
	DB	06H
	DB	07dH
	DB	01H
	DB	012H
	DB	0d8H
	DB	060H
	DB	082H
	DB	07H
	DB	08H
	DB	08H
	DB	0bH
	DB	023H
	DB	00H
	DB	07H
	DB	040H
	DB	01H
	DB	080H
	DB	08H
	DB	08H
	DB	028H
	DB	00H
	DB	010H
	DB	033H
	DB	00H
	DB	081H
	DB	02H
	DB	02H
	DB	08H
	DB	023H
	DB	075H
	DB	013H
	DB	023H
	DB	066H
	DB	06H
	DB	0a8H
	DB	00H
	DB	05H
	DB	028H
	DB	06eH
	DB	082H
	DB	02H
	DB	02H
	DB	05H
	DB	04H
	DB	0abH
	DB	00H
	DB	08H
	DB	02bH
	DB	00H
	DB	09H
	DB	088H
	DB	00H
	DB	081H
	DB	01H
	DB	01H
	DB	010H
	DB	016H
	DB	074H
	DB	05H
	DB	0deH
	DB	00H
	DB	09H
	DB	01dH
	DB	00H
	DB	07H
	DB	05dH
	DB	00H
	DB	04H
	DB	083H
	DB	00H
	DB	0dH
	DB	026H
	DB	00H
	DB	081H
	DB	00H
	DB	00H
	DB	09H
	DB	0a8H
	DB	00H
	DB	04H
	DB	058H
	DB	00H
	DB	08H
	DB	0a0H
	DB	05H
	DB	09H
	DB	04dH
	DB	00H
	DB	081H
	DB	06H
	DB	06H
	DB	08H
	DB	056H
	DB	00H
	DB	09H
	DB	04eH
	DB	00H
	DB	04H
	DB	05H
	DB	02H
	DB	09H
	DB	013H
	DB	00H
	DB	08H
	DB	0b5H
	DB	00H
	DB	05H
	DB	0e5H
	DB	00H
	DB	05H
	DB	00H
	DB	053H
	DB	02eH
	DB	040H
	DB	01H
	DB	08H
	DB	04bH
	DB	06H
	DB	0bH
	DB	092H
	DB	050H
	DB	08H
	DB	070H
	DB	00H
	DB	0dH
	DB	040H
	DB	01H
	DB	081H
	DB	01H
	DB	01H
	DB	06H
	DB	0e0H
	DB	01H
	DB	0bH
	DB	013H
	DB	01H
	DB	010H
	DB	04bH
	DB	058H
	DB	04H
	DB	023H
	DB	02H
	DB	016H
	DB	023H
	DB	066H
	DB	0aH
	DB	078H
	DB	049H
	DB	04H
	DB	0b0H
	DB	00H
	DB	018H
	DB	040H
	DB	01H
	DB	014H
	DB	076H
	DB	01H
	DB	08H
	DB	0e8H
	DB	06dH
	DB	08H
	DB	0a0H
	DB	00H
	DB	080H
	DB	02H
	DB	0aH
	DB	0bH
	DB	064H
	DB	09H
	DB	09dH
	DB	00H
	DB	08H
	DB	02bH
	DB	01H
	DB	015H
	DB	040H
	DB	01H
	DB	081H
	DB	08H
	DB	08H
	DB	07H
	DB	079H
	DB	01H
	DB	04H
	DB	0bfH
	DB	00H
	DB	0eH
	DB	040H
	DB	01H
	DB	0bH
	DB	013H
	DB	00H
	DB	09H
	DB	0e5H
	DB	00H
	DB	080H
	DB	05H
	DB	022H
	DB	04dH
	DB	072H
	DB	05H
	DB	0d8H
	DB	02H
	DB	0bH
	DB	03aH
	DB	00H
	DB	06H
	DB	038H
	DB	06H
	DB	0bH
	DB	085H
	DB	00H
	DB	07H
	DB	09bH
	DB	00H
	DB	080H
	DB	00H
	DB	08H
	DB	055H
	DB	01H
	DB	08H
	DB	0a3H
	DB	02H
	DB	05H
	DB	05H
	DB	00H
	DB	0aH
	DB	030H
	DB	05H
	DB	06H
	DB	04bH
	DB	01H
	DB	05H
	DB	0f8H
	DB	02H
	DB	0bH
	DB	026H
	DB	01H
	DB	08H
	DB	0d8H
	DB	00H
	DB	08H
	DB	0f5H
	DB	03H
	DB	08H
	DB	025H
	DB	02H
	DB	0aH
	DB	065H
	DB	04H
	DB	05H
	DB	0eH
	DB	00H
	DB	0bH
	DB	015H
	DB	02H
	DB	07H
	DB	06eH
	DB	00H
	DB	080H
	DB	00H
	DB	06H
	DB	046H
	DB	00H
	DB	08H
	DB	0edH
	DB	02H
	DB	07H
	DB	0dbH
	DB	01H
	DB	06H
	DB	01dH
	DB	00H
	DB	0aH
	DB	095H
	DB	00H
	DB	080H
	DB	02H
	DB	07H
	DB	013H
	DB	00H
	DB	05H
	DB	01H
	DB	07H
	DB	06H
	DB	013H
	DB	00H
	DB	09H
	DB	0aH
	DB	00H
	DB	0aH
	DB	068H
	DB	065H
	DB	0aH
	DB	020H
	DB	02H
	DB	083H
	DB	02H
	DB	07H
	DB	07H
	DB	06H
	DB	0fH
	DB	040H
	DB	01H
	DB	04H
	DB	0bbH
	DB	00H
	DB	09H
	DB	040H
	DB	01H
	DB	09H
	DB	033H
	DB	03H
	DB	0bH
	DB	080H
	DB	02H
	DB	01bH
	DB	07cH
	DB	02H
	DB	014H
	DB	00H
	DB	05H
	DB	09H
	DB	0d8H
	DB	00H
	DB	0fH
	DB	098H
	DB	03H
	DB	09H
	DB	040H
	DB	01H
	DB	08H
	DB	0a3H
	DB	073H
	DB	0cH
	DB	020H
	DB	01H
	DB	05H
	DB	0b9H
	DB	04H
	DB	080H
	DB	00H
	DB	05H
	DB	090H
	DB	07H
	DB	09H
	DB	018H
	DB	048H
	DB	010H
	DB	020H
	DB	00H
	DB	0dH
	DB	0e2H
	DB	03H
	DB	0aH
	DB	075H
	DB	033H
	DB	05H
	DB	06H
	DB	00H
	DB	08H
	DB	040H
	DB	01H
	DB	09H
	DB	012H
	DB	09H
	DB	08H
	DB	02eH
	DB	00H
	DB	05H
	DB	048H
	DB	056H
	DB	0aH
	DB	0d3H
	DB	00H
	DB	0eH
	DB	078H
	DB	05cH
	DB	06H
	DB	0a5H
	DB	04H
	DB	05H
	DB	022H
	DB	01H
	DB	080H
	DB	00H
	DB	09H
	DB	0eeH
	DB	03H
	DB	013H
	DB	040H
	DB	01H
	DB	0aH
	DB	0d5H
	DB	03H
	DB	0bH
	DB	073H
	DB	04H
	DB	09H
	DB	058H
	DB	03H
	DB	08H
	DB	040H
	DB	078H
	DB	0aH
	DB	060H
	DB	00H
	DB	010H
	DB	040H
	DB	01H
	DB	01dH
	DB	0d8H
	DB	0dH
	DB	016H
	DB	00H
	DB	05H
	DB	0bH
	DB	080H
	DB	02H
	DB	010H
	DB	08H
	DB	02H
	DB	010H
	DB	0e3H
	DB	02H
	DB	0bH
	DB	076H
	DB	01H
	DB	0cH
	DB	063H
	DB	01H
	DB	0eH
	DB	010H
	DB	00H
	DB	0dH
	DB	080H
	DB	02H
	DB	0eH
	DB	042H
	DB	00H
	DB	0cH
	DB	0c0H
	DB	03H
	DB	0eH
	DB	045H
	DB	04H
	DB	0eH
	DB	0a5H
	DB	06cH
	DB	04H
	DB	068H
	DB	01H
	DB	0fH
	DB	063H
	DB	05H
	DB	0dH
	DB	0abH
	DB	00H
	DB	010H
	DB	0a8H
	DB	00H
	DB	0aH
	DB	0f0H
	DB	03H
	DB	0aH
	DB	0c0H
	DB	03H
	DB	09H
	DB	0f0H
	DB	03H
	DB	0dH
	DB	06bH
	DB	00H
	DB	013H
	DB	080H
	DB	079H
	DB	0bH
	DB	0c0H
	DB	03H
	DB	01eH
	DB	03eH
	DB	01H
	DB	09H
	DB	00H
	DB	0aH
	DB	019H
	DB	040H
	DB	01H
	DB	08H
	DB	0edH
	DB	01H
	DB	0aH
	DB	0c0H
	DB	03H
	DB	0dH
	DB	025H
	DB	01H
	DB	09H
	DB	030H
	DB	02H
	DB	05H
	DB	0c8H
	DB	04aH
	DB	0bH
	DB	098H
	DB	077H
	DB	01aH
	DB	040H
	DB	01H
	DB	0aH
	DB	048H
	DB	01H
	DB	08H
	DB	0dbH
	DB	067H
	DB	0eH
	DB	040H
	DB	01H
	DB	081H
	DB	02H
	DB	02H
	DB	08H
	DB	07eH
	DB	07H
	DB	0cH
	DB	038H
	DB	05H
	DB	0aH
	DB	010H
	DB	01H
	DB	0dH
	DB	0abH
	DB	00H
	DB	010H
	DB	066H
	DB	05H
	DB	0dH
	DB	040H
	DB	01H
	DB	0bH
	DB	055H
	DB	04H
	DB	06H
	DB	0bcH
	DB	00H
	DB	0dH
	DB	038H
	DB	073H
	DB	010H
	DB	05H
	DB	02H
	DB	05H
	DB	050H
	DB	01H
	DB	0eH
	DB	048H
	DB	00H
	DB	0dH
	DB	0b8H
	DB	03H
	DB	015H
	DB	0e2H
	DB	0dH
	DB	05H
	DB	048H
	DB	08H
	DB	019H
	DB	040H
	DB	01H
	DB	0aH
	DB	0f6H
	DB	00H
	DB	08H
	DB	040H
	DB	01H
	DB	0bH
	DB	038H
	DB	06H
	DB	0aH
	DB	038H
	DB	00H
	DB	09H
	DB	083H
	DB	03H
	DB	0bH
	DB	035H
	DB	01H
	DB	06H
	DB	09eH
	DB	03H
	DB	0bH
	DB	0fdH
	DB	00H
	DB	07H
	DB	0dH
	DB	00H
	DB	0cH
	DB	04bH
	DB	01H
	DB	09H
	DB	05dH
	DB	047H
	DB	0bH
	DB	0b5H
	DB	00H
	DB	0dH
	DB	0f8H
	DB	02H
	DB	0fH
	DB	090H
	DB	03H
	DB	0eH
	DB	00H
	DB	05H
	DB	05H
	DB	090H
	DB	08H
	DB	08H
	DB	018H
	DB	01H
	DB	08H
	DB	030H
	DB	09H
	DB	08H
	DB	030H
	DB	00H
	DB	0bH
	DB	0c0H
	DB	01H
	DB	06H
	DB	0aH
	DB	00H
	DB	08H
	DB	028H
	DB	00H
	DB	0fH
	DB	050H
	DB	08H
	DB	04H
	DB	053H
	DB	01H
	DB	09H
	DB	080H
	DB	02H
	DB	0bH
	DB	090H
	DB	06H
	DB	0bH
	DB	080H
	DB	07H
	DB	01eH
	DB	040H
	DB	01H
	DB	01dH
	DB	080H
	DB	02H
	DB	081H
	DB	01H
	DB	01H
	DB	08H
	DB	05cH
	DB	00H
	DB	09H
	DB	080H
	DB	02H
	DB	07H
	DB	075H
	DB	01H
	DB	0dH
	DB	065H
	DB	08H
	DB	0bH
	DB	078H
	DB	00H
	DB	09H
	DB	08aH
	DB	04H
	DB	0dH
	DB	096H
	DB	0bH
	DB	0bH
	DB	035H
	DB	01H
	DB	0bH
	DB	023H
	DB	00H
	DB	09H
	DB	040H
	DB	01H
	DB	0bH
	DB	080H
	DB	07H
	DB	0eH
	DB	040H
	DB	06H
	DB	05H
	DB	01bH
	DB	06H
	DB	0aH
	DB	090H
	DB	01H
	DB	09H
	DB	040H
	DB	01H
	DB	08H
	DB	0c0H
	DB	08H
	DB	080H
	DB	06H
	DB	07H
	DB	0fH
	DB	06H
	DB	0aH
	DB	016H
	DB	069H
	DB	0bH
	DB	028H
	DB	08H
	DB	0aH
	DB	060H
	DB	0eH
	DB	08H
	DB	060H
	DB	051H
	DB	04H
	DB	056H
	DB	07cH
	DB	012H
	DB	080H
	DB	07H
	DB	0dH
	DB	04dH
	DB	07dH
	DB	0bH
	DB	0a0H
	DB	07H
	DB	081H
	DB	01H
	DB	01H
	DB	04H
	DB	00H
	DB	01H
	DB	020H
	DB	04fH
	DB	010H
	DB	015H
	DB	040H
	DB	06H
	DB	012H
	DB	0bdH
	DB	09H
	DB	013H
	DB	026H
	DB	04H
	DB	081H
	DB	00H
	DB	00H
	DB	0cH
	DB	060H
	DB	02H
	DB	010H
	DB	0d0H
	DB	05fH
	DB	0dH
	DB	0e0H
	DB	08H
	DB	015H
	DB	00H
	DB	05H
	DB	05H
	DB	095H
	DB	01H
	DB	05H
	DB	0c0H
	DB	03H
	DB	011H
	DB	025H
	DB	09H
	DB	013H
	DB	0c0H
	DB	08H
	DB	04H
	DB	0d3H
	DB	00H
	DB	09H
	DB	0aH
	DB	00H
	DB	0fH
	DB	080H
	DB	07H
	DB	0cH
	DB	095H
	DB	00H
	DB	018H
	DB	08eH
	DB	07fH
	DB	08H
	DB	0e0H
	DB	01H
	DB	012H
	DB	00H
	DB	0aH
	DB	0aH
	DB	0daH
	DB	00H
	DB	0cH
	DB	033H
	DB	05H
	DB	05H
	DB	05H
	DB	01H
	DB	0aH
	DB	078H
	DB	05fH
	DB	02eH
	DB	00H
	DB	05H
	DB	010H
	DB	040H
	DB	01H
	DB	05H
	DB	0c3H
	DB	06H
	DB	013H
	DB	040H
	DB	06H
	DB	0dH
	DB	080H
	DB	07H
	DB	013H
	DB	0ddH
	DB	05H
	DB	027H
	DB	040H
	DB	06H
	DB	014H
	DB	0c0H
	DB	08H
	DB	013H
	DB	083H
	DB	00H
	DB	011H
	DB	01dH
	DB	00H
	DB	080H
	DB	01H
	DB	010H
	DB	040H
	DB	0bH
	DB	081H
	DB	05H
	DB	05H
	DB	08H
	DB	0c0H
	DB	065H
	DB	016H
	DB	03fH
	DB	01H
	DB	08H
	DB	0a8H
	DB	02H
	DB	0dH
	DB	0e8H
	DB	03H
	DB	081H
	DB	06H
	DB	06H
	DB	09H
	DB	058H
	DB	0aH
	DB	08H
	DB	080H
	DB	02H
	DB	08H
	DB	0a0H
	DB	0cH
	DB	08H
	DB	055H
	DB	012H
	DB	01dH
	DB	080H
	DB	02H
	DB	06H
	DB	08aH
	DB	0dH
	DB	05H
	DB	0e8H
	DB	03H
	DB	0aH
	DB	023H
	DB	010H
	DB	0bH
	DB	08H
	DB	0cH
	DB	0bH
	DB	0ddH
	DB	02cH
	DB	08H
	DB	080H
	DB	04eH
	DB	0bH
	DB	0b0H
	DB	035H
	DB	05H
	DB	0efH
	DB	0cH
	DB	08H
	DB	0d0H
	DB	04aH
	DB	08H
	DB	030H
	DB	045H
	DB	0bH
	DB	0f8H
	DB	073H
	DB	0cH
	DB	0ddH
	DB	035H
	DB	08H
	DB	00H
	DB	04eH
	DB	0bH
	DB	0f0H
	DB	026H
	DB	06H
	DB	0beH
	DB	01H
	DB	06H
	DB	02bH
	DB	060H
	DB	05H
	DB	012H
	DB	00H
	DB	05H
	DB	092H
	DB	0fH
	DB	0bH
	DB	020H
	DB	04bH
	DB	08H
	DB	088H
	DB	0eH
	DB	07H
	DB	0a0H
	DB	03dH
	DB	0bH
	DB	088H
	DB	06bH
	DB	06H
	DB	0a8H
	DB	07H
	DB	0aH
	DB	0a0H
	DB	014H
	DB	0bH
	DB	0dH
	DB	04eH
	DB	08H
	DB	080H
	DB	06fH
	DB	09H
	DB	07aH
	DB	06fH
	DB	06H
	DB	0bH
	DB	00H
	DB	08H
	DB	01dH
	DB	02H
	DB	08H
	DB	0f0H
	DB	03dH
	DB	080H
	DB	00H
	DB	0aH
	DB	0b0H
	DB	04H
	DB	08H
	DB	01eH
	DB	00H
	DB	080H
	DB	06H
	DB	0aH
	DB	0d0H
	DB	013H
	DB	018H
	DB	081H
	DB	016H
	DB	0eH
	DB	053H
	DB	0bH
	DB	0cH
	DB	048H
	DB	011H
	DB	0bH
	DB	04cH
	DB	011H
	DB	09H
	DB	070H
	DB	05H
	DB	040H
	DB	05fH
	DB	0a5H
	DB	0fH
	DB	0eH
	DB	090H
	DB	0bH
	DB	040H
	DB	080H
	DB	035H
	DB	010H
	DB	0bH
	DB	083H
	DB	015H
	DB	0aH
	DB	0b0H
	DB	021H
	DB	01bH
	DB	040H
	DB	01H
	DB	0aH
	DB	0beH
	DB	017H
	DB	08H
	DB	04bH
	DB	053H
	DB	09H
	DB	05aH
	DB	011H
	DB	0cH
	DB	028H
	DB	04dH
	DB	06H
	DB	0a8H
	DB	02eH
	DB	0aH
	DB	088H
	DB	016H
	DB	010H
	DB	04bH
	DB	070H
	DB	08H
	DB	0abH
	DB	010H
	DB	010H
	DB	0b0H
	DB	077H
	DB	09H
	DB	098H
	DB	01H
	DB	0bH
	DB	065H
	DB	022H
	DB	07H
	DB	0f0H
	DB	06dH
	DB	06H
	DB	02H
	DB	04bH
	DB	07H
	DB	088H
	DB	011H
	DB	08H
	DB	053H
	DB	00H
	DB	09H
	DB	032H
	DB	055H
	DB	05H
	DB	04eH
	DB	019H
	DB	08H
	DB	0d0H
	DB	020H
	DB	06H
	DB	0d5H
	DB	031H
	DB	05H
	DB	08H
	DB	03H
	DB	07H
	DB	0f8H
	DB	032H
	DB	04H
	DB	030H
	DB	016H
	DB	08H
	DB	0f0H
	DB	02H
	DB	04H
	DB	052H
	DB	00H
	DB	09H
	DB	0b3H
	DB	02H
	DB	0bH
	DB	0d2H
	DB	012H
	DB	07H
	DB	040H
	DB	00H
	DB	06H
	DB	00H
	DB	03H
	DB	0aH
	DB	0e3H
	DB	065H
	DB	08H
	DB	0f6H
	DB	05bH
	DB	08H
	DB	058H
	DB	07H
	DB	011H
	DB	071H
	DB	079H
	DB	0aH
	DB	0f7H
	DB	052H
	DB	0aH
	DB	015H
	DB	01H
	DB	035H
	DB	0e7H
	DB	02bH
	DB	00H
	DB	00H
	DB	00H
	DB	00H
	DB	00H
	DB	00H
	DB	00H
	DB	00H
	DB	00H
	DB	00H
	DB	00H
	DB	00H
	DB	00H
	DB	00H
	DB	00H
	DB	00H
	DB	00H
	DB	00H
	DB	00H
	DB	00H
	DB	00H
	DB	00H
	DB	00H
	DB	00H
	DB	00H
	DB	00H
	DB	00H
	DB	00H
	DB	00H
	DB	00H
	DB	00H
	DB	00H
	DB	00H
	DB	00H
	DB	00H
	DB	00H
	DB	00H
	DB	00H
	DB	00H
	DB	00H
	DB	00H
	DB	00H
	DB	00H
	DB	00H
	DB	00H
	DB	00H
	DB	00H
	DB	00H
	DB	00H
	DB	00H
	DB	00H
	DB	00H
	DB	00H
	DB	00H
	DB	00H
	DB	00H
	DB	00H
	DB	00H
	DB	00H
	DB	00H
	DB	00H
	DB	00H
	DB	00H
	DB	00H
	DB	00H
	DB	00H
	DB	00H
	DB	00H
	DB	00H
	DB	00H
	DB	00H
	DB	00H
	DB	00H
	DB	00H
	DB	00H
	DB	00H
	DB	00H
	DB	00H
	DB	00H
	DB	00H
	DB	00H
	DB	00H
	DB	00H
	DB	00H
	DB	00H
	DB	00H
	DB	00H
	DB	00H
	DB	00H
	DB	00H
	DB	00H
	DB	00H
	DB	00H
	DB	00H
	DB	00H
	DB	00H
	DB	00H
	DB	00H
	DB	00H
	DB	00H
	DB	00H
	DB	00H
	DB	00H
	DB	00H
	DB	00H
	DB	00H
	DB	00H
	DB	00H
	DB	00H
	DB	00H
	DB	00H
	DB	00H
	DB	00H
	DB	00H
	DB	00H
	DB	00H
	DB	00H
	DB	00H
	DB	00H
	DB	00H
	DB	00H
	DB	00H
	DB	00H
	DB	00H
	DB	00H
	DB	00H
	DB	00H
	DB	00H
	DB	00H
	DB	00H
	DB	00H
	DB	00H
	DB	00H
	DB	00H
	DB	00H
	DB	00H
	DB	00H
	DB	00H
	DB	00H
	DB	00H
	DB	00H
	DB	00H
	DB	00H
	DB	00H
	DB	00H
	DB	00H
	DB	00H
	DB	00H
	DB	00H
	DB	00H
	DB	00H
	DB	00H
	DB	00H
	DB	00H
	DB	00H
	DB	00H
	DB	00H
	DB	00H
	DB	00H
	DB	00H
	DB	00H
	DB	00H
	DB	00H
	DB	00H
	DB	00H
	DB	00H
	DB	00H
	DB	00H
	DB	00H
	DB	00H
	DB	00H
	DB	00H
	DB	00H
	DB	00H
	DB	00H
	DB	00H
	DB	00H
	DB	00H
	DB	00H
	DB	00H
	DB	00H
	DB	00H
	DB	00H
	DB	00H
	DB	00H
	DB	00H
	DB	00H
	DB	00H
	DB	00H
	DB	00H
	DB	00H
	DB	00H
	DB	00H
	DB	00H
	DB	00H
	DB	00H
	DB	00H
	DB	00H
	DB	00H
	DB	00H
	DB	00H
	DB	00H
	DB	00H
	DB	00H
	DB	00H
	DB	00H
	DB	00H
	DB	00H
	DB	00H
	DB	00H
	DB	00H
	DB	00H
	DB	00H
	DB	00H
	DB	00H
	DB	00H
	DB	00H
	DB	00H
	DB	00H
	DB	00H
	DB	00H
	DB	00H
	DB	00H
	DB	00H
	DB	00H
	DB	00H
	DB	00H
	DB	00H
	DB	00H
	DB	00H
	DB	00H
	DB	00H
	DB	00H
	DB	00H
	DB	00H
	DB	00H
	DB	00H
	DB	00H
	DB	00H
	DB	00H
	DB	00H
	DB	00H
	DB	00H
	DB	00H
	DB	00H
	DB	00H
	DB	00H
	DB	00H
	DB	00H
	DB	00H
	DB	00H
	DB	00H
	DB	00H
	DB	00H
	DB	00H
	DB	00H
	DB	00H
	DB	00H
	DB	00H
	DB	00H
	DB	00H
	DB	00H
	DB	00H
	DB	00H
	DB	00H
	DB	00H
	DB	00H
	DB	00H
	DB	00H
	DB	00H
	DB	00H
	DB	00H
	DB	00H
	DB	00H
	DB	00H
	DB	00H
	DB	00H
	DB	00H
	DB	00H
	DB	00H
	DB	00H
	DB	00H
	DB	00H
	DB	00H
	DB	00H
	DB	00H
	DB	00H
	DB	00H
	DB	00H
	DB	00H
	DB	00H
	DB	00H
	DB	00H
	DB	00H
	DB	00H
	DB	00H
	DB	00H
	DB	00H
	DB	00H
	DB	00H
	DB	00H
	DB	00H
	DB	00H
	DB	00H
	DB	00H
	DB	00H
	DB	00H
	DB	00H
	DB	00H
	DB	00H
	DB	00H
	DB	00H
	DB	00H
	DB	00H
	DB	00H
	DB	00H
	DB	00H
	DB	00H
	DB	00H
	DB	00H
	DB	00H
	DB	00H
	DB	00H
	DB	00H
	DB	00H
	DB	00H
	DB	00H
	DB	00H
	DB	00H
	DB	00H
	DB	00H
	DB	00H
	DB	00H
	DB	00H
	DB	00H
	DB	00H
	DB	00H
	DB	00H
	DB	00H
	DB	00H
	DB	00H
	DB	00H
	DB	00H
	DB	00H
	DB	00H
	DB	00H
	DB	00H
	DB	00H
	DB	00H
	DB	00H
	DB	00H
	DB	00H
	DB	00H
	DB	00H
	DB	00H
	DB	00H
	DB	00H
	DB	00H
	DB	00H
	DB	00H
	DB	00H
	DB	00H
	DB	00H
	DB	00H
	DB	00H
	DB	00H
	DB	00H
	DB	00H
	DB	00H
	DB	00H
	DB	00H
	DB	00H
	DB	00H
	DB	00H
	DB	00H
	DB	00H
	DB	00H
	DB	00H
	DB	00H
	DB	00H
	DB	00H
	DB	00H
	DB	00H
	DB	00H
	DB	00H
	DB	00H
	DB	00H
	DB	00H
	DB	00H
	DB	00H
	DB	00H
	DB	00H
	DB	00H
	DB	00H
	DB	00H
	DB	00H
	DB	00H
	DB	00H
	DB	00H
	DB	00H
	DB	00H
	DB	00H
	DB	00H
	DB	00H
	DB	00H
	DB	00H
	DB	00H
	DB	00H
	DB	00H
	DB	00H
	DB	00H
	DB	00H
	DB	00H
	DB	00H
	DB	00H
	DB	00H
	DB	00H
	DB	00H
	DB	00H
	DB	00H
	DB	00H
	DB	00H
	DB	00H
	DB	00H
	DB	00H
	DB	00H
	DB	00H
	DB	00H
	DB	00H
	DB	00H
	DB	00H
	DB	00H
	DB	00H
	DB	00H
	DB	00H
	DB	00H
	DB	00H
	DB	00H
	DB	00H
	DB	00H
	DB	00H
	DB	00H
	DB	00H
	DB	00H
	DB	00H
	DB	00H
	DB	00H
	DB	00H
	DB	00H
	DB	00H
	DB	00H
	DB	00H
	DB	00H
	DB	00H
	DB	00H
	DB	00H
	DB	00H
	DB	00H
	DB	00H
	DB	00H
	DB	00H
	DB	00H
	DB	00H
	DB	00H
	DB	00H
	DB	00H
	DB	00H
	DB	00H
	DB	00H
	DB	00H
	DB	00H
	DB	00H
	DB	00H
	DB	00H
	DB	00H
	DB	00H
	DB	00H
	DB	00H
	DB	00H
	DB	00H
	DB	00H
	DB	00H
	DB	00H
	DB	00H
	DB	00H
	DB	00H
	DB	00H
	DB	00H
	DB	00H
	DB	00H
	DB	00H
	DB	00H
	DB	00H
	DB	00H
	DB	00H
	DB	00H
	DB	00H
	DB	00H
	DB	00H
	DB	00H
	DB	00H
	DB	00H
	DB	00H
	DB	00H
	DB	00H
	DB	00H
	DB	00H
	DB	00H
	DB	00H
	DB	00H
	DB	00H
	DB	00H
	DB	00H
	DB	00H
	DB	00H
	DB	00H
	DB	00H
	DB	00H
	DB	00H
	DB	00H
	DB	00H
	DB	00H
	DB	00H
	DB	00H
	DB	00H
	DB	00H
	DB	00H
	DB	00H
	DB	00H
	DB	00H
	DB	00H
	DB	00H
	DB	00H
	DB	00H
	DB	00H
	DB	00H
	DB	00H
	DB	00H
	DB	00H
	DB	00H
	DB	00H
	DB	00H
	DB	00H
	DB	00H
	DB	00H
	DB	00H
	DB	00H
	DB	00H
	DB	00H
	DB	00H
	DB	00H
	DB	00H
	DB	00H
	DB	00H
	DB	00H
	DB	00H
	DB	00H
	DB	00H
	DB	00H
	DB	00H
	DB	00H
	DB	00H
	DB	00H
	DB	00H
	DB	00H
	DB	00H
	DB	00H
	DB	00H
	DB	00H
	DB	00H
	DB	00H
	DB	00H
	DB	00H
	DB	00H
	DB	00H
	DB	00H
	DB	00H
	DB	00H
	DB	00H
	DB	00H
	DB	00H
	DB	00H
	DB	00H
	DB	00H
	DB	00H
	DB	00H
	DB	00H
	DB	00H
	DB	00H
	DB	00H
	DB	00H
	DB	00H
	DB	00H
	DB	00H
	DB	00H
	DB	00H
	DB	00H
	DB	00H
	DB	00H
	DB	00H
	DB	00H
	DB	00H
	DB	00H
	DB	00H
	DB	00H
	DB	00H
	DB	00H
	DB	00H
	DB	00H
	DB	00H
	DB	00H
	DB	00H
	DB	00H
	DB	00H
	DB	00H
	DB	00H
	DB	00H
	DB	00H
	DB	00H
	DB	00H
	DB	00H
	DB	00H
	DB	00H
	DB	00H
	DB	00H
	DB	00H
	DB	00H
	DB	00H
	DB	00H
	DB	00H
	DB	00H
	DB	00H
	DB	00H
	DB	00H
	DB	00H
	DB	00H
	DB	00H
	DB	00H
	DB	00H
	DB	00H
	DB	00H
	DB	00H
	DB	00H
	DB	00H
	DB	00H
	DB	00H
	DB	00H
	DB	00H
	DB	00H
	DB	00H
	DB	00H
	DB	00H
	DB	00H
	DB	00H
	DB	00H
	DB	00H
	DB	00H
	DB	00H
	DB	00H
	DB	00H
	DB	00H
	DB	00H
	DB	00H
	DB	00H
	DB	00H
	DB	00H
	DB	00H
	DB	00H
	DB	00H
	DB	00H
	DB	00H
	DB	00H
	DB	00H
	DB	00H
	DB	00H
	DB	00H
	DB	00H
	DB	00H
	DB	00H
	DB	00H
	DB	00H
	DB	00H
	DB	00H
	DB	00H
	DB	00H
	DB	00H
	DB	00H
	DB	00H
	DB	00H
	DB	00H
	DB	00H
	DB	00H
	DB	00H
	DB	00H
	DB	00H
	DB	00H
	DB	00H
	DB	00H
	DB	00H
	DB	00H
	DB	00H
	DB	00H
	DB	00H
	DB	00H
	DB	00H
	DB	00H
	DB	00H
	DB	00H
	DB	00H
	DB	00H
	DB	00H
	DB	00H
	DB	00H
	DB	00H
	DB	00H
	DB	00H
	DB	00H
	DB	00H
	DB	00H
	DB	00H
	DB	00H
	DB	00H
	DB	00H
	DB	00H
	DB	00H
	DB	00H
	DB	00H
	DB	00H
	DB	00H
	DB	00H
	DB	00H
	DB	00H
	DB	00H
	DB	00H
	DB	00H
	DB	00H
	DB	00H
	DB	00H
	DB	00H
	DB	00H
	DB	00H
	DB	00H
	DB	00H
	DB	00H
	DB	00H
	DB	00H
	DB	00H
	DB	00H
	DB	00H
	DB	00H
	DB	00H
	DB	00H
	DB	00H
	DB	00H
	DB	00H
	DB	00H
	DB	00H
	DB	00H
	DB	00H
	DB	00H
	DB	00H
	DB	00H
	DB	00H
	DB	00H
	DB	00H
	DB	00H
	DB	00H
	DB	00H
	DB	00H
	DB	00H
	DB	00H
	DB	00H
	DB	00H
	DB	00H
	DB	00H
	DB	00H
	DB	00H
	DB	00H
	DB	00H
	DB	00H
	DB	00H
	DB	00H
	DB	00H
	DB	00H
	DB	00H
	DB	00H
	DB	00H
	DB	00H
	DB	00H
	DB	00H
	DB	00H
	DB	00H
	DB	00H
	DB	00H
	DB	00H
	DB	00H
	DB	00H
	DB	00H
	DB	00H
	DB	00H
	DB	00H
	DB	00H
	DB	00H
	DB	00H
	DB	00H
	DB	00H
	DB	00H
	DB	00H
	DB	00H
	DB	00H
	DB	00H
	DB	00H
	DB	00H
	DB	00H
	DB	00H
	DB	00H
	DB	00H
	DB	00H
	DB	00H
	DB	00H
	DB	00H
	DB	00H
	DB	00H
	DB	00H
	DB	00H
	DB	00H
	DB	00H
	DB	00H
	DB	00H
	DB	00H
	DB	00H
	DB	00H
	DB	00H
	DB	00H
	DB	00H
	DB	00H
	DB	00H
	DB	00H
	DB	00H
	DB	00H
	DB	00H
	DB	00H
	DB	00H
	DB	00H
	DB	00H
	DB	00H
	DB	00H
	DB	00H
	DB	00H
	DB	00H
	DB	00H
	DB	00H
	DB	00H
	DB	00H
	DB	00H
	DB	00H
	DB	00H
	DB	00H
	DB	00H
	DB	00H
	DB	00H
	DB	00H
	DB	00H
	DB	00H
	DB	00H
	DB	00H
	DB	00H
	DB	00H
	DB	00H
	DB	00H
	DB	00H
	DB	00H
	DB	00H
	DB	00H
	DB	00H
	DB	00H
	DB	00H
	DB	00H
	DB	00H
	DB	00H
	DB	00H
	DB	00H
	DB	00H
	DB	00H
	DB	00H
	DB	00H
	DB	00H
	DB	00H
	DB	00H
	DB	00H
	DB	00H
	DB	00H
	DB	00H
	DB	00H
	DB	00H
	DB	00H
	DB	00H
	DB	00H
	DB	00H
	DB	00H
	DB	00H
	DB	00H
	DB	00H
	DB	00H
	DB	00H
	DB	00H
	DB	00H
	DB	00H
	DB	00H
	DB	00H
	DB	00H
	DB	00H
	DB	00H
	DB	00H
	DB	00H
	DB	00H
	DB	00H
	DB	00H
	DB	00H
	DB	00H
	DB	00H
	DB	00H
	DB	00H
	DB	00H
	DB	00H
	DB	00H
	DB	00H
	DB	00H
	DB	00H
	DB	00H
	DB	00H
	DB	00H
	DB	00H
	DB	00H
	DB	00H
	DB	00H
	DB	00H
	DB	00H
	DB	00H
	DB	00H
	DB	00H
	DB	00H
	DB	00H
	DB	00H
	DB	00H
	DB	00H
	DB	00H
	DB	00H
	DB	00H
	DB	00H
	DB	00H
	DB	00H
	DB	00H
	DB	00H
	DB	00H
	DB	00H
	DB	00H
	DB	00H
	DB	00H
	DB	00H
	DB	00H
	DB	00H
	DB	00H
	DB	00H
	DB	00H
	DB	00H
	DB	00H
	DB	00H
	DB	00H
	DB	00H
	DB	00H
	DB	00H
	DB	00H
	DB	00H
	DB	00H
	DB	00H
	DB	00H
	DB	00H
	DB	00H
	DB	00H
	DB	00H
	DB	00H
	DB	00H
	DB	00H
	DB	00H
	DB	00H
	DB	00H
	DB	00H
	DB	00H
	DB	00H
	DB	00H
	DB	00H
	DB	00H
	DB	00H
	DB	00H
	DB	00H
	DB	00H
	DB	00H
	DB	00H
	DB	00H
	DB	00H
	DB	00H
	DB	00H
	DB	00H
	DB	00H
	DB	00H
	DB	00H
	DB	00H
	DB	00H
	DB	00H
	DB	00H
	DB	00H
	DB	00H
	DB	00H
	DB	00H
	DB	00H
	DB	00H
	DB	00H
	DB	00H
	DB	00H
	DB	00H
	DB	00H
	DB	00H
	DB	00H
	DB	00H
	DB	00H
	DB	00H
	DB	00H
	DB	00H
	DB	00H
	DB	00H
	DB	00H
	DB	00H
	DB	00H
	DB	00H
	DB	00H
	DB	00H
	DB	00H
	DB	00H
	DB	00H
	DB	00H
	DB	00H
	DB	00H
	DB	00H
	DB	00H
	DB	00H
	DB	00H
	DB	00H
	DB	00H
	DB	00H
	DB	00H
	DB	00H
	DB	00H
	DB	00H
	DB	00H
	DB	00H
	DB	00H
	DB	00H
	DB	00H
	DB	00H
	DB	00H
	DB	00H
	DB	00H
	DB	00H
	DB	00H
	DB	00H
	DB	00H
	DB	00H
	DB	00H
	DB	00H
	DB	00H
	DB	00H
	DB	00H
	DB	00H
	DB	00H
	DB	00H
	DB	00H
	DB	00H
	DB	00H
	DB	00H
	DB	00H
	DB	00H
	DB	00H
	DB	00H
	DB	00H
	DB	00H
	DB	00H
	DB	00H
	DB	00H
	DB	00H
	DB	00H
	DB	00H
	DB	00H
	DB	00H
	DB	00H
	DB	00H
	DB	00H
	DB	00H
	DB	00H
	DB	00H
	DB	00H
	DB	00H
	DB	00H
	DB	00H
	DB	00H
	DB	00H
	DB	00H
	DB	00H
	DB	00H
	DB	00H
	DB	00H
	DB	00H
	DB	00H
	DB	00H
	DB	00H
	DB	00H
	DB	00H
	DB	00H
	DB	00H
	DB	00H
	DB	00H
	DB	00H
	DB	00H
	DB	00H
	DB	00H
	DB	00H
	DB	00H
	DB	00H
	DB	00H
	DB	00H
	DB	00H
	DB	00H
	DB	00H
	DB	00H
	DB	00H
	DB	00H
	DB	00H
	DB	00H
	DB	00H
	DB	00H
	DB	00H
	DB	00H
	DB	00H
	DB	00H
	DB	00H
	DB	00H
	DB	00H
	DB	00H
	DB	00H
	DB	00H
	DB	00H
	DB	00H
	DB	00H
	DB	00H
	DB	00H
	DB	00H
	DB	00H
	DB	00H
	DB	00H
	DB	00H
	DB	00H
	DB	00H
	DB	00H
	DB	00H
	DB	00H
	DB	00H
	DB	00H
	DB	00H
	DB	00H
	DB	00H
	DB	00H
	DB	00H
	DB	00H
	DB	00H
	DB	00H
	DB	00H
	DB	00H
	DB	00H
	DB	00H
	DB	00H
	DB	00H
	DB	00H
	DB	00H
	DB	00H
	DB	00H
	DB	00H
	DB	00H
	DB	00H
	DB	00H
	DB	00H
	DB	00H
	DB	00H
	DB	00H
	DB	00H
	DB	00H
	DB	00H
	DB	00H
	DB	00H
	DB	00H
	DB	00H
	DB	00H
	DB	00H
	DB	00H
	DB	00H
	DB	00H
	DB	00H
	DB	00H
	DB	00H
	DB	00H
	DB	00H
	DB	00H
	DB	00H
	DB	00H
	DB	00H
	DB	00H
	DB	00H
	DB	00H
	DB	00H
	DB	00H
	DB	00H
	DB	00H
	DB	00H
	DB	00H
	DB	00H
	DB	00H
	DB	00H
	DB	00H
	DB	00H
	DB	00H
	DB	00H
	DB	00H
	DB	00H
	DB	00H
	DB	00H
	DB	00H
	DB	00H
	DB	00H
	DB	00H
	DB	00H
	DB	00H
	DB	00H
	DB	00H
	DB	00H
	DB	00H
	DB	00H
	DB	00H
	DB	00H
	DB	00H
	DB	00H
	DB	00H
	DB	00H
	DB	00H
	DB	00H
	DB	00H
	DB	00H
	DB	00H
	DB	00H
	DB	00H
	DB	00H
	DB	00H
	DB	00H
	DB	00H
	DB	00H
	DB	00H
	DB	00H
	DB	00H
	DB	00H
	DB	00H
	DB	00H
	DB	00H
	DB	00H
	DB	00H
	DB	00H
	DB	00H
	DB	00H
	DB	00H
	DB	00H
	DB	00H
	DB	00H
	DB	00H
	DB	00H
	DB	00H
	DB	00H
	DB	00H
	DB	00H
	DB	00H
	DB	00H
	DB	00H
	DB	00H
	DB	00H
	DB	00H
	DB	00H
	DB	00H
	DB	00H
	DB	00H
	DB	00H
	DB	00H
	DB	00H
	DB	00H
	DB	00H
	DB	00H
	DB	00H
	DB	00H
	DB	00H
	DB	00H
	DB	00H
	DB	00H
	DB	00H
	DB	00H
	DB	00H
	DB	00H
	DB	00H
	DB	00H
	DB	00H
	DB	00H
	DB	00H
	DB	00H
	DB	00H
	DB	00H
	DB	00H
	DB	00H
	DB	00H
	DB	00H
	DB	00H
	DB	00H
	DB	00H
	DB	00H
	DB	00H
	DB	00H
	DB	00H
	DB	00H
	DB	00H
	DB	00H
	DB	00H
	DB	00H
	DB	00H
	DB	00H
	DB	00H
	DB	00H
	DB	00H
	DB	00H
	DB	00H
	DB	00H
	DB	00H
	DB	00H
	DB	00H
	DB	00H
	DB	00H
	DB	00H
	DB	00H
	DB	00H
	DB	00H
	DB	00H
	DB	00H
	DB	00H
	DB	00H
	DB	00H
	DB	00H
	DB	00H
	DB	00H
	DB	00H
	DB	00H
	DB	00H
	DB	00H
	DB	00H
	DB	00H
	DB	00H
	DB	00H
	DB	00H
	DB	00H
	DB	00H
	DB	00H
	DB	00H
	DB	00H
	DB	00H
	DB	00H
	DB	00H
	DB	00H
	DB	00H
	DB	00H
	DB	00H
	DB	00H
	DB	00H
	DB	00H
	DB	00H
	DB	00H
	DB	00H
	DB	00H
	DB	00H
	DB	00H
	DB	00H
	DB	00H
	DB	00H
	DB	00H
	DB	00H
	DB	00H
	DB	00H
	DB	00H
	DB	00H
	DB	00H
	DB	00H
	DB	00H
	DB	00H
	DB	00H
	DB	00H
	DB	00H
	DB	00H
	DB	00H
	DB	00H
	DB	00H
	DB	00H
	DB	00H
	DB	00H
	DB	00H
	DB	00H
	DB	00H
	DB	00H
	DB	00H
	DB	00H
	DB	00H
	DB	00H
	DB	00H
	DB	00H
	DB	00H
	DB	00H
	DB	00H
	DB	00H
	DB	00H
	DB	00H
	DB	00H
	DB	00H
	DB	00H
	DB	00H
	DB	00H
	DB	00H
	DB	00H
	DB	00H
	DB	00H
	DB	00H
	DB	00H
	DB	00H
	DB	00H
	DB	00H
	DB	00H
	DB	00H
	DB	00H
	DB	00H
	DB	00H
	DB	00H
	DB	00H
	DB	00H
	DB	00H
	DB	00H
	DB	00H
	DB	00H
	DB	00H
	DB	00H
	DB	00H
	DB	00H
	DB	00H
	DB	00H
	DB	00H
	DB	00H
	DB	00H
	DB	00H
	DB	00H
	DB	00H
	DB	00H
	DB	00H
	DB	00H
	DB	00H
	DB	00H
	DB	00H
	DB	00H
	DB	00H
	DB	00H
	DB	00H
	DB	00H
	DB	00H
	DB	00H
	DB	00H
	DB	00H
	DB	00H
	DB	00H
	DB	00H
	DB	00H
	DB	00H
	DB	00H
	DB	00H
	DB	00H
	DB	00H
	DB	00H
	DB	00H
	DB	00H
	DB	00H
	DB	00H
	DB	00H
	DB	00H
	DB	00H
	DB	00H
	DB	00H
	DB	00H
	DB	00H
	DB	00H
	DB	00H
	DB	00H
	DB	00H
	DB	00H
	DB	00H
	DB	00H
	DB	00H
	DB	00H
	DB	00H
	DB	00H
	DB	00H
	DB	00H
	DB	00H
	DB	00H
	DB	00H
	DB	00H
	DB	00H
	DB	00H
	DB	00H
	DB	00H
	DB	00H
	DB	00H
	DB	00H
	DB	00H
	DB	00H
	DB	00H
	DB	00H
	DB	00H
	DB	00H
	DB	00H
	DB	00H
	DB	00H
	DB	00H
	DB	00H
	DB	00H
	DB	00H
	DB	00H
	DB	00H
	DB	00H
	DB	00H
	DB	00H
	DB	00H
	DB	00H
	DB	00H
	DB	00H
	DB	00H
	DB	00H
	DB	00H
	DB	00H
	DB	00H
	DB	00H
	DB	00H
	DB	00H
	DB	00H
	DB	00H
	DB	00H
	DB	00H
	DB	00H
	DB	00H
	DB	00H
	DB	00H
	DB	00H
	DB	00H
	DB	00H
	DB	00H
	DB	00H
	DB	00H
	DB	00H
	DB	00H
	DB	00H
	DB	00H
	DB	00H
	DB	00H
	DB	00H
	DB	00H
	DB	00H
	DB	00H
	DB	00H
	DB	00H
	DB	00H
	DB	00H
	DB	00H
	DB	00H
	DB	00H
	DB	00H
	DB	00H
	DB	00H
	DB	00H
	DB	00H
	DB	00H
	DB	00H
	DB	00H
	DB	00H
	DB	00H
	DB	00H
	DB	00H
	DB	00H
	DB	00H
	DB	00H
	DB	00H
	DB	00H
	DB	00H
	DB	00H
	DB	00H
	DB	00H
	DB	00H
	DB	00H
	DB	00H
	DB	00H
	DB	00H
	DB	00H
	DB	00H
	DB	00H
	DB	00H
	DB	00H
	DB	00H
	DB	00H
	DB	00H
	DB	00H
	DB	00H
	DB	00H
	DB	00H
	DB	00H
	DB	00H
	DB	00H
	DB	00H
	DB	00H
	DB	00H
	DB	00H
	DB	00H
	DB	00H
	DB	00H
	DB	00H
	DB	00H
	DB	00H
	DB	00H
	DB	00H
	DB	00H
	DB	00H
	DB	00H
	DB	00H
	DB	00H
	DB	00H
	DB	00H
	DB	00H
	DB	00H
	DB	00H
	DB	00H
	DB	00H
	DB	00H
	DB	00H
	DB	00H
	DB	00H
	DB	00H
	DB	00H
	DB	00H
	DB	00H
	DB	00H
	DB	00H
	DB	00H
	DB	00H
	DB	00H
	DB	00H
	DB	00H
	DB	00H
	DB	00H
	DB	00H
	DB	00H
	DB	00H
	DB	00H
	DB	00H
	DB	00H
	DB	00H
	DB	00H
	DB	00H
	DB	00H
	DB	00H
	DB	00H
	DB	00H
	DB	00H
	DB	00H
	DB	00H
	DB	00H
	DB	00H
	DB	00H
	DB	00H
	DB	00H
	DB	00H
	DB	00H
	DB	00H
	DB	00H
	DB	00H
	DB	00H
	DB	00H
	DB	00H
	DB	00H
	DB	00H
	DB	00H
	DB	00H
	DB	00H
	DB	00H
	DB	00H
	DB	00H
	DB	00H
	DB	00H
	DB	00H
	DB	00H
	DB	00H
	DB	00H
	DB	00H
	DB	00H
	DB	00H
	DB	00H
	DB	00H
	DB	00H
	DB	00H
	DB	00H
	DB	00H
	DB	00H
	DB	00H
	DB	00H
	DB	00H
	DB	00H
	DB	00H
	DB	00H
	DB	00H
	DB	00H
	DB	00H
	DB	00H
	DB	00H
	DB	00H
	DB	00H
	DB	00H
	DB	00H
	DB	00H
	DB	00H
	DB	00H
	DB	00H
	DB	00H
	DB	00H
	DB	00H
	DB	00H
	DB	00H
	DB	00H
	DB	00H
	DB	00H
	DB	00H
	DB	00H
	DB	00H
	DB	00H
	DB	00H
	DB	00H
	DB	00H
	DB	00H
	DB	00H
	DB	00H
	DB	00H
	DB	00H
	DB	00H
	DB	00H
	DB	00H
	DB	00H
	DB	00H
	DB	00H
	DB	00H
	DB	00H
	DB	00H
	DB	00H
	DB	00H
	DB	00H
	DB	00H
	DB	00H
	DB	00H
	DB	00H
	DB	00H
	DB	00H
	DB	00H
	DB	00H
	DB	00H
	DB	00H
	DB	00H
	DB	00H
	DB	00H
	DB	00H
	DB	00H
	DB	00H
	DB	00H
	DB	00H
	DB	00H
	DB	00H
	DB	00H
	DB	00H
	DB	00H
	DB	00H
	DB	00H
	DB	00H
	DB	00H
	DB	00H
	DB	00H
	DB	00H
	DB	00H
	DB	00H
	DB	00H
	DB	00H
	DB	00H
	DB	00H
	DB	00H
	DB	00H
	DB	00H
	DB	00H
	DB	00H
	DB	00H
	DB	00H
	DB	00H
	DB	00H
	DB	00H
	DB	00H
	DB	00H
	DB	00H
	DB	00H
	DB	00H
	DB	00H
	DB	00H
	DB	00H
	DB	00H
	DB	00H
	DB	00H
	DB	00H
	DB	00H
	DB	00H
	DB	00H
	DB	00H
	DB	00H
	DB	00H
	DB	00H
	DB	00H
	DB	00H
	DB	00H
	DB	00H
	DB	00H
	DB	00H
	DB	00H
	DB	00H
	DB	00H
	DB	00H
	DB	00H
	DB	00H
	DB	00H
	DB	00H
	DB	00H
	DB	00H
	DB	00H
	DB	00H
	DB	00H
	DB	00H
	DB	00H
	DB	00H
	DB	00H
	DB	00H
	DB	00H
	DB	00H
	DB	00H
	DB	00H
	DB	00H
	DB	00H
	DB	00H
	DB	00H
	DB	00H
	DB	00H
	DB	00H
	DB	00H
	DB	00H
	DB	00H
	DB	00H
	DB	00H
	DB	00H
	DB	00H
	DB	00H
	DB	00H
	DB	00H
	DB	00H
	DB	00H
	DB	00H
	DB	00H
	DB	00H
	DB	00H
	DB	00H
	DB	00H
	DB	00H
	DB	00H
	DB	00H
	DB	00H
	DB	00H
	DB	00H
	DB	00H
	DB	00H
	DB	00H
	DB	00H
	DB	00H
	DB	00H
	DB	00H
	DB	00H
	DB	00H
	DB	00H
	DB	00H
	DB	00H
	DB	00H
	DB	00H
	DB	00H
	DB	00H
	DB	00H
	DB	00H
	DB	00H
	DB	00H
	DB	00H
	DB	00H
	DB	00H
	DB	00H
	DB	00H
	DB	00H
	DB	00H
	DB	00H
	DB	00H
	DB	00H
	DB	00H
	DB	00H
	DB	00H
	DB	00H
	DB	00H
	DB	00H
	DB	00H
	DB	00H
	DB	00H
	DB	00H
	DB	00H
	DB	00H
	DB	00H
	DB	00H
	DB	00H
	DB	00H
	DB	00H
	DB	00H
	DB	00H
	DB	00H
	DB	00H
	DB	00H
	DB	00H
	DB	00H
	DB	00H
	DB	00H
	DB	00H
	DB	00H
	DB	00H
	DB	00H
	DB	00H
	DB	00H
	DB	00H
	DB	00H
	DB	00H
	DB	00H
	DB	00H
	DB	00H
	DB	00H
	DB	00H
	DB	00H
	DB	00H
	DB	00H
	DB	00H
	DB	00H
	DB	00H
	DB	00H
	DB	00H
	DB	00H
	DB	00H
	DB	00H
	DB	00H
	DB	00H
	DB	00H
	DB	00H
	DB	00H
	DB	00H
	DB	00H
	DB	00H
	DB	00H
	DB	00H
	DB	00H
	DB	00H
	DB	00H
	DB	00H
	DB	00H
	DB	00H
	DB	00H
	DB	00H
	DB	00H
	DB	00H
	DB	00H
	DB	00H
	DB	00H
	DB	00H
	DB	00H
	DB	00H
	DB	00H
	DB	00H
	DB	00H
	DB	00H
	DB	00H
	DB	00H
	DB	00H
	DB	00H
	DB	00H
	DB	00H
	DB	00H
	DB	00H
	DB	00H
	DB	00H
	DB	00H
	DB	00H
	DB	00H
	DB	00H
	DB	00H
	DB	00H
	DB	00H
	DB	00H
	DB	00H
	DB	00H
	DB	00H
	DB	00H
	DB	00H
	DB	00H
	DB	00H
	DB	00H
	DB	00H
	DB	00H
	DB	00H
	DB	00H
	DB	00H
	DB	00H
	DB	00H
	DB	00H
	DB	00H
	DB	00H
	DB	00H
	DB	00H
	DB	00H
	DB	00H
	DB	00H
	DB	00H
	DB	00H
	DB	00H
	DB	00H
	DB	00H
	DB	00H
	DB	00H
	DB	00H
	DB	00H
	DB	00H
	DB	00H
	DB	00H
	DB	00H
	DB	00H
	DB	00H
	DB	00H
	DB	00H
	DB	00H
	DB	00H
	DB	00H
	DB	00H
	DB	00H
	DB	00H
	DB	00H
	DB	00H
	DB	00H
	DB	00H
	DB	00H
	DB	00H
	DB	00H
	DB	00H
	DB	00H
	DB	00H
	DB	00H
	DB	00H
	DB	00H
	DB	00H
	DB	00H
	DB	00H
	DB	00H
	DB	00H
	DB	00H
	DB	00H
	DB	00H
	DB	00H
	DB	00H
	DB	00H
	DB	00H
	DB	00H
	DB	00H
	DB	00H
	DB	00H
	DB	00H
	DB	00H
	DB	00H
	DB	00H
	DB	00H
	DB	00H
	DB	00H
	DB	00H
	DB	00H
	DB	00H
	DB	00H
	DB	00H
	DB	00H
	DB	00H
	DB	00H
	DB	00H
	DB	00H
	DB	00H
	DB	00H
	DB	00H
	DB	00H
	DB	00H
	DB	00H
	DB	00H
	DB	00H
	DB	00H
	DB	00H
	DB	00H
	DB	00H
	DB	00H
	DB	00H
	DB	00H
	DB	00H
	DB	00H
	DB	00H
	DB	00H
	DB	00H
	DB	00H
	DB	00H
	DB	00H
	DB	00H
	DB	00H
	DB	00H
	DB	00H
	DB	00H
	DB	00H
	DB	00H
	DB	00H
	DB	00H
	DB	00H
	DB	00H
	DB	00H
	DB	00H
	DB	00H
	DB	00H
	DB	00H
	DB	00H
	DB	00H
	DB	00H
	DB	00H
	DB	00H
	DB	00H
	DB	00H
	DB	00H
	DB	00H
	DB	00H
	DB	00H
	DB	00H
	DB	00H
	DB	00H
	DB	00H
	DB	00H
	DB	00H
	DB	00H
	DB	00H
	DB	00H
	DB	00H
	DB	00H
	DB	00H
	DB	00H
	DB	00H
	DB	00H
	DB	00H
	DB	00H
	DB	00H
	DB	00H
	DB	00H
	DB	00H
	DB	00H
	DB	00H
	DB	00H
	DB	00H
	DB	00H
	DB	00H
	DB	00H
	DB	00H
	DB	00H
	DB	00H
	DB	00H
	DB	00H
	DB	00H
	DB	00H
	DB	00H
	DB	00H
	DB	00H
	DB	00H
	DB	00H
	DB	00H
	DB	00H
	DB	00H
	DB	00H
	DB	00H
	DB	00H
	DB	00H
	DB	00H
	DB	00H
	DB	00H
	DB	00H
	DB	00H
	DB	00H
	DB	00H
	DB	00H
	DB	00H
	DB	00H
	DB	00H
	DB	00H
	DB	00H
	DB	00H
	DB	00H
	DB	00H
	DB	00H
	DB	00H
	DB	00H
	DB	00H
	DB	00H
	DB	00H
	DB	00H
	DB	00H
	DB	00H
	DB	00H
	DB	00H
	DB	00H
	DB	00H
	DB	00H
	DB	00H
	DB	00H
	DB	00H
	DB	00H
	DB	00H
	DB	00H
	DB	00H
	DB	00H
	DB	00H
	DB	00H
	DB	00H
	DB	00H
	DB	00H
	DB	00H
	DB	00H
	DB	00H
	DB	00H
	DB	00H
	DB	00H
	DB	00H
	DB	00H
	DB	00H
	DB	00H
	DB	00H
	DB	00H
	DB	00H
	DB	00H
	DB	00H
	DB	00H
	DB	00H
	DB	00H
	DB	00H
	DB	00H
	DB	00H
	DB	00H
	DB	00H
	DB	00H
	DB	00H
	DB	00H
	DB	00H
	DB	00H
	DB	00H
	DB	00H
	DB	00H
	DB	00H
	DB	00H
	DB	00H
	DB	00H
	DB	00H
	DB	00H
	DB	00H
	DB	00H
	DB	00H
	DB	00H
	DB	00H
	DB	00H
	DB	00H
	DB	00H
	DB	00H
	DB	00H
	DB	00H
	DB	00H
	DB	00H
	DB	00H
	DB	00H
	DB	00H
	DB	00H
	DB	00H
	DB	00H
	DB	00H
	DB	00H
	DB	00H
	DB	00H
	DB	00H
	DB	00H
	DB	00H
	DB	00H
	DB	00H
	DB	00H
	DB	00H
	DB	00H
	DB	00H
	DB	00H
	DB	00H
	DB	00H
	DB	00H
	DB	00H
	DB	00H
	DB	00H
	DB	00H
	DB	00H
	DB	00H
	DB	00H
	DB	00H
	DB	00H
	DB	00H
	DB	00H
	DB	00H
	DB	00H
	DB	00H
	DB	00H
	DB	00H
	DB	00H
	DB	00H
	DB	00H
	DB	00H
	DB	00H
	DB	00H
	DB	00H
	DB	00H
	DB	00H
	DB	00H
	DB	00H
	DB	00H
	DB	00H
	DB	00H
	DB	00H
	DB	00H
	DB	00H
	DB	00H
	DB	00H
	DB	00H
	DB	00H
	DB	00H
	DB	00H
	DB	00H
	DB	00H
	DB	00H
	DB	00H
	DB	00H
	DB	00H
	DB	00H
	DB	00H
	DB	00H
	DB	00H
	DB	00H
	DB	00H
	DB	00H
	DB	00H
	DB	00H
	DB	00H
	DB	00H
	DB	00H
	DB	00H
	DB	00H
	DB	00H
	DB	00H
	DB	00H
	DB	00H
	DB	00H
	DB	00H
	DB	00H
	DB	00H
	DB	00H
	DB	00H
	DB	00H
	DB	00H
	DB	00H
	DB	00H
	DB	00H
	DB	00H
	DB	00H
	DB	00H
	DB	00H
	DB	00H
	DB	00H
	DB	00H
	DB	00H
	DB	00H
	DB	00H
	DB	00H
	DB	00H
	DB	00H
	DB	00H
	DB	00H
	DB	00H
	DB	00H
	DB	00H
	DB	00H
	DB	00H
	DB	00H
	DB	00H
	DB	00H
	DB	00H
	DB	00H
	DB	00H
	DB	00H
	DB	00H
	DB	00H
	DB	00H
	DB	00H
	DB	00H
	DB	00H
	DB	00H
	DB	00H
	DB	00H
	DB	00H
	DB	00H
	DB	00H
	DB	00H
	DB	00H
	DB	00H
	DB	00H
	DB	00H
	DB	00H
	DB	00H
	DB	00H
	DB	00H
	DB	00H
	DB	00H
	DB	00H
	DB	00H
	DB	00H
	DB	00H
	DB	00H
	DB	00H
	DB	00H
	DB	00H
	DB	00H
	DB	00H
	DB	00H
	DB	00H
	DB	00H
	DB	00H
	DB	00H
	DB	00H
	DB	00H
	DB	00H
	DB	00H
	DB	00H
	DB	00H
	DB	00H
	DB	00H
	DB	00H
	DB	00H
	DB	00H
	DB	00H
	DB	00H
	DB	00H
	DB	00H
	DB	00H
	DB	00H
	DB	00H
	DB	00H
	DB	00H
	DB	00H
	DB	00H
	DB	00H
	DB	00H
	DB	00H
	DB	00H
	DB	00H
	DB	00H
	DB	00H
	DB	00H
	DB	00H
	DB	00H
	DB	00H
	DB	00H
	DB	00H
	DB	00H
	DB	00H
	DB	00H
	DB	00H
	DB	00H
	DB	00H
	DB	00H
	DB	00H
	DB	00H
	DB	00H
	DB	00H
	DB	00H
	DB	00H
	DB	00H
	DB	00H
	DB	00H
	DB	00H
	DB	00H
	DB	00H
	DB	00H
	DB	00H
	DB	00H
	DB	00H
	DB	00H
	DB	00H
	DB	00H
	DB	00H
	DB	00H
	DB	00H
	DB	00H
	DB	00H
	DB	00H
	DB	00H
	DB	00H
	DB	00H
	DB	00H
	DB	00H
	DB	00H
	DB	00H
	DB	00H
	DB	00H
	DB	00H
	DB	00H
	DB	00H
	DB	00H
	DB	00H
	DB	00H
	DB	00H
	DB	00H
	DB	00H
	DB	00H
	DB	00H
	DB	00H
	DB	00H
	DB	00H
	DB	00H
	DB	00H
	DB	00H
	DB	00H
	DB	00H
	DB	00H
	DB	00H
	DB	00H
	DB	00H
	DB	00H
	DB	00H
	DB	00H
	DB	00H
	DB	00H
	DB	00H
	DB	00H
	DB	00H
	DB	00H
	DB	00H
	DB	00H
	DB	00H
	DB	00H
	DB	00H
	DB	00H
	DB	00H
	DB	00H
	DB	00H
	DB	00H
	DB	00H
	DB	00H
	DB	00H
	DB	00H
	DB	00H
	DB	00H
	DB	00H
	DB	00H
	DB	00H
	DB	00H
	DB	00H
	DB	00H
	DB	00H
	DB	00H
	DB	00H
	DB	00H
	DB	00H
	DB	00H
	DB	00H
	DB	00H
	DB	00H
	DB	00H
	DB	00H
	DB	00H
	DB	00H
	DB	00H
	DB	00H
	DB	00H
	DB	00H
	DB	00H
	DB	00H
	DB	00H
	DB	00H
	DB	00H
	DB	00H
	DB	00H
	DB	00H
	DB	00H
	DB	00H
	DB	00H
	DB	00H
	DB	00H
	DB	00H
	DB	00H
	DB	00H
	DB	00H
	DB	00H
	DB	00H
	DB	00H
	DB	00H
	DB	00H
	DB	00H
	DB	00H
	DB	00H
	DB	00H
	DB	00H
	DB	00H
	DB	00H
	DB	00H
	DB	00H
	DB	00H
	DB	00H
	DB	00H
	DB	00H
	DB	00H
	DB	00H
	DB	00H
	DB	00H
	DB	00H
	DB	00H
	DB	00H
	DB	00H
	DB	00H
	DB	00H
	DB	00H
	DB	00H
	DB	00H
	DB	00H
	DB	00H
	DB	00H
	DB	00H
	DB	00H
	DB	00H
	DB	00H
	DB	00H
	DB	00H
	DB	00H
	DB	00H
	DB	00H
	DB	00H
	DB	00H
	DB	00H
	DB	00H
	DB	00H
	DB	00H
	DB	00H
	DB	00H
	DB	00H
	DB	00H
	DB	00H
	DB	00H
	DB	00H
	DB	00H
	DB	00H
	DB	00H
	DB	00H
	DB	00H
	DB	00H
	DB	00H
	DB	00H
	DB	00H
	DB	00H
	DB	00H
	DB	00H
	DB	00H
	DB	00H
	DB	00H
	DB	00H
	DB	00H
	DB	00H
	DB	00H
	DB	00H
	DB	00H
	DB	00H
	DB	00H
	DB	00H
	DB	00H
	DB	00H
	DB	00H
	DB	00H
	DB	00H
	DB	00H
	DB	00H
	DB	00H
	DB	00H
	DB	00H
	DB	00H
	DB	00H
	DB	00H
	DB	00H
	DB	00H
	DB	00H
	DB	00H
	DB	00H
	DB	00H
	DB	00H
	DB	00H
	DB	00H
	DB	00H
	DB	00H
	DB	00H
	DB	00H
	DB	00H
	DB	00H
	DB	00H
	DB	00H
	DB	00H
	DB	00H
	DB	00H
	DB	00H
	DB	00H
	DB	00H
	DB	00H
	DB	00H
	DB	00H
	DB	00H
	DB	00H
	DB	00H
	DB	00H
	DB	00H
	DB	00H
	DB	00H
	DB	00H
	DB	00H
	DB	00H
	DB	00H
	DB	00H
	DB	00H
	DB	00H
	DB	00H
	DB	00H
	DB	00H
	DB	00H
	DB	00H
	DB	00H
	DB	00H
	DB	00H
	DB	00H
	DB	00H
	DB	00H
	DB	00H
	DB	00H
	DB	00H
	DB	00H
	DB	00H
	DB	00H
	DB	00H
	DB	00H
	DB	00H
	DB	00H
	DB	00H
	DB	00H
	DB	00H
	DB	00H
	DB	00H
	DB	00H
	DB	00H
	DB	00H
	DB	00H
	DB	00H
	DB	00H
	DB	00H
	DB	00H
	DB	00H
	DB	00H
	DB	00H
	DB	00H
	DB	00H
	DB	00H
	DB	00H
	DB	00H
	DB	00H
	DB	00H
	DB	00H
	DB	00H
	DB	00H
	DB	00H
	DB	00H
	DB	00H
	DB	00H
	DB	00H
	DB	00H
	DB	00H
	DB	00H
	DB	00H
	DB	00H
	DB	00H
	DB	00H
	DB	00H
	DB	00H
	DB	00H
	DB	00H
	DB	00H
	DB	00H
	DB	00H
	DB	00H
	DB	00H
	DB	00H
	DB	00H
	DB	00H
	DB	00H
	DB	00H
	DB	00H
	DB	00H
	DB	00H
	DB	00H
	DB	00H
	DB	00H
	DB	00H
	DB	00H
	DB	00H
	DB	00H
	DB	00H
	DB	00H
	DB	00H
	DB	00H
	DB	00H
	DB	00H
	DB	00H
	DB	00H
	DB	00H
	DB	00H
	DB	00H
	DB	00H
	DB	00H
	DB	00H
	DB	00H
	DB	00H
	DB	00H
	DB	00H
	DB	00H
	DB	00H
	DB	00H
	DB	00H
	DB	00H
	DB	00H
	DB	00H
	DB	00H
	DB	00H
	DB	00H
	DB	00H
	DB	00H
	DB	00H
	DB	00H
	DB	00H
	DB	00H
	DB	00H
	DB	00H
	DB	00H
	DB	00H
	DB	00H
	DB	00H
	DB	00H
	DB	00H
	DB	00H
	DB	00H
	DB	00H
	DB	00H
	DB	00H
	DB	00H
	DB	00H
	DB	00H
	DB	00H
	DB	00H
	DB	00H
	DB	00H
	DB	00H
	DB	00H
	DB	00H
	DB	00H
	DB	00H
	DB	00H
	DB	00H
	DB	00H
	DB	00H
	DB	00H
	DB	00H
	DB	00H
	DB	00H
	DB	00H
	DB	00H
	DB	00H
	DB	00H
	DB	00H
	DB	00H
	DB	00H
	DB	00H
	DB	00H
	DB	00H
	DB	00H
	DB	00H
	DB	00H
	DB	00H
	DB	00H
	DB	00H
	DB	00H
	DB	00H
	DB	00H
	DB	00H
	DB	00H
	DB	00H
	DB	00H
	DB	00H
	DB	00H
	DB	00H
	DB	00H
	DB	00H
	DB	00H
	DB	00H
	DB	00H
	DB	00H
	DB	00H
	DB	00H
	DB	00H
	DB	00H
	DB	00H
	DB	00H
	DB	00H
	DB	00H
	DB	00H
	DB	00H
	DB	00H
	DB	00H
	DB	00H
	DB	00H
	DB	00H
	DB	00H
	DB	00H
	DB	00H
	DB	00H
	DB	00H
	DB	00H
	DB	00H
	DB	00H
	DB	00H
	DB	00H
	DB	00H
	DB	00H
	DB	00H
	DB	00H
	DB	00H
	DB	00H
	DB	00H
	DB	00H
	DB	00H
	DB	00H
	DB	00H
	DB	00H
	DB	00H
	DB	00H
	DB	00H
	DB	00H
	DB	00H
	DB	00H
	DB	00H
	DB	00H
	DB	00H
	DB	00H
	DB	00H
	DB	00H
	DB	00H
	DB	00H
	DB	00H
	DB	00H
	DB	00H
	DB	00H
	DB	00H
	DB	00H
	DB	00H
	DB	00H
	DB	00H
	DB	00H
	DB	00H
	DB	00H
	DB	00H
	DB	00H
	DB	00H
	DB	00H
	DB	00H
	DB	00H
	DB	00H
	DB	00H
	DB	00H
	DB	00H
	DB	00H
	DB	00H
	DB	00H
	DB	00H
	DB	00H
	DB	00H
	DB	00H
	DB	00H
	DB	00H
	DB	00H
	DB	00H
	DB	00H
	DB	00H
	DB	00H
	DB	00H
	DB	00H
	DB	00H
	DB	00H
	DB	00H
	DB	00H
	DB	00H
	DB	00H
	DB	00H
	DB	00H
	DB	00H
	DB	00H
	DB	00H
	DB	00H
	DB	00H
	DB	00H
	DB	00H
	DB	00H
	DB	00H
	DB	00H
	DB	00H
	DB	00H
	DB	00H
	DB	00H
	DB	00H
	DB	00H
	DB	00H
	DB	00H
	DB	00H
	DB	00H
	DB	00H
	DB	00H
	DB	00H
	DB	00H
	DB	00H
	DB	00H
	DB	00H
	DB	00H
	DB	00H
	DB	00H
	DB	00H
	DB	00H
	DB	00H
	DB	00H
	DB	00H
	DB	00H
	DB	00H
	DB	00H
	DB	00H
	DB	00H
	DB	00H
	DB	00H
	DB	00H
	DB	00H
	DB	00H
	DB	00H
	DB	00H
	DB	00H
	DB	00H
	DB	00H
	DB	00H
	DB	00H
	DB	00H
	DB	00H
	DB	00H
	DB	00H
	DB	00H
	DB	00H
	DB	00H
	DB	00H
	DB	00H
	DB	00H
	DB	00H
	DB	00H
	DB	00H
	DB	00H
	DB	00H
	DB	00H
	DB	00H
	DB	00H
	DB	00H
	DB	00H
	DB	00H
	DB	00H
	DB	00H
	DB	00H
	DB	00H
	DB	00H
	DB	00H
	DB	00H
	DB	00H
	DB	00H
	DB	00H
	DB	00H
	DB	00H
	DB	00H
	DB	00H
	DB	00H
	DB	00H
	DB	00H
	DB	00H
	DB	00H
	DB	00H
	DB	00H
	DB	00H
	DB	00H
	DB	00H
	DB	00H
	DB	00H
	DB	00H
	DB	00H
	DB	00H
	DB	00H
	DB	00H
	DB	00H
	DB	00H
	DB	00H
	DB	00H
	DB	00H
	DB	00H
	DB	00H
	DB	00H
	DB	00H
	DB	00H
	DB	00H
	DB	00H
	DB	00H
	DB	00H
	DB	00H
	DB	00H
	DB	00H
	DB	00H
	DB	00H
	DB	00H
	DB	00H
	DB	00H
	DB	00H
	DB	00H
	DB	00H
	DB	00H
	DB	00H
	DB	00H
	DB	00H
	DB	00H
	DB	00H
	DB	00H
	DB	00H
	DB	00H
	DB	00H
	DB	00H
	DB	00H
	DB	00H
	DB	00H
	DB	00H
	DB	00H
	DB	00H
	DB	00H
	DB	00H
	DB	00H
	DB	00H
	DB	00H
	DB	00H
	DB	00H
	DB	00H
	DB	00H
	DB	00H
	DB	00H
	DB	00H
	DB	00H
	DB	00H
	DB	00H
	DB	00H
	DB	00H
	DB	00H
	DB	00H
	DB	00H
	DB	00H
	DB	00H
	DB	00H
	DB	00H
	DB	00H
	DB	00H
	DB	00H
	DB	00H
	DB	00H
	DB	00H
	DB	00H
	DB	00H
	DB	00H
	DB	00H
	DB	00H
	DB	00H
	DB	00H
	DB	00H
	DB	00H
	DB	00H
	DB	00H
	DB	00H
	DB	00H
	DB	00H
	DB	00H
	DB	00H
	DB	00H
	DB	00H
	DB	00H
	DB	00H
	DB	00H
	DB	00H
	DB	00H
	DB	00H
	DB	00H
	DB	00H
	DB	00H
	DB	00H
	DB	00H
	DB	00H
	DB	00H
	DB	00H
	DB	00H
	DB	00H
	DB	00H
	DB	00H
	DB	00H
	DB	00H
	DB	00H
	DB	00H
	DB	00H
	DB	00H
	DB	00H
	DB	00H
	DB	00H
	DB	00H
	DB	00H
	DB	00H
	DB	00H
	DB	00H
	DB	00H
	DB	00H
	DB	00H
	DB	00H
	DB	00H
	DB	00H
	DB	00H
	DB	00H
	DB	00H
	DB	00H
	DB	00H
	DB	00H
	DB	00H
	DB	00H
	DB	00H
	DB	00H
	DB	00H
	DB	00H
	DB	00H
	DB	00H
	DB	00H
	DB	00H
	DB	00H
	DB	00H
	DB	00H
	DB	00H
	DB	00H
	DB	00H
	DB	00H
	DB	00H
	DB	00H
	DB	00H
	DB	00H
	DB	00H
	DB	00H
	DB	00H
	DB	00H
	DB	00H
	DB	00H
	DB	00H
	DB	00H
	DB	00H
	DB	00H
	DB	00H
	DB	00H
	DB	00H
	DB	00H
	DB	00H
	DB	00H
	DB	00H
	DB	00H
	DB	00H
	DB	00H
	DB	00H
	DB	00H
	DB	00H
	DB	00H
	DB	00H
	DB	00H
	DB	00H
	DB	00H
	DB	00H
	DB	00H
	DB	00H
	DB	00H
	DB	00H
	DB	00H
	DB	00H
	DB	00H
	DB	00H
	DB	00H
	DB	00H
	DB	00H
	DB	00H
	DB	00H
	DB	00H
	DB	00H
	DB	00H
	DB	00H
	DB	00H
	DB	00H
	DB	00H
	DB	00H
	DB	00H
	DB	00H
	DB	00H
	DB	00H
	DB	00H
	DB	00H
	DB	00H
	DB	00H
	DB	00H
	DB	00H
	DB	00H
	DB	00H
	DB	00H
	DB	00H
	DB	00H
	DB	00H
	DB	00H
	DB	00H
	DB	00H
	DB	00H
	DB	00H
	DB	00H
	DB	00H
	DB	00H
	DB	00H
	DB	00H
	DB	00H
	DB	00H
	DB	00H
	DB	00H
	DB	00H
	DB	00H
	DB	00H
	DB	00H
	DB	00H
	DB	00H
	DB	00H
	DB	00H
	DB	00H
	DB	00H
	DB	00H
	DB	00H
	DB	00H
	DB	00H
	DB	00H
	DB	00H
	DB	00H
	DB	00H
	DB	00H
	DB	00H
	DB	00H
	DB	00H
	DB	00H
	DB	00H
	DB	00H
	DB	00H
	DB	00H
	DB	00H
	DB	00H
	DB	00H
	DB	00H
	DB	00H
	DB	00H
	DB	00H
	DB	00H
	DB	00H
	DB	00H
	DB	00H
	DB	00H
	DB	00H
	DB	00H
	DB	00H
	DB	00H
	DB	00H
	DB	00H
	DB	00H
	DB	00H
	DB	00H
	DB	00H
	DB	00H
	DB	00H
	DB	00H
	DB	00H
	DB	00H
	DB	00H
	DB	00H
	DB	00H
	DB	00H
	DB	00H
	DB	00H
	DB	00H
	DB	00H
	DB	00H
	DB	00H
	DB	00H
	DB	00H
	DB	00H
	DB	00H
	DB	00H
	DB	00H
	DB	00H
	DB	00H
	DB	00H
	DB	00H
	DB	00H
	DB	00H
	DB	00H
	DB	00H
	DB	00H
	DB	00H
	DB	00H
	DB	00H
	DB	00H
	DB	00H
	DB	00H
	DB	00H
	DB	00H
	DB	00H
	DB	00H
	DB	00H
	DB	00H
	DB	00H
	DB	00H
	DB	00H
	DB	00H
	DB	00H
	DB	00H
	DB	00H
	DB	00H
	DB	00H
	DB	00H
	DB	00H
	DB	00H
	DB	00H
	DB	00H
	DB	00H
	DB	00H
	DB	00H
	DB	00H
	DB	00H
	DB	00H
	DB	00H
	DB	00H
	DB	00H
	DB	00H
	DB	00H
	DB	00H
	DB	00H
	DB	00H
	DB	00H
	DB	00H
	DB	00H
	DB	00H
	DB	00H
	DB	00H
	DB	00H
	DB	00H
	DB	00H
	DB	00H
	DB	00H
	DB	00H
	DB	00H
	DB	00H
	DB	00H
	DB	00H
	DB	00H
	DB	00H
	DB	00H
	DB	00H
	DB	00H
	DB	00H
	DB	00H
	DB	00H
	DB	00H
	DB	00H
	DB	00H
	DB	00H
	DB	00H
	DB	00H
	DB	00H
	DB	00H
	DB	00H
	DB	00H
	DB	00H
	DB	00H
	DB	00H
	DB	00H
	DB	00H
	DB	00H
	DB	00H
	DB	00H
	DB	00H
	DB	00H
	DB	00H
	DB	00H
	DB	00H
	DB	00H
	DB	00H
	DB	00H
	DB	00H
	DB	00H
	DB	00H
	DB	00H
	DB	00H
	DB	00H
	DB	00H
	DB	00H
	DB	00H
	DB	00H
	DB	00H
	DB	00H
	DB	00H
	DB	00H
	DB	00H
	DB	00H
	DB	00H
	DB	00H
	DB	00H
	DB	00H
	DB	00H
	DB	00H
	DB	00H
	DB	00H
	DB	00H
	DB	00H
	DB	00H
	DB	00H
	DB	00H
	DB	00H
	DB	00H
	DB	00H
	DB	00H
	DB	00H
	DB	00H
	DB	00H
	DB	00H
	DB	00H
	DB	00H
	DB	00H
	DB	00H
	DB	00H
	DB	00H
	DB	00H
	DB	00H
	DB	00H
	DB	00H
	DB	00H
	DB	00H
	DB	00H
	DB	00H
	DB	00H
	DB	00H
	DB	00H
	DB	00H
	DB	00H
	DB	00H
	DB	00H
	DB	00H
	DB	00H
	DB	00H
	DB	00H
	DB	00H
	DB	00H
	DB	00H
	DB	00H
	DB	00H
	DB	00H
	DB	00H
	DB	00H
	DB	00H
	DB	00H
	DB	00H
	DB	00H
	DB	00H
	DB	00H
	DB	00H
	DB	00H
	DB	00H
	DB	00H
	DB	00H
	DB	00H
	DB	00H
	DB	00H
	DB	00H
	DB	00H
	DB	00H
	DB	00H
	DB	00H
	DB	00H
	DB	00H
	DB	00H
	DB	00H
	DB	00H
	DB	00H
	DB	00H
	DB	00H
	DB	00H
	DB	00H
	DB	00H
	DB	00H
	DB	00H
	DB	00H
	DB	00H
	DB	00H
	DB	00H
	DB	00H
	DB	00H
	DB	00H
	DB	00H
	DB	00H
	DB	00H
	DB	00H
	DB	00H
	DB	00H
	DB	00H
	DB	00H
	DB	00H
	DB	00H
	DB	00H
	DB	00H
	DB	00H
	DB	00H
	DB	00H
	DB	00H
	DB	00H
	DB	00H
	DB	00H
	DB	00H
	DB	00H
	DB	00H
	DB	00H
	DB	00H
	DB	00H
	DB	00H
	DB	00H
	DB	00H
	DB	00H
	DB	00H
	DB	00H
	DB	00H
	DB	00H
	DB	00H
	DB	00H
	DB	00H
	DB	00H
	DB	00H
	DB	00H
	DB	00H
	DB	00H
	DB	00H
	DB	00H
	DB	00H
	DB	00H
	DB	00H
	DB	00H
	DB	00H
	DB	00H
	DB	00H
	DB	00H
	DB	00H
	DB	00H
	DB	00H
	DB	00H
	DB	00H
	DB	00H
	DB	00H
	DB	00H
	DB	00H
	DB	00H
	DB	00H
	DB	00H
	DB	00H
	DB	00H
	DB	00H
	DB	00H
	DB	00H
	DB	00H
	DB	00H
	DB	00H
	DB	00H
	DB	00H
	DB	00H
	DB	00H
	DB	00H
	DB	00H
	DB	00H
	DB	00H
	DB	00H
	DB	00H
	DB	00H
	DB	00H
	DB	00H
	DB	00H
	DB	00H
	DB	00H
	DB	00H
	DB	00H
	DB	00H
	DB	00H
	DB	00H
	DB	00H
	DB	00H
	DB	00H
	DB	00H
	DB	00H
	DB	00H
	DB	00H
	DB	00H
	DB	00H
	DB	00H
	DB	00H
	DB	00H
	DB	00H
	DB	00H
	DB	00H
	DB	00H
	DB	00H
	DB	00H
	DB	00H
	DB	00H
	DB	00H
	DB	00H
	DB	00H
	DB	00H
	DB	00H
	DB	00H
	DB	00H
	DB	00H
	DB	00H
	DB	00H
	DB	00H
	DB	00H
	DB	00H
	DB	00H
	DB	00H
	DB	00H
	DB	00H
	DB	00H
	DB	00H
	DB	00H
	DB	00H
	DB	00H
	DB	00H
	DB	00H
	DB	00H
	DB	00H
	DB	00H
	DB	00H
	DB	00H
	DB	00H
	DB	00H
	DB	00H
	DB	00H
	DB	00H
	DB	00H
	DB	00H
	DB	00H
	DB	00H
	DB	00H
	DB	00H
	DB	00H
	DB	00H
	DB	00H
	DB	00H
	DB	00H
	DB	00H
	DB	00H
	DB	00H
	DB	00H
	DB	00H
	DB	00H
	DB	00H
	DB	00H
	DB	00H
	DB	00H
	DB	00H
	DB	00H
	DB	00H
	DB	00H
	DB	00H
	DB	00H
	DB	00H
	DB	00H
	DB	00H
	DB	00H
	DB	00H
	DB	00H
	DB	00H
	DB	00H
	DB	00H
	DB	00H
	DB	00H
	DB	00H
	DB	00H
	DB	00H
	DB	00H
	DB	00H
	DB	00H
	DB	00H
	DB	00H
	DB	00H
	DB	00H
	DB	00H
	DB	00H
	DB	00H
	DB	00H
	DB	00H
	DB	00H
	DB	00H
	DB	00H
	DB	00H
	DB	00H
	DB	00H
	DB	00H
	DB	00H
	DB	00H
	DB	00H
	DB	00H
	DB	00H
	DB	00H
	DB	00H
	DB	00H
	DB	00H
	DB	00H
	DB	00H
	DB	00H
	DB	00H
	DB	00H
	DB	00H
	DB	00H
	DB	00H
	DB	00H
	DB	00H
	DB	00H
	DB	00H
	DB	00H
	DB	00H
	DB	00H
	DB	00H
	DB	00H
	DB	00H
	DB	00H
	DB	00H
	DB	00H
	DB	00H
	DB	00H
	DB	00H
	DB	00H
	DB	00H
	DB	00H
	DB	00H
	DB	00H
	DB	00H
	DB	00H
	DB	00H
	DB	00H
	DB	00H
	DB	00H
	DB	00H
	DB	00H
	DB	00H
	DB	00H
	DB	00H
	DB	00H
	DB	00H
	DB	00H
	DB	00H
	DB	00H
	DB	00H
	DB	00H
	DB	00H
	DB	00H
	DB	00H
	DB	00H
	DB	00H
	DB	00H
	DB	00H
	DB	00H
	DB	00H
	DB	00H
	DB	00H
	DB	00H
	DB	00H
	DB	00H
	DB	00H
	DB	00H
	DB	00H
	DB	00H
	DB	00H
	DB	00H
	DB	00H
	DB	00H
	DB	00H
	DB	00H
	DB	00H
	DB	00H
	DB	00H
	DB	00H
	DB	00H
	DB	00H
	DB	00H
	DB	00H
	DB	00H
	DB	00H
	DB	00H
	DB	00H
	DB	00H
	DB	00H
	DB	00H
	DB	00H
	DB	00H
	DB	00H
	DB	00H
	DB	00H
	DB	00H
	DB	00H
	DB	00H
	DB	00H
	DB	00H
	DB	00H
	DB	00H
	DB	00H
	DB	00H
	DB	00H
	DB	00H
	DB	00H
	DB	00H
	DB	00H
	DB	00H
	DB	00H
	DB	00H
	DB	00H
	DB	00H
	DB	00H
	DB	00H
	DB	00H
	DB	00H
	DB	00H
	DB	00H
	DB	00H
	DB	00H
	DB	00H
	DB	00H
	DB	00H
	DB	00H
	DB	00H
	DB	00H
	DB	00H
	DB	00H
	DB	00H
	DB	00H
	DB	00H
	DB	00H
	DB	00H
	DB	00H
	DB	00H
	DB	00H
	DB	00H
	DB	00H
	DB	00H
	DB	00H
	DB	00H
	DB	00H
	DB	00H
	DB	00H
	DB	00H
	DB	00H
	DB	00H
	DB	00H
	DB	00H
	DB	00H
	DB	00H
	DB	00H
	DB	00H
	DB	00H
	DB	00H
	DB	00H
	DB	00H
	DB	00H
	DB	00H
	DB	00H
	DB	00H
	DB	00H
	DB	00H
	DB	00H
	DB	00H
	DB	00H
	DB	00H
	DB	00H
	DB	00H
	DB	00H
	DB	00H
	DB	00H
	DB	00H
	DB	00H
	DB	00H
	DB	00H
	DB	00H
	DB	00H
	DB	00H
	DB	00H
	DB	00H
	DB	00H
	DB	00H
	DB	00H
	DB	00H
	DB	00H
	DB	00H
	DB	00H
	DB	00H
	DB	00H
	DB	00H
	DB	00H
	DB	00H
	DB	00H
	DB	00H
	DB	00H
	DB	00H
	DB	00H
	DB	00H
	DB	00H
	DB	00H
	DB	00H
	DB	00H
	DB	00H
	DB	00H
	DB	00H
	DB	00H
	DB	00H
	DB	00H
	DB	00H
	DB	00H
	DB	00H
	DB	00H
	DB	00H
	DB	00H
	DB	00H
	DB	00H
	DB	00H
	DB	00H
	DB	00H
	DB	00H
	DB	00H
	DB	00H
	DB	00H
	DB	00H
	DB	00H
	DB	00H
	DB	00H
	DB	00H
	DB	00H
	DB	00H
	DB	00H
	DB	00H
	DB	00H
	DB	00H
	DB	00H
	DB	00H
	DB	00H
	DB	00H
	DB	00H
	DB	00H
	DB	00H
	DB	00H
	DB	00H
	DB	00H
	DB	00H
	DB	00H
	DB	00H
	DB	00H
	DB	00H
	DB	00H
	DB	00H
	DB	00H
	DB	00H
	DB	00H
	DB	00H
	DB	00H
	DB	00H
	DB	00H
	DB	00H
	DB	00H
	DB	00H
	DB	00H
	DB	00H
	DB	00H
	DB	00H
	DB	00H
	DB	00H
	DB	00H
	DB	00H
	DB	00H
	DB	00H
	DB	00H
	DB	00H
	DB	00H
	DB	00H
	DB	00H
	DB	00H
	DB	00H
	DB	00H
	DB	00H
	DB	00H
	DB	00H
	DB	00H
	DB	00H
	DB	00H
	DB	00H
	DB	00H
	DB	00H
	DB	00H
	DB	00H
	DB	00H
	DB	00H
	DB	00H
	DB	00H
	DB	00H
	DB	00H
	DB	00H
	DB	00H
	DB	00H
	DB	00H
	DB	00H
	DB	00H
	DB	00H
	DB	00H
	DB	00H
	DB	00H
	DB	00H
	DB	00H
	DB	00H
	DB	00H
	DB	00H
	DB	00H
	DB	00H
	DB	00H
	DB	00H
	DB	00H
	DB	00H
	DB	00H
	DB	00H
	DB	00H
	DB	00H
	DB	00H
	DB	00H
	DB	00H
	DB	00H
	DB	00H
	DB	00H
	DB	00H
	DB	00H
	DB	00H
	DB	00H
	DB	00H
	DB	00H
	DB	00H
	DB	00H
	DB	00H
	DB	00H
	DB	00H
	DB	00H
	DB	00H
	DB	00H
	DB	00H
	DB	00H
	DB	00H
	DB	00H
	DB	00H
	DB	00H
	DB	00H
	DB	00H
	DB	00H
	DB	00H
	DB	00H
	DB	00H
	DB	00H
	DB	00H
	DB	00H
	DB	00H
	DB	00H
	DB	00H
	DB	00H
	DB	00H
	DB	00H
	DB	00H
	DB	00H
	DB	00H
	DB	00H
	DB	00H
	DB	00H
	DB	00H
	DB	00H
	DB	00H
	DB	00H
	DB	00H
	DB	00H
	DB	00H
	DB	00H
	DB	00H
	DB	00H
	DB	00H
	DB	00H
	DB	00H
	DB	00H
	DB	00H
	DB	00H
	DB	00H
	DB	00H
	DB	00H
	DB	00H
	DB	00H
	DB	00H
	DB	00H
	DB	00H
	DB	00H
	DB	00H
	DB	00H
	DB	00H
	DB	00H
	DB	00H
	DB	00H
	DB	00H
	DB	00H
	DB	00H
	DB	00H
	DB	00H
	DB	00H
	DB	00H
	DB	00H
	DB	00H
	DB	00H
	DB	00H
	DB	00H
	DB	00H
	DB	00H
	DB	00H
	DB	00H
	DB	00H
	DB	00H
	DB	00H
	DB	00H
	DB	00H
	DB	00H
	DB	00H
	DB	00H
	DB	00H
	DB	00H
	DB	00H
	DB	00H
	DB	00H
	DB	00H
	DB	00H
	DB	00H
	DB	00H
	DB	00H
	DB	00H
	DB	00H
	DB	00H
	DB	00H
	DB	00H
	DB	00H
	DB	00H
	DB	00H
	DB	00H
	DB	00H
	DB	00H
	DB	00H
	DB	00H
	DB	00H
	DB	00H
	DB	00H
	DB	00H
	DB	00H
	DB	00H
	DB	00H
	DB	00H
	DB	00H
	DB	00H
	DB	00H
	DB	00H
	DB	00H
	DB	00H
	DB	00H
	DB	00H
	DB	00H
	DB	00H
	DB	00H
	DB	00H
	DB	00H
	DB	00H
	DB	00H
	DB	00H
	DB	00H
	DB	00H
	DB	00H
	DB	00H
	DB	00H
	DB	00H
	DB	00H
	DB	00H
	DB	00H
	DB	00H
	DB	00H
	DB	00H
	DB	00H
	DB	00H
	DB	00H
	DB	00H
	DB	00H
	DB	00H
	DB	00H
	DB	00H
	DB	00H
	DB	00H
	DB	00H
	DB	00H
	DB	00H
	DB	00H
	DB	00H
	DB	00H
	DB	00H
	DB	00H
	DB	00H
	DB	00H
	DB	00H
	DB	00H
	DB	00H
	DB	00H
	DB	00H
	DB	00H
	DB	00H
	DB	00H
	DB	00H
	DB	00H
	DB	00H
	DB	00H
	DB	00H
	DB	00H
	DB	00H
	DB	00H
	DB	00H
	DB	00H
	DB	00H
	DB	00H
	DB	00H
	DB	00H
	DB	00H
	DB	00H
	DB	00H
	DB	00H
	DB	00H
	DB	00H
	DB	00H
	DB	00H
	DB	00H
	DB	00H
	DB	00H
	DB	00H
	DB	00H
	DB	00H
	DB	00H
	DB	00H
	DB	00H
	DB	00H
	DB	00H
	DB	00H
	DB	00H
	DB	00H
	DB	00H
	DB	00H
	DB	00H
	DB	00H
	DB	00H
	DB	00H
	DB	00H
	DB	00H
	DB	00H
	DB	00H
	DB	00H
	DB	00H
	DB	00H
	DB	00H
	DB	00H
	DB	00H
	DB	00H
	DB	00H
	DB	00H
	DB	00H
	DB	00H
	DB	00H
	DB	00H
	DB	00H
	DB	00H
	DB	00H
	DB	00H
	DB	00H
	DB	00H
	DB	00H
	DB	00H
	DB	00H
	DB	00H
	DB	00H
	DB	00H
	DB	00H
	DB	00H
	DB	00H
	DB	00H
	DB	00H
	DB	00H
	DB	00H
	DB	00H
	DB	00H
	DB	00H
	DB	00H
	DB	00H
	DB	00H
	DB	00H
	DB	00H
	DB	00H
	DB	00H
	DB	00H
	DB	00H
	DB	00H
	DB	00H
	DB	00H
	DB	00H
	DB	00H
	DB	00H
	DB	00H
	DB	00H
	DB	00H
	DB	00H
	DB	00H
	DB	00H
	DB	00H
	DB	00H
	DB	00H
	DB	00H
	DB	00H
	DB	00H
	DB	00H
	DB	00H
	DB	00H
	DB	00H
	DB	00H
	DB	00H
	DB	00H
	DB	00H
	DB	00H
	DB	00H
	DB	00H
	DB	00H
	DB	00H
	DB	00H
	DB	00H
	DB	00H
	DB	00H
	DB	00H
	DB	00H
	DB	00H
	DB	00H
	DB	00H
	DB	00H
	DB	00H
	DB	00H
	DB	00H
	DB	00H
	DB	00H
	DB	00H
	DB	00H
	DB	00H
	DB	00H
	DB	00H
	DB	00H
	DB	00H
	DB	00H
	DB	00H
	DB	00H
	DB	00H
	DB	00H
	DB	00H
	DB	00H
	DB	00H
	DB	00H
	DB	00H
	DB	00H
	DB	00H
	DB	00H
	DB	00H
	DB	00H
	DB	00H
	DB	00H
	DB	00H
	DB	00H
	DB	00H
	DB	00H
	DB	00H
	DB	00H
	DB	00H
	DB	00H
	DB	00H
	DB	00H
	DB	00H
	DB	00H
	DB	00H
	DB	00H
	DB	00H
	DB	00H
	DB	00H
	DB	00H
	DB	00H
	DB	00H
	DB	00H
	DB	00H
	DB	00H
	DB	00H
	DB	00H
	DB	00H
	DB	00H
	DB	00H
	DB	00H
	DB	00H
	DB	00H
	DB	00H
	DB	00H
	DB	00H
	DB	00H
	DB	00H
	DB	00H
	DB	00H
	DB	00H
	DB	00H
	DB	00H
	DB	00H
	DB	00H
	DB	00H
	DB	00H
	DB	00H
	DB	00H
	DB	00H
	DB	00H
	DB	00H
	DB	00H
	DB	00H
	DB	00H
	DB	00H
	DB	00H
	DB	00H
	DB	00H
	DB	00H
	DB	00H
	DB	00H
	DB	00H
	DB	00H
	DB	00H
	DB	00H
	DB	00H
	DB	00H
	DB	00H
	DB	00H
	DB	00H
	DB	00H
	DB	00H
	DB	00H
	DB	00H
	DB	00H
	DB	00H
	DB	00H
	DB	00H
	DB	00H
	DB	00H
	DB	00H
	DB	00H
	DB	00H
	DB	00H
	DB	00H
	DB	00H
	DB	00H
	DB	00H
	DB	00H
	DB	00H
	DB	00H
	DB	00H
	DB	00H
	DB	00H
	DB	00H
	DB	00H
	DB	00H
	DB	00H
	DB	00H
	DB	00H
	DB	00H
	DB	00H
	DB	00H
	DB	00H
	DB	00H
	DB	00H
	DB	00H
	DB	00H
	DB	00H
	DB	00H
	DB	00H
	DB	00H
	DB	00H
	DB	00H
	DB	00H
	DB	00H
	DB	00H
	DB	00H
	DB	00H
	DB	00H
	DB	00H
	DB	00H
	DB	00H
	DB	00H
	DB	00H
	DB	00H
	DB	00H
	DB	00H
	DB	00H
	DB	00H
	DB	00H
	DB	00H
	DB	00H
	DB	00H
	DB	00H
	DB	00H
	DB	00H
	DB	00H
	DB	00H
	DB	00H
	DB	00H
	DB	00H
	DB	00H
	DB	00H
	DB	00H
	DB	00H
	DB	00H
	DB	00H
	DB	00H
	DB	00H
	DB	00H
	DB	00H
	DB	00H
	DB	00H
	DB	00H
	DB	00H
	DB	00H
	DB	00H
	DB	00H
	DB	00H
	DB	00H
	DB	00H
	DB	00H
	DB	00H
	DB	00H
	DB	00H
	DB	00H
	DB	00H
	DB	00H
	DB	00H
	DB	00H
	DB	00H
	DB	00H
	DB	00H
	DB	00H
	DB	00H
	DB	00H
	DB	00H
	DB	00H
	DB	00H
	DB	00H
	DB	00H
	DB	00H
	DB	00H
	DB	00H
	DB	00H
	DB	00H
	DB	00H
	DB	00H
	DB	00H
	DB	00H
	DB	00H
	DB	00H
	DB	00H
	DB	00H
	DB	00H
	DB	00H
	DB	00H
	DB	00H
	DB	00H
	DB	00H
	DB	00H
	DB	00H
	DB	00H
	DB	00H
	DB	00H
	DB	00H
	DB	00H
	DB	00H
	DB	00H
	DB	00H
	DB	00H
	DB	00H
	DB	00H
	DB	00H
	DB	00H
	DB	00H
	DB	00H
	DB	00H
	DB	00H
	DB	00H
	DB	00H
	DB	00H
	DB	00H
	DB	00H
	DB	00H
	DB	00H
	DB	00H
	DB	00H
	DB	00H
	DB	00H
	DB	00H
	DB	00H
	DB	00H
	DB	00H
	DB	00H
	DB	00H
	DB	00H
	DB	00H
	DB	00H
	DB	00H
	DB	00H
	DB	00H
	DB	00H
	DB	00H
	DB	00H
	DB	00H
	DB	00H
	DB	00H
	DB	00H
	DB	00H
	DB	00H
	DB	00H
	DB	00H
	DB	00H
	DB	00H
	DB	00H
	DB	00H
	DB	00H
	DB	00H
	DB	00H
	DB	00H
	DB	00H
	DB	00H
	DB	00H
	DB	00H
	DB	00H
	DB	00H
	DB	00H
	DB	00H
	DB	00H
	DB	00H
	DB	00H
	DB	00H
	DB	00H
	DB	00H
	DB	00H
	DB	00H
	DB	00H
	DB	00H
	DB	00H
	DB	00H
	DB	00H
	DB	00H
	DB	00H
	DB	00H
	DB	00H
	DB	00H
	DB	00H
	DB	00H
	DB	00H
	DB	00H
	DB	00H
	DB	00H
	DB	00H
	DB	00H
	DB	00H
	DB	00H
	DB	00H
	DB	00H
	DB	00H
	DB	00H
	DB	00H
	DB	00H
	DB	00H
	DB	00H
	DB	00H
	DB	00H
	DB	00H
	DB	00H
	DB	00H
	DB	00H
	DB	00H
	DB	00H
	DB	00H
	DB	00H
	DB	00H
	DB	00H
	DB	00H
	DB	00H
	DB	00H
	DB	00H
	DB	00H
	DB	00H
	DB	00H
	DB	00H
	DB	00H
	DB	00H
	DB	00H
	DB	00H
	DB	00H
	DB	00H
	DB	00H
	DB	00H
	DB	00H
	DB	00H
	DB	00H
	DB	00H
	DB	00H
	DB	00H
	DB	00H
	DB	00H
	DB	00H
	DB	00H
	DB	00H
	DB	00H
	DB	00H
	DB	00H
	DB	00H
	DB	00H
	DB	00H
	DB	00H
	DB	00H
	DB	00H
	DB	00H
	DB	00H
	DB	00H
	DB	00H
	DB	00H
	DB	00H
	DB	00H
	DB	00H
	DB	00H
	DB	00H
	DB	00H
	DB	00H
	DB	00H
	DB	00H
	DB	00H
	DB	00H
	DB	00H
	DB	00H
	DB	00H
	DB	00H
	DB	00H
	DB	00H
	DB	00H
	DB	00H
	DB	00H
	DB	00H
	DB	00H
	DB	00H
	DB	00H
	DB	00H
	DB	00H
	DB	00H
	DB	00H
	DB	00H
	DB	00H
	DB	00H
	DB	00H
	DB	00H
	DB	00H
	DB	00H
	DB	00H
	DB	00H
	DB	00H
	DB	00H
	DB	00H
	DB	00H
	DB	00H
	DB	00H
	DB	00H
	DB	00H
	DB	00H
	DB	00H
	DB	00H
	DB	00H
	DB	00H
	DB	00H
	DB	00H
	DB	00H
	DB	00H
	DB	00H
	DB	00H
	DB	00H
	DB	00H
	DB	00H
	DB	00H
	DB	00H
	DB	00H
	DB	00H
	DB	00H
	DB	00H
	DB	00H
	DB	00H
	DB	00H
	DB	00H
	DB	00H
	DB	00H
	DB	00H
	DB	00H
	DB	00H
	DB	00H
	DB	00H
	DB	00H
	DB	00H
	DB	00H
	DB	00H
	DB	00H
	DB	00H
	DB	00H
	DB	00H
	DB	00H
	DB	00H
	DB	00H
	DB	00H
	DB	00H
	DB	00H
	DB	00H
	DB	00H
	DB	00H
	DB	00H
	DB	00H
	DB	00H
	DB	00H
	DB	00H
	DB	00H
	DB	00H
	DB	00H
	DB	00H
	DB	00H
	DB	00H
	DB	00H
	DB	00H
	DB	00H
	DB	00H
	DB	00H
	DB	00H
	DB	00H
	DB	00H
	DB	00H
	DB	00H
	DB	00H
	DB	00H
	DB	00H
	DB	00H
	DB	00H
	DB	00H
	DB	00H
	DB	00H
	DB	00H
	DB	00H
	DB	00H
	DB	00H
	DB	00H
	DB	00H
	DB	00H
	DB	00H
	DB	00H
	DB	00H
	DB	00H
	DB	00H
	DB	00H
	DB	00H
	DB	00H
	DB	00H
	DB	00H
	DB	00H
	DB	00H
	DB	00H
	DB	00H
	DB	00H
	DB	00H
	DB	00H
	DB	00H
	DB	00H
	DB	00H
	DB	00H
	DB	00H
	DB	00H
	DB	00H
	DB	00H
	DB	00H
	DB	00H
	DB	00H
	DB	00H
	DB	00H
	DB	00H
	DB	00H
	DB	00H
	DB	00H
	DB	00H
	DB	00H
	DB	00H
	DB	00H
	DB	00H
	DB	00H
	DB	00H
	DB	00H
	DB	00H
	DB	00H
	DB	00H
	DB	00H
	DB	00H
	DB	00H
	DB	00H
	DB	00H
	DB	00H
	DB	00H
	DB	00H
	DB	00H
	DB	00H
	DB	00H
	DB	00H
	DB	00H
	DB	00H
	DB	00H
	DB	00H
	DB	00H
	DB	00H
	DB	00H
	DB	00H
	DB	00H
	DB	00H
	DB	00H
	DB	00H
	DB	00H
	DB	00H
	DB	00H
	DB	00H
	DB	00H
	DB	00H
	DB	00H
	DB	00H
	DB	00H
	DB	00H
	DB	00H
	DB	00H
	DB	00H
	DB	00H
	DB	00H
	DB	00H
	DB	00H
	DB	00H
	DB	00H
	DB	00H
	DB	00H
	DB	00H
	DB	00H
	DB	00H
	DB	00H
	DB	00H
	DB	00H
	DB	00H
	DB	00H
	DB	00H
	DB	00H
	DB	00H
	DB	00H
	DB	00H
	DB	00H
	DB	00H
	DB	00H
	DB	00H
	DB	00H
	DB	00H
	DB	00H
	DB	00H
	DB	00H
	DB	00H
	DB	00H
	DB	00H
	DB	00H
	DB	00H
	DB	00H
	DB	00H
	DB	00H
	DB	00H
	DB	00H
	DB	00H
	DB	00H
	DB	00H
	DB	00H
	DB	00H
	DB	00H
	DB	00H
	DB	00H
	DB	00H
	DB	00H
	DB	00H
	DB	00H
	DB	00H
	DB	00H
	DB	00H
	DB	00H
	DB	00H
	DB	00H
	DB	00H
	DB	00H
	DB	00H
	DB	00H
	DB	00H
	DB	00H
	DB	00H
	DB	00H
	DB	00H
	DB	00H
	DB	00H
	DB	00H
	DB	00H
	DB	00H
	DB	00H
	DB	00H
	DB	00H
	DB	00H
	DB	00H
	DB	00H
	DB	00H
	DB	00H
	DB	00H
	DB	00H
	DB	00H
	DB	00H
	DB	00H
	DB	00H
	DB	00H
	DB	00H
	DB	00H
	DB	00H
	DB	00H
	DB	00H
	DB	00H
	DB	00H
	DB	00H
	DB	00H
	DB	00H
	DB	00H
	DB	00H
	DB	00H
	DB	00H
	DB	00H
	DB	00H
	DB	00H
	DB	00H
	DB	00H
	DB	00H
	DB	00H
	DB	00H
	DB	00H
	DB	00H
	DB	00H
	DB	00H
	DB	00H
	DB	00H
	DB	00H
	DB	00H
	DB	00H
	DB	00H
	DB	00H
	DB	00H
	DB	00H
	DB	00H
	DB	00H
	DB	00H
	DB	00H
	DB	00H
	DB	00H
	DB	00H
	DB	00H
	DB	00H
	DB	00H
	DB	00H
	DB	00H
	DB	00H
	DB	00H
	DB	00H
	DB	00H
	DB	00H
	DB	00H
	DB	00H
	DB	00H
	DB	00H
	DB	00H
	DB	00H
	DB	00H
	DB	00H
	DB	00H
	DB	00H
	DB	00H
	DB	00H
	DB	00H
	DB	00H
	DB	00H
	DB	00H
	DB	00H
	DB	00H
	DB	00H
	DB	00H
	DB	00H
	DB	00H
	DB	00H
	DB	00H
	DB	00H
	DB	00H
	DB	00H
	DB	00H
	DB	00H
	DB	00H
	DB	00H
	DB	00H
	DB	00H
	DB	00H
	DB	00H
	DB	00H
	DB	00H
	DB	00H
	DB	00H
	DB	00H
	DB	00H
	DB	00H
	DB	00H
	DB	00H
	DB	00H
	DB	00H
	DB	00H
	DB	00H
	DB	00H
	DB	00H
	DB	00H
	DB	00H
	DB	00H
	DB	00H
	DB	00H
	DB	00H
	DB	00H
	DB	00H
	DB	00H
	DB	00H
	DB	00H
	DB	00H
	DB	00H
	DB	00H
	DB	00H
	DB	00H
	DB	00H
	DB	00H
	DB	00H
	DB	00H
	DB	00H
	DB	00H
	DB	00H
	DB	00H
	DB	00H
	DB	00H
	DB	00H
	DB	00H
	DB	00H
	DB	00H
	DB	00H
	DB	00H
	DB	00H
	DB	00H
	DB	00H
	DB	00H
	DB	00H
	DB	00H
	DB	00H
	DB	00H
	DB	00H
	DB	00H
	DB	00H
	DB	00H
	DB	00H
	DB	00H
	DB	00H
	DB	00H
	DB	00H
	DB	00H
	DB	00H
	DB	00H
	DB	00H
	DB	00H
	DB	00H
	DB	00H
	DB	00H
	DB	00H
	DB	00H
	DB	00H
	DB	00H
	DB	00H
	DB	00H
	DB	00H
	DB	00H
	DB	00H
	DB	00H
	DB	00H
	DB	00H
	DB	00H
	DB	00H
	DB	00H
	DB	00H
	DB	00H
	DB	00H
	DB	00H
	DB	00H
	DB	00H
	DB	00H
	DB	00H
	DB	00H
	DB	00H
	DB	00H
	DB	00H
	DB	00H
	DB	00H
	DB	00H
	DB	00H
	DB	00H
	DB	00H
	DB	00H
	DB	00H
	DB	00H
	DB	00H
	DB	00H
	DB	00H
	DB	00H
	DB	00H
	DB	00H
	DB	00H
	DB	00H
	DB	00H
	DB	00H
	DB	00H
	DB	00H
	DB	00H
	DB	00H
	DB	00H
	DB	00H
	DB	00H
	DB	00H
	DB	00H
	DB	00H
	DB	00H
	DB	00H
	DB	00H
	DB	00H
	DB	00H
	DB	00H
	DB	00H
	DB	00H
	DB	00H
	DB	00H
	DB	00H
	DB	00H
	DB	00H
	DB	00H
	DB	00H
	DB	00H
	DB	00H
	DB	00H
	DB	00H
	DB	00H
	DB	00H
	DB	00H
	DB	00H
	DB	00H
	DB	00H
	DB	00H
	DB	00H
	DB	00H
	DB	00H
	DB	00H
	DB	00H
	DB	00H
	DB	00H
	DB	00H
	DB	00H
	DB	00H
	DB	00H
	DB	00H
	DB	00H
	DB	00H
	DB	00H
	DB	00H
	DB	00H
	DB	00H
	DB	00H
	DB	00H
	DB	00H
	DB	00H
	DB	00H
	DB	00H
	DB	00H
	DB	00H
	DB	00H
	DB	00H
	DB	00H
	DB	00H
	DB	00H
	DB	00H
	DB	00H
	DB	00H
	DB	00H
	DB	00H
	DB	00H
	DB	00H
	DB	00H
	DB	00H
	DB	00H
	DB	00H
	DB	00H
	DB	00H
	DB	00H
	DB	00H
	DB	00H
	DB	00H
	DB	00H
	DB	00H
	DB	00H
	DB	00H
	DB	00H
	DB	00H
	DB	00H
	DB	00H
	DB	00H
	DB	00H
	DB	00H
	DB	00H
	DB	00H
	DB	00H
	DB	00H
	DB	00H
	DB	00H
	DB	00H
	DB	00H
	DB	00H
	DB	00H
	DB	00H
	DB	00H
	DB	00H
	DB	00H
	DB	00H
	DB	00H
	DB	00H
	DB	00H
	DB	00H
	DB	00H
	DB	00H
	DB	00H
	DB	00H
	DB	00H
	DB	00H
	DB	00H
	DB	00H
	DB	00H
	DB	00H
	DB	00H
	DB	00H
	DB	00H
	DB	00H
	DB	00H
	DB	00H
	DB	00H
	DB	00H
	DB	00H
	DB	00H
	DB	00H
	DB	00H
	DB	00H
	DB	00H
	DB	00H
	DB	00H
	DB	00H
	DB	00H
	DB	00H
	DB	00H
	DB	00H
	DB	00H
	DB	00H
	DB	00H
	DB	00H
	DB	00H
	DB	00H
	DB	00H
	DB	00H
	DB	00H
	DB	00H
	DB	00H
	DB	00H
	DB	00H
	DB	00H
	DB	00H
	DB	00H
	DB	00H
	DB	00H
	DB	00H
	DB	00H
	DB	00H
	DB	00H
	DB	00H
	DB	00H
	DB	00H
	DB	00H
	DB	00H
	DB	00H
	DB	00H
	DB	00H
	DB	00H
	DB	00H
	DB	00H
	DB	00H
	DB	00H
	DB	00H
	DB	00H
	DB	00H
	DB	00H
	DB	00H
	DB	00H
	DB	00H
	DB	00H
	DB	00H
	DB	00H
	DB	00H
	DB	00H
	DB	00H
	DB	00H
	DB	00H
	DB	00H
	DB	00H
	DB	00H
	DB	00H
	DB	00H
	DB	00H
	DB	00H
	DB	00H
	DB	00H
	DB	00H
	DB	00H
	DB	00H
	DB	00H
	DB	00H
	DB	00H
	DB	00H
	DB	00H
	DB	00H
	DB	00H
	DB	00H
	DB	00H
	DB	00H
	DB	00H
	DB	00H
	DB	00H
	DB	00H
	DB	00H
	DB	00H
	DB	00H
	DB	00H
	DB	00H
	DB	00H
	DB	00H
	DB	00H
	DB	00H
	DB	00H
	DB	00H
	DB	00H
	DB	00H
	DB	00H
	DB	00H
	DB	00H
	DB	00H
	DB	00H
	DB	00H
	DB	00H
	DB	00H
	DB	00H
	DB	00H
	DB	00H
	DB	00H
	DB	00H
	DB	00H
	DB	00H
	DB	00H
	DB	00H
	DB	00H
	DB	00H
	DB	00H
	DB	00H
	DB	00H
	DB	00H
	DB	00H
	DB	00H
	DB	00H
	DB	00H
	DB	00H
	DB	00H
	DB	00H
	DB	00H
	DB	00H
	DB	00H
	DB	00H
	DB	00H
	DB	00H
	DB	00H
	DB	00H
	DB	00H
	DB	00H
	DB	00H
	DB	00H
	DB	00H
	DB	00H
	DB	00H
	DB	00H
	DB	00H
	DB	00H
	DB	00H
	DB	00H
	DB	00H
	DB	00H
	DB	00H
	DB	00H
	DB	00H
	DB	00H
	DB	00H
	DB	00H
	DB	00H
	DB	00H
	DB	00H
	DB	00H
	DB	00H
	DB	00H
	DB	00H
	DB	00H
	DB	00H
	DB	00H
	DB	00H
	DB	00H
	DB	00H
	DB	00H
	DB	00H
	DB	00H
	DB	00H
	DB	00H
	DB	00H
	DB	00H
	DB	00H
	DB	00H
	DB	00H
	DB	00H
	DB	00H
	DB	00H
	DB	00H
	DB	00H
	DB	00H
	DB	00H
	DB	00H
	DB	00H
	DB	00H
	DB	00H
	DB	00H
	DB	00H
	DB	00H
	DB	00H
	DB	00H
	DB	00H
	DB	00H
	DB	00H
	DB	00H
	DB	00H
	DB	00H
	DB	00H
	DB	00H
	DB	00H
	DB	00H
	DB	00H
	DB	00H
	DB	00H
	DB	00H
	DB	00H
	DB	00H
	DB	00H
	DB	00H
	DB	00H
	DB	00H
	DB	00H
	DB	00H
	DB	00H
	DB	00H
	DB	00H
	DB	00H
	DB	00H
	DB	00H
	DB	00H
	DB	00H
	DB	00H
	DB	00H
	DB	00H
	DB	00H
	DB	00H
	DB	00H
	DB	00H
	DB	00H
	DB	00H
	DB	00H
	DB	00H
	DB	00H
	DB	00H
	DB	00H
	DB	00H
	DB	00H
	DB	00H
	DB	00H
	DB	00H
	DB	00H
	DB	00H
	DB	00H
	DB	00H
	DB	00H
	DB	00H
	DB	00H
	DB	00H
	DB	00H
	DB	00H
	DB	00H
	DB	00H
	DB	00H
	DB	00H
	DB	00H
	DB	00H
	DB	00H
	DB	00H
	DB	00H
	DB	00H
	DB	00H
	DB	00H
	DB	00H
	DB	00H
	DB	00H
	DB	00H
	DB	00H
	DB	00H
	DB	00H
	DB	00H
	DB	00H
	DB	00H
	DB	00H
	DB	00H
	DB	00H
	DB	00H
	DB	00H
	DB	00H
	DB	00H
	DB	00H
	DB	00H
	DB	00H
	DB	00H
	DB	00H
	DB	00H
	DB	00H
	DB	00H
	DB	00H
	DB	00H
	DB	00H
	DB	00H
	DB	00H
	DB	00H
	DB	00H
	DB	00H
	DB	00H
	DB	00H
	DB	00H
	DB	00H
	DB	00H
	DB	00H
	DB	00H
	DB	00H
	DB	00H
	DB	00H
	DB	00H
	DB	00H
	DB	00H
	DB	00H
	DB	00H
	DB	00H
	DB	00H
	DB	00H
	DB	00H
	DB	00H
	DB	00H
	DB	00H
	DB	00H
	DB	00H
	DB	00H
	DB	00H
	DB	00H
	DB	00H
	DB	00H
	DB	00H
	DB	00H
	DB	00H
	DB	00H
	DB	00H
	DB	00H
	DB	00H
	DB	00H
	DB	00H
	DB	00H
	DB	00H
	DB	00H
	DB	00H
	DB	00H
	DB	00H
	DB	00H
	DB	00H
	DB	00H
	DB	00H
	DB	00H
	DB	00H
	DB	00H
	DB	00H
	DB	00H
	DB	00H
	DB	00H
	DB	00H
	DB	00H
	DB	00H
	DB	00H
	DB	00H
	DB	00H
	DB	00H
	DB	00H
	DB	00H
	DB	00H
	DB	00H
	DB	00H
	DB	00H
	DB	00H
	DB	00H
	DB	00H
	DB	00H
	DB	00H
	DB	00H
	DB	00H
	DB	00H
	DB	00H
	DB	00H
	DB	00H
	DB	00H
	DB	00H
	DB	00H
	DB	00H
	DB	00H
	DB	00H
	DB	00H
	DB	00H
	DB	00H
	DB	00H
	DB	00H
	DB	00H
	DB	00H
	DB	00H
	DB	00H
	DB	00H
	DB	00H
	DB	00H
	DB	00H
	DB	00H
	DB	00H
	DB	00H
	DB	00H
	DB	00H
	DB	00H
	DB	00H
	DB	00H
	DB	00H
	DB	00H
	DB	00H
	DB	00H
	DB	00H
	DB	00H
	DB	00H
	DB	00H
	DB	00H
	DB	00H
	DB	00H
	DB	00H
	DB	00H
	DB	00H
	DB	00H
	DB	00H
	DB	00H
	DB	00H
	DB	00H
	DB	00H
	DB	00H
	DB	00H
	DB	00H
	DB	00H
	DB	00H
	DB	00H
	DB	00H
	DB	00H
	DB	00H
	DB	00H
	DB	00H
	DB	00H
	DB	00H
	DB	00H
	DB	00H
	DB	00H
	DB	00H
	DB	00H
	DB	00H
	DB	00H
	DB	00H
	DB	00H
	DB	00H
	DB	00H
	DB	00H
	DB	00H
	DB	00H
	DB	00H
	DB	00H
	DB	00H
	DB	00H
	DB	00H
	DB	00H
	DB	00H
	DB	00H
	DB	00H
	DB	00H
	DB	00H
	DB	00H
	DB	00H
	DB	00H
	DB	00H
	DB	00H
	DB	00H
	DB	00H
	DB	00H
	DB	00H
	DB	00H
	DB	00H
	DB	00H
	DB	00H
	DB	00H
	DB	00H
	DB	00H
	DB	00H
	DB	00H
	DB	00H
	DB	00H
	DB	00H
	DB	00H
	DB	00H
	DB	00H
	DB	00H
	DB	00H
	DB	00H
	DB	00H
	DB	00H
	DB	00H
	DB	00H
	DB	00H
	DB	00H
	DB	00H
	DB	00H
	DB	00H
	DB	00H
	DB	00H
	DB	00H
	DB	00H
	DB	00H
	DB	00H
	DB	00H
	DB	00H
	DB	00H
	DB	00H
	DB	00H
	DB	00H
	DB	00H
	DB	00H
	DB	00H
	DB	00H
	DB	00H
	DB	00H
	DB	00H
	DB	00H
	DB	00H
	DB	00H
	DB	00H
	DB	00H
	DB	00H
	DB	00H
	DB	00H
	DB	00H
	DB	00H
	DB	00H
	DB	00H
	DB	00H
	DB	00H
	DB	00H
	DB	00H
	DB	00H
	DB	00H
	DB	00H
	DB	00H
	DB	00H
	DB	00H
	DB	00H
	DB	00H
	DB	00H
	DB	00H
	DB	00H
	DB	00H
	DB	00H
	DB	00H
	DB	00H
	DB	00H
	DB	00H
	DB	00H
	DB	00H
	DB	00H
	DB	00H
	DB	00H
	DB	00H
	DB	00H
	DB	00H
	DB	00H
	DB	00H
	DB	00H
	DB	00H
	DB	00H
	DB	00H
	DB	00H
	DB	00H
	DB	00H
	DB	00H
	DB	00H
	DB	00H
	DB	00H
	DB	00H
	DB	00H
	DB	00H
	DB	00H
	DB	00H
	DB	00H
	DB	00H
	DB	00H
	DB	00H
	DB	00H
	DB	00H
	DB	00H
	DB	00H
	DB	00H
	DB	00H
	DB	00H
	DB	00H
	DB	00H
	DB	00H
	DB	00H
	DB	00H
	DB	00H
	DB	00H
	DB	00H
	DB	00H
	DB	00H
	DB	00H
	DB	00H
	DB	00H
	DB	00H
	DB	00H
	DB	00H
	DB	00H
	DB	00H
	DB	00H
	DB	00H
	DB	00H
	DB	00H
	DB	00H
	DB	00H
	DB	00H
	DB	00H
	DB	00H
	DB	00H
	DB	00H
	DB	00H
	DB	00H
	DB	00H
	DB	00H
	DB	00H
	DB	00H
	DB	00H
	DB	00H
	DB	00H
	DB	00H
	DB	00H
	DB	00H
	DB	00H
	DB	00H
	DB	00H
	DB	00H
	DB	00H
	DB	00H
	DB	00H
	DB	00H
	DB	00H
	DB	00H
	DB	00H
	DB	00H
	DB	00H
	DB	00H
	DB	00H
	DB	00H
	DB	00H
	DB	00H
	DB	00H
	DB	00H
	DB	00H
	DB	00H
	DB	00H
	DB	00H
	DB	00H
	DB	00H
	DB	00H
	DB	00H
	DB	00H
	DB	00H
	DB	00H
	DB	00H
	DB	00H
	DB	00H
	DB	00H
	DB	00H
	DB	00H
	DB	00H
	DB	00H
	DB	00H
	DB	00H
	DB	00H
	DB	00H
	DB	00H
	DB	00H
	DB	00H
	DB	00H
	DB	00H
	DB	00H
	DB	00H
	DB	00H
	DB	00H
	DB	00H
	DB	00H
	DB	00H
	DB	00H
	DB	00H
	DB	00H
	DB	00H
	DB	00H
	DB	00H
	DB	00H
	DB	00H
	DB	00H
	DB	00H
	DB	00H
	DB	00H
	DB	00H
	DB	00H
	DB	00H
	DB	00H
	DB	00H
	DB	00H
	DB	00H
	DB	00H
	DB	00H
	DB	00H
	DB	00H
	DB	00H
	DB	00H
	DB	00H
	DB	00H
	DB	00H
	DB	00H
	DB	00H
	DB	00H
	DB	00H
	DB	00H
	DB	00H
	DB	00H
	DB	00H
	DB	00H
	DB	00H
	DB	00H
	DB	00H
	DB	00H
	DB	00H
	DB	00H
	DB	00H
	DB	00H
	DB	00H
	DB	00H
	DB	00H
	DB	00H
	DB	00H
	DB	00H
	DB	00H
	DB	00H
	DB	00H
	DB	00H
	DB	00H
	DB	00H
	DB	00H
	DB	00H
	DB	00H
	DB	00H
	DB	00H
	DB	00H
	DB	00H
	DB	00H
	DB	00H
	DB	00H
	DB	00H
	DB	00H
	DB	00H
	DB	00H
	DB	00H
	DB	00H
	DB	00H
	DB	00H
	DB	00H
	DB	00H
	DB	00H
	DB	00H
	DB	00H
	DB	00H
	DB	00H
	DB	00H
	DB	00H
	DB	00H
	DB	00H
	DB	00H
	DB	00H
	DB	00H
	DB	00H
	DB	00H
	DB	00H
	DB	00H
	DB	00H
	DB	00H
	DB	00H
	DB	00H
	DB	00H
	DB	00H
	DB	00H
	DB	00H
	DB	00H
	DB	00H
	DB	00H
	DB	00H
	DB	00H
	DB	00H
	DB	00H
	DB	00H
	DB	00H
	DB	00H
	DB	00H
	DB	00H
	DB	00H
	DB	00H
	DB	00H
	DB	00H
	DB	00H
	DB	00H
	DB	00H
	DB	00H
	DB	00H
	DB	00H
	DB	00H
	DB	00H
	DB	00H
	DB	00H
	DB	00H
	DB	00H
	DB	00H
	DB	00H
	DB	00H
	DB	00H
	DB	00H
	DB	00H
	DB	00H
	DB	00H
	DB	00H
	DB	00H
	DB	00H
	DB	00H
	DB	00H
	DB	00H
	DB	00H
	DB	00H
	DB	00H
	DB	00H
	DB	00H
	DB	00H
	DB	00H
	DB	00H
	DB	00H
	DB	00H
	DB	00H
	DB	00H
	DB	00H
	DB	00H
	DB	00H
	DB	00H
	DB	00H
	DB	00H
	DB	00H
	DB	00H
	DB	00H
	DB	00H
	DB	00H
	DB	00H
	DB	00H
	DB	00H
	DB	00H
	DB	00H
	DB	00H
	DB	00H
	DB	00H
	DB	00H
	DB	00H
	DB	00H
	DB	00H
	DB	00H
	DB	00H
	DB	00H
	DB	00H
	DB	00H
	DB	00H
	DB	00H
	DB	00H
	DB	00H
	DB	00H
	DB	00H
	DB	00H
	DB	00H
	DB	00H
	DB	00H
	DB	00H
	DB	00H
	DB	00H
	DB	00H
	DB	00H
	DB	00H
	DB	00H
	DB	00H
	DB	00H
	DB	00H
	DB	00H
	DB	00H
	DB	00H
	DB	00H
	DB	00H
	DB	00H
	DB	00H
	DB	00H
	DB	00H
	DB	00H
	DB	00H
	DB	00H
	DB	00H
	DB	00H
	DB	00H
	DB	00H
	DB	00H
	DB	00H
	DB	00H
	DB	00H
	DB	00H
	DB	00H
	DB	00H
	DB	00H
	DB	00H
	DB	00H
	DB	00H
	DB	00H
	DB	00H
	DB	00H
	DB	00H
	DB	00H
	DB	00H
	DB	00H
	DB	00H
	DB	00H
	DB	00H
	DB	00H
	DB	00H
	DB	00H
	DB	00H
	DB	00H
	DB	00H
	DB	00H
	DB	00H
	DB	00H
	DB	00H
	DB	00H
	DB	00H
	DB	00H
	DB	00H
	DB	00H
	DB	00H
	DB	00H
	DB	00H
	DB	00H
	DB	00H
	DB	00H
	DB	00H
	DB	00H
	DB	00H
	DB	00H
	DB	00H
	DB	00H
	DB	00H
	DB	00H
	DB	00H
	DB	00H
	DB	00H
	DB	00H
	DB	00H
	DB	00H
	DB	00H
	DB	00H
	DB	00H
	DB	00H
	DB	00H
	DB	00H
	DB	00H
	DB	00H
	DB	00H
	DB	00H
	DB	00H
	DB	00H
	DB	00H
	DB	00H
	DB	00H
	DB	00H
	DB	00H
	DB	00H
	DB	00H
	DB	00H
	DB	00H
	DB	00H
	DB	00H
	DB	00H
	DB	00H
	DB	00H
	DB	00H
	DB	00H
	DB	00H
	DB	00H
	DB	00H
	DB	00H
	DB	00H
	DB	00H
	DB	00H
	DB	00H
	DB	00H
	DB	00H
	DB	00H
	DB	00H
	DB	00H
	DB	00H
	DB	00H
	DB	00H
	DB	00H
	DB	00H
	DB	00H
	DB	00H
	DB	00H
	DB	00H
	DB	00H
	DB	00H
	DB	00H
	DB	00H
	DB	00H
	DB	00H
	DB	00H
	DB	00H
	DB	00H
	DB	00H
	DB	00H
	DB	00H
	DB	00H
	DB	00H
	DB	00H
	DB	00H
	DB	00H
	DB	00H
	DB	00H
	DB	00H
	DB	00H
	DB	00H
	DB	00H
	DB	00H
	DB	00H
	DB	00H
	DB	00H
	DB	00H
	DB	00H
	DB	00H
	DB	00H
	DB	00H
	DB	00H
	DB	00H
	DB	00H
	DB	00H
	DB	00H
	DB	00H
	DB	00H
	DB	00H
	DB	00H
	DB	00H
	DB	00H
	DB	00H
	DB	00H
	DB	00H
	DB	00H
	DB	00H
	DB	00H
	DB	00H
	DB	00H
	DB	00H
	DB	00H
	DB	00H
	DB	00H
	DB	00H
	DB	00H
	DB	00H
	DB	00H
	DB	00H
	DB	00H
	DB	00H
	DB	00H
	DB	00H
	DB	00H
	DB	00H
	DB	00H
	DB	00H
	DB	00H
	DB	00H
	DB	00H
	DB	00H
	DB	00H
	DB	00H
	DB	00H
	DB	00H
	DB	00H
	DB	00H
	DB	00H
	DB	00H
	DB	00H
	DB	00H
	DB	00H
	DB	00H
	DB	00H
	DB	00H
	DB	00H
	DB	00H
	DB	00H
	DB	00H
	DB	00H
	DB	00H
	DB	00H
	DB	00H
	DB	00H
	DB	00H
	DB	00H
	DB	00H
	DB	00H
	DB	00H
	DB	00H
	DB	00H
	DB	00H
	DB	00H
	DB	00H
	DB	00H
	DB	00H
	DB	00H
	DB	00H
	DB	00H
	DB	00H
	DB	00H
	DB	00H
	DB	00H
	DB	00H
	DB	00H
	DB	00H
	DB	00H
	DB	00H
	DB	00H
	DB	00H
	DB	00H
	DB	00H
	DB	00H
	DB	00H
	DB	00H
	DB	00H
	DB	00H
	DB	00H
	DB	00H
	DB	00H
	DB	00H
	DB	00H
	DB	00H
	DB	00H
	DB	00H
	DB	00H
	DB	00H
	DB	00H
	DB	00H
	DB	00H
	DB	00H
	DB	00H
	DB	00H
	DB	00H
	DB	00H
	DB	00H
	DB	00H
	DB	00H
	DB	00H
	DB	00H
	DB	00H
	DB	00H
	DB	00H
	DB	00H
	DB	00H
	DB	00H
	DB	00H
	DB	00H
	DB	00H
	DB	00H
	DB	00H
	DB	00H
	DB	00H
	DB	00H
	DB	00H
	DB	00H
	DB	00H
	DB	00H
	DB	00H
	DB	00H
	DB	00H
	DB	00H
	DB	00H
	DB	00H
	DB	00H
	DB	00H
	DB	00H
	DB	00H
	DB	00H
	DB	00H
	DB	00H
	DB	00H
	DB	00H
	DB	00H
	DB	00H
	DB	00H
	DB	00H
	DB	00H
	DB	00H
	DB	00H
	DB	00H
	DB	00H
	DB	00H
	DB	00H
	DB	00H
	DB	00H
	DB	00H
	DB	00H
	DB	00H
	DB	00H
	DB	00H
	DB	00H
	DB	00H
	DB	00H
	DB	00H
	DB	00H
	DB	00H
	DB	00H
	DB	00H
	DB	00H
	DB	00H
	DB	00H
	DB	00H
	DB	00H
	DB	00H
	DB	00H
	DB	00H
	DB	00H
	DB	00H
	DB	00H
	DB	00H
	DB	00H
	DB	00H
	DB	00H
	DB	00H
	DB	00H
	DB	00H
	DB	00H
	DB	00H
	DB	00H
	DB	00H
	DB	00H
	DB	00H
	DB	00H
	DB	00H
	DB	00H
	DB	00H
	DB	00H
	DB	00H
	DB	00H
	DB	00H
	DB	00H
	DB	00H
	DB	00H
	DB	00H
	DB	00H
	DB	00H
	DB	00H
	DB	00H
	DB	00H
	DB	00H
	DB	00H
	DB	00H
	DB	00H
	DB	00H
	DB	00H
	DB	00H
	DB	00H
	DB	00H
	DB	00H
	DB	00H
	DB	00H
	DB	00H
	DB	00H
	DB	00H
	DB	00H
	DB	00H
	DB	00H
	DB	00H
	DB	00H
	DB	00H
	DB	00H
	DB	00H
	DB	00H
	DB	00H
	DB	00H
	DB	00H
	DB	00H
	DB	00H
	DB	00H
	DB	00H
	DB	00H
	DB	00H
	DB	00H
	DB	00H
	DB	00H
	DB	00H
	DB	00H
	DB	00H
	DB	00H
	DB	00H
	DB	00H
	DB	00H
	DB	00H
	DB	00H
	DB	00H
	DB	00H
	DB	00H
	DB	00H
	DB	00H
	DB	00H
	DB	00H
	DB	00H
	DB	00H
	DB	00H
	DB	00H
	DB	00H
	DB	00H
	DB	00H
	DB	00H
	DB	00H
	DB	00H
	DB	00H
	DB	00H
	DB	00H
	DB	00H
	DB	00H
	DB	00H
	DB	00H
	DB	00H
	DB	00H
	DB	00H
	DB	00H
	DB	00H
	DB	00H
	DB	00H
	DB	00H
	DB	00H
	DB	00H
	DB	00H
	DB	00H
	DB	00H
	DB	00H
	DB	00H
	DB	00H
	DB	00H
	DB	00H
	DB	00H
	DB	00H
	DB	00H
	DB	00H
	DB	00H
	DB	00H
	DB	00H
	DB	00H
	DB	00H
	DB	00H
	DB	00H
	DB	00H
	DB	00H
	DB	00H
	DB	00H
	DB	00H
	DB	00H
	DB	00H
	DB	00H
	DB	00H
	DB	00H
	DB	00H
	DB	00H
	DB	00H
	DB	00H
	DB	00H
	DB	00H
	DB	00H
	DB	00H
	DB	00H
	DB	00H
	DB	00H
	DB	00H
	DB	00H
	DB	00H
	DB	00H
	DB	00H
	DB	00H
	DB	00H
	DB	00H
	DB	00H
	DB	00H
	DB	00H
	DB	00H
	DB	00H
	DB	00H
	DB	00H
	DB	00H
	DB	00H
	DB	00H
	DB	00H
	DB	00H
	DB	00H
	DB	00H
	DB	00H
	DB	00H
	DB	00H
	DB	00H
	DB	00H
	DB	00H
	DB	00H
	DB	00H
	DB	00H
	DB	00H
	DB	00H
	DB	00H
	DB	00H
	DB	00H
	DB	00H
	DB	00H
	DB	00H
	DB	00H
	DB	00H
	DB	00H
	DB	00H
	DB	00H
	DB	00H
	DB	00H
	DB	00H
	DB	00H
	DB	00H
	DB	00H
	DB	00H
	DB	00H
	DB	00H
	DB	00H
	DB	00H
	DB	00H
	DB	00H
	DB	00H
	DB	00H
	DB	00H
	DB	00H
	DB	00H
	DB	00H
	DB	00H
	DB	00H
	DB	00H
	DB	00H
	DB	00H
	DB	00H
	DB	00H
	DB	00H
	DB	00H
	DB	00H
	DB	00H
	DB	00H
	DB	00H
	DB	00H
	DB	00H
	DB	00H
	DB	00H
	DB	00H
	DB	00H
	DB	00H
	DB	00H
	DB	00H
	DB	00H
	DB	00H
	DB	00H
	DB	00H
	DB	00H
	DB	00H
	DB	00H
	DB	00H
	DB	00H
	DB	00H
	DB	00H
	DB	00H
	DB	00H
	DB	00H
	DB	00H
	DB	00H
	DB	00H
	DB	00H
	DB	00H
	DB	00H
	DB	00H
	DB	00H
	DB	00H
	DB	00H
	DB	00H
	DB	00H
	DB	00H
	DB	00H
	DB	00H
	DB	00H
	DB	00H
	DB	00H
	DB	00H
	DB	00H
	DB	00H
	DB	00H
	DB	00H
	DB	00H
	DB	00H
	DB	00H
	DB	00H
	DB	00H
	DB	00H
	DB	00H
	DB	00H
	DB	00H
	DB	00H
	DB	00H
	DB	00H
	DB	00H
	DB	00H
	DB	00H
	DB	00H
	DB	00H
	DB	00H
	DB	00H
	DB	00H
	DB	00H
	DB	00H
	DB	00H
	DB	00H
	DB	00H
	DB	00H
	DB	00H
	DB	00H
	DB	00H
	DB	00H
	DB	00H
	DB	00H
	DB	00H
	DB	00H
	DB	00H
	DB	00H
	DB	00H
	DB	00H
	DB	00H
	DB	00H
	DB	00H
	DB	00H
	DB	00H
	DB	00H
	DB	00H
	DB	00H
	DB	00H
	DB	00H
	DB	00H
	DB	00H
	DB	00H
	DB	00H
	DB	00H
	DB	00H
	DB	00H
	DB	00H
	DB	00H
	DB	00H
	DB	00H
	DB	00H
	DB	00H
	DB	00H
	DB	00H
	DB	00H
	DB	00H
	DB	00H
	DB	00H
	DB	00H
	DB	00H
	DB	00H
	DB	00H
	DB	00H
	DB	00H
	DB	00H
	DB	00H
	DB	00H
	DB	00H
	DB	00H
	DB	00H
	DB	00H
	DB	00H
	DB	00H
	DB	00H
	DB	00H
	DB	00H
	DB	00H
	DB	00H
	DB	00H
	DB	00H
	DB	00H
	DB	00H
	DB	00H
	DB	00H
	DB	00H
	DB	00H
	DB	00H
	DB	00H
	DB	00H
	DB	00H
	DB	00H
	DB	00H
	DB	00H
	DB	00H
	DB	00H
	DB	00H
	DB	00H
	DB	00H
	DB	00H
	DB	00H
	DB	00H
	DB	00H
	DB	00H
	DB	00H
	DB	00H
	DB	00H
	DB	00H
	DB	00H
	DB	00H
	DB	00H
	DB	00H
	DB	00H
	DB	00H
	DB	00H
	DB	00H
	DB	00H
	DB	00H
	DB	00H
	DB	00H
	DB	00H
	DB	00H
	DB	00H
	DB	00H
	DB	00H
	DB	00H
	DB	00H
	DB	00H
	DB	00H
	DB	00H
	DB	00H
	DB	00H
	DB	00H
	DB	00H
	DB	00H
	DB	00H
	DB	00H
	DB	00H
	DB	00H
	DB	00H
	DB	00H
	DB	00H
	DB	00H
	DB	00H
	DB	00H
	DB	00H
	DB	00H
	DB	00H
	DB	00H
	DB	00H
	DB	00H
	DB	00H
	DB	00H
	DB	00H
	DB	00H
	DB	00H
	DB	00H
	DB	00H
	DB	00H
	DB	00H
	DB	00H
	DB	00H
	DB	00H
	DB	00H
	DB	00H
	DB	00H
	DB	00H
	DB	00H
	DB	00H
	DB	00H
	DB	00H
	DB	00H
	DB	00H
	DB	00H
	DB	00H
	DB	00H
	DB	00H
	DB	00H
	DB	00H
	DB	00H
	DB	00H
	DB	00H
	DB	00H
	DB	00H
	DB	00H
	DB	00H
	DB	00H
	DB	00H
	DB	00H
	DB	00H
	DB	00H
	DB	00H
	DB	00H
	DB	00H
	DB	00H
	DB	00H
	DB	00H
	DB	00H
	DB	00H
	DB	00H
	DB	00H
	DB	00H
	DB	00H
	DB	00H
	DB	00H
	DB	00H
	DB	00H
	DB	00H
	DB	00H
	DB	00H
	DB	00H
	DB	00H
	DB	00H
	DB	00H
	DB	00H
	DB	00H
	DB	00H
	DB	00H
	DB	00H
	DB	00H
	DB	00H
	DB	00H
	DB	00H
	DB	00H
	DB	00H
	DB	00H
	DB	00H
	DB	00H
	DB	00H
	DB	00H
	DB	00H
	DB	00H
	DB	00H
	DB	00H
	DB	00H
	DB	00H
	DB	00H
	DB	00H
	DB	00H
	DB	00H
	DB	00H
	DB	00H
	DB	00H
	DB	00H
	DB	00H
	DB	00H
	DB	00H
	DB	00H
	DB	00H
	DB	00H
	DB	00H
	DB	00H
	DB	00H
	DB	00H
	DB	00H
	DB	00H
	DB	00H
	DB	00H
	DB	00H
	DB	00H
	DB	00H
	DB	00H
	DB	00H
	DB	00H
	DB	00H
	DB	00H
	DB	00H
	DB	00H
	DB	00H
	DB	00H
	DB	00H
	DB	00H
	DB	00H
	DB	00H
	DB	00H
	DB	00H
	DB	00H
	DB	00H
	DB	00H
	DB	00H
	DB	00H
	DB	00H
	DB	00H
	DB	00H
	DB	00H
	DB	00H
	DB	00H
	DB	00H
	DB	00H
	DB	00H
	DB	00H
	DB	00H
	DB	00H
	DB	00H
	DB	00H
	DB	00H
	DB	00H
	DB	00H
	DB	00H
	DB	00H
	DB	00H
	DB	00H
	DB	00H
	DB	00H
	DB	00H
	DB	00H
	DB	00H
	DB	00H
	DB	00H
	DB	00H
	DB	00H
	DB	00H
	DB	00H
	DB	00H
	DB	00H
	DB	00H
	DB	00H
	DB	00H
	DB	00H
	DB	00H
	DB	00H
	DB	00H
	DB	00H
	DB	00H
	DB	00H
	DB	00H
	DB	00H
	DB	00H
	DB	00H
	DB	00H
	DB	00H
	DB	00H
	DB	00H
	DB	00H
	DB	00H
	DB	00H
	DB	00H
	DB	00H
	DB	00H
	DB	00H
	DB	00H
	DB	00H
	DB	00H
	DB	00H
	DB	00H
	DB	00H
	DB	00H
	DB	00H
	DB	00H
	DB	00H
	DB	00H
	DB	00H
	DB	00H
	DB	00H
	DB	00H
	DB	00H
	DB	00H
	DB	00H
	DB	00H
	DB	00H
	DB	00H
	DB	00H
	DB	00H
	DB	00H
	DB	00H
	DB	00H
	DB	00H
	DB	00H
	DB	00H
	DB	00H
	DB	00H
	DB	00H
	DB	00H
	DB	00H
	DB	00H
	DB	00H
	DB	00H
	DB	00H
	DB	00H
	DB	00H
	DB	00H
	DB	00H
	DB	00H
	DB	00H
	DB	00H
	DB	00H
	DB	00H
	DB	00H
	DB	00H
	DB	00H
	DB	00H
	DB	00H
	DB	00H
	DB	00H
	DB	00H
	DB	00H
	DB	00H
	DB	00H
	DB	00H
	DB	00H
	DB	00H
	DB	00H
	DB	00H
	DB	00H
	DB	00H
	DB	00H
	DB	00H
	DB	00H
	DB	00H
	DB	00H
	DB	00H
	DB	00H
	DB	00H
	DB	00H
	DB	00H
	DB	00H
	DB	00H
	DB	00H
	DB	00H
	DB	00H
	DB	00H
	DB	00H
	DB	00H
	DB	00H
	DB	00H
	DB	00H
	DB	00H
	DB	00H
	DB	00H
	DB	00H
	DB	00H
	DB	00H
	DB	00H
	DB	00H
	DB	00H
	DB	00H
	DB	00H
	DB	00H
	DB	00H
	DB	00H
	DB	00H
	DB	00H
	DB	00H
	DB	00H
	DB	00H
	DB	00H
	DB	00H
	DB	00H
	DB	00H
	DB	00H
	DB	00H
	DB	00H
	DB	00H
	DB	00H
	DB	00H
	DB	00H
	DB	00H
	DB	00H
	DB	00H
	DB	00H
	DB	00H
	DB	00H
	DB	00H
	DB	00H
	DB	00H
	DB	00H
	DB	00H
	DB	00H
	DB	00H
	DB	00H
	DB	00H
	DB	00H
	DB	00H
	DB	00H
	DB	00H
	DB	00H
	DB	00H
	DB	00H
	DB	00H
	DB	00H
	DB	00H
	DB	00H
	DB	00H
	DB	00H
	DB	00H
	DB	00H
	DB	00H
	DB	00H
	DB	00H
	DB	00H
	DB	00H
	DB	00H
	DB	00H
	DB	00H
	DB	00H
	DB	00H
	DB	00H
	DB	00H
	DB	00H
	DB	00H
	DB	00H
	DB	00H
	DB	00H
	DB	00H
	DB	00H
	DB	00H
	DB	00H
	DB	00H
	DB	00H
	DB	00H
	DB	00H
	DB	00H
	DB	00H
	DB	00H
	DB	00H
	DB	00H
	DB	00H
	DB	00H
	DB	00H
	DB	00H
	DB	00H
	DB	00H
	DB	00H
	DB	00H
	DB	00H
	DB	00H
	DB	00H
	DB	00H
	DB	00H
	DB	00H
	DB	00H
	DB	00H
	DB	00H
	DB	00H
	DB	00H
	DB	00H
	DB	00H
	DB	00H
	DB	00H
	DB	00H
	DB	00H
	DB	00H
	DB	00H
	DB	00H
	DB	00H
	DB	00H
	DB	00H
	DB	00H
	DB	00H
	DB	00H
	DB	00H
	DB	00H
	DB	00H
	DB	00H
	DB	00H
	DB	00H
	DB	00H
	DB	00H
	DB	00H
	DB	00H
	DB	00H
	DB	00H
	DB	00H
	DB	00H
	DB	00H
	DB	00H
	DB	00H
	DB	00H
	DB	00H
	DB	00H
	DB	00H
	DB	00H
	DB	00H
	DB	00H
	DB	00H
	DB	00H
	DB	00H
	DB	00H
	DB	00H
	DB	00H
	DB	00H
	DB	00H
	DB	00H
	DB	00H
	DB	00H
	DB	00H
	DB	00H
	DB	00H
	DB	00H
	DB	00H
	DB	00H
	DB	00H
	DB	00H
	DB	00H
	DB	00H
	DB	00H
	DB	00H
	DB	00H
	DB	00H
	DB	00H
	DB	00H
	DB	00H
	DB	00H
	DB	00H
	DB	00H
	DB	00H
	DB	00H
	DB	00H
	DB	00H
	DB	00H
	DB	00H
	DB	00H
	DB	00H
	DB	00H
	DB	00H
	DB	00H
	DB	00H
	DB	00H
	DB	00H
	DB	00H
	DB	00H
	DB	00H
	DB	00H
	DB	00H
	DB	00H
	DB	00H
	DB	00H
	DB	00H
	DB	00H
	DB	00H
	DB	00H
	DB	00H
	DB	00H
	DB	00H
	DB	00H
	DB	00H
	DB	00H
	DB	00H
	DB	00H
	DB	00H
	DB	00H
	DB	00H
	DB	00H
	DB	00H
	DB	00H
	DB	00H
	DB	00H
	DB	00H
	DB	00H
	DB	00H
	DB	00H
	DB	00H
	DB	00H
	DB	00H
	DB	00H
	DB	00H
	DB	00H
	DB	00H
	DB	00H
	DB	00H
	DB	00H
	DB	00H
	DB	00H
	DB	00H
	DB	00H
	DB	00H
	DB	00H
	DB	00H
	DB	00H
	DB	00H
	DB	00H
	DB	00H
	DB	00H
	DB	00H
	DB	00H
	DB	00H
	DB	00H
	DB	00H
	DB	00H
	DB	00H
	DB	00H
	DB	00H
	DB	00H
	DB	00H
	DB	00H
	DB	00H
	DB	00H
	DB	00H
	DB	00H
	DB	00H
	DB	00H
	DB	00H
	DB	00H
	DB	00H
	DB	00H
	DB	00H
	DB	00H
	DB	00H
	DB	00H
	DB	00H
	DB	00H
	DB	00H
	DB	00H
	DB	00H
	DB	00H
	DB	00H
	DB	00H
	DB	00H
	DB	00H
	DB	00H
	DB	00H
	DB	00H
	DB	00H
	DB	00H
	DB	00H
	DB	00H
	DB	00H
	DB	00H
	DB	00H
	DB	00H
	DB	00H
	DB	00H
	DB	00H
	DB	00H
	DB	00H
	DB	00H
	DB	00H
	DB	00H
	DB	00H
	DB	00H
	DB	00H
	DB	00H
	DB	00H
	DB	00H
	DB	00H
	DB	00H
	DB	00H
	DB	00H
	DB	00H
	DB	00H
	DB	00H
	DB	00H
	DB	00H
	DB	00H
	DB	00H
	DB	00H
	DB	00H
	DB	00H
	DB	00H
	DB	00H
	DB	00H
	DB	00H
	DB	00H
	DB	00H
	DB	00H
	DB	00H
	DB	00H
	DB	00H
	DB	00H
	DB	00H
	DB	00H
	DB	00H
	DB	00H
	DB	00H
	DB	00H
	DB	00H
	DB	00H
	DB	00H
	DB	00H
	DB	00H
	DB	00H
	DB	00H
	DB	00H
	DB	00H
	DB	00H
	DB	00H
	DB	00H
	DB	00H
	DB	00H
	DB	00H
	DB	00H
	DB	00H
	DB	00H
	DB	00H
	DB	00H
	DB	00H
	DB	00H
	DB	00H
	DB	00H
	DB	00H
	DB	00H
	DB	00H
	DB	00H
	DB	00H
	DB	00H
	DB	00H
	DB	00H
	DB	00H
	DB	00H
	DB	00H
	DB	00H
	DB	00H
	DB	00H
	DB	00H
	DB	00H
	DB	00H
	DB	00H
	DB	00H
	DB	00H
	DB	00H
	DB	00H
	DB	00H
	DB	00H
	DB	00H
	DB	00H
	DB	00H
	DB	00H
	DB	00H
	DB	00H
	DB	00H
	DB	00H
	DB	00H
	DB	00H
	DB	00H
	DB	00H
	DB	00H
	DB	00H
	DB	00H
	DB	00H
	DB	00H
	DB	00H
	DB	00H
	DB	00H
	DB	00H
	DB	00H
	DB	00H
	DB	00H
	DB	00H
	DB	00H
	DB	00H
	DB	00H
	DB	00H
	DB	00H
	DB	00H
	DB	00H
	DB	00H
	DB	00H
	DB	00H
	DB	00H
	DB	00H
	DB	00H
	DB	00H
	DB	00H
	DB	00H
	DB	00H
	DB	00H
	DB	00H
	DB	00H
	DB	00H
	DB	00H
	DB	00H
	DB	00H
	DB	00H
	DB	00H
	DB	00H
	DB	00H
	DB	00H
	DB	00H
	DB	00H
	DB	00H
	DB	00H
	DB	00H
	DB	00H
	DB	00H
	DB	00H
	DB	00H
	DB	00H
	DB	00H
	DB	00H
	DB	00H
	DB	00H
	DB	00H
	DB	00H
	DB	00H
	DB	00H
	DB	00H
	DB	00H
	DB	00H
	DB	00H
	DB	00H
	DB	00H
	DB	00H
	DB	00H
	DB	00H
	DB	00H
	DB	00H
	DB	00H
	DB	00H
	DB	00H
	DB	00H
	DB	00H
	DB	00H
	DB	00H
	DB	00H
	DB	00H
	DB	00H
	DB	00H
	DB	00H
	DB	00H
	DB	00H
	DB	00H
	DB	00H
	DB	00H
	DB	00H
	DB	00H
	DB	00H
	DB	00H
	DB	00H
	DB	00H
	DB	00H
	DB	00H
	DB	00H
	DB	00H
	DB	00H
	DB	00H
	DB	00H
	DB	00H
	DB	00H
	DB	00H
	DB	00H
	DB	00H
	DB	00H
	DB	00H
	DB	00H
	DB	00H
	DB	00H
	DB	00H
	DB	00H
	DB	00H
	DB	00H
	DB	00H
	DB	00H
	DB	00H
	DB	00H
	DB	00H
	DB	00H
	DB	00H
	DB	00H
	DB	00H
	DB	00H
	DB	00H
	DB	00H
	DB	00H
	DB	00H
	DB	00H
	DB	00H
	DB	00H
	DB	00H
	DB	00H
	DB	00H
	DB	00H
	DB	00H
	DB	00H
	DB	00H
	DB	00H
	DB	00H
	DB	00H
	DB	00H
	DB	00H
	DB	00H
	DB	00H
	DB	00H
	DB	00H
	DB	00H
	DB	00H
	DB	00H
	DB	00H
	DB	00H
	DB	00H
	DB	00H
	DB	00H
	DB	00H
	DB	00H
	DB	00H
	DB	00H
	DB	00H
	DB	00H
	DB	00H
	DB	00H
	DB	00H
	DB	00H
	DB	00H
	DB	00H
	DB	00H
	DB	00H
	DB	00H
	DB	00H
	DB	00H
	DB	00H
	DB	00H
	DB	00H
	DB	00H
	DB	00H
	DB	00H
	DB	00H
	DB	00H
	DB	00H
	DB	00H
	DB	00H
	DB	00H
	DB	00H
	DB	00H
	DB	00H
	DB	00H
	DB	00H
	DB	00H
	DB	00H
	DB	00H
	DB	00H
	DB	00H
	DB	00H
	DB	00H
	DB	00H
	DB	00H
	DB	00H
	DB	00H
	DB	00H
	DB	00H
	DB	00H
	DB	00H
	DB	00H
	DB	00H
	DB	00H
	DB	00H
	DB	00H
	DB	00H
	DB	00H
	DB	00H
	DB	00H
	DB	00H
	DB	00H
	DB	00H
	DB	00H
	DB	00H
	DB	00H
	DB	00H
	DB	00H
	DB	00H
	DB	00H
	DB	00H
	DB	00H
	DB	00H
	DB	00H
	DB	00H
	DB	00H
	DB	00H
	DB	00H
	DB	00H
	DB	00H
	DB	00H
	DB	00H
	DB	00H
	DB	00H
	DB	00H
	DB	00H
	DB	00H
	DB	00H
	DB	00H
	DB	00H
	DB	00H
	DB	00H
	DB	00H
	DB	00H
	DB	00H
	DB	00H
	DB	00H
	DB	00H
	DB	00H
	DB	00H
	DB	00H
	DB	00H
	DB	00H
	DB	00H
	DB	00H
	DB	00H
	DB	00H
	DB	00H
	DB	00H
	DB	00H
	DB	00H
	DB	00H
	DB	00H
	DB	00H
	DB	00H
	DB	00H
	DB	00H
	DB	00H
	DB	00H
	DB	00H
	DB	00H
	DB	00H
	DB	00H
	DB	00H
	DB	00H
	DB	00H
	DB	00H
	DB	00H
	DB	00H
	DB	00H
	DB	00H
	DB	00H
	DB	00H
	DB	00H
	DB	00H
	DB	00H
	DB	00H
	DB	00H
	DB	00H
	DB	00H
	DB	00H
	DB	00H
	DB	00H
	DB	00H
	DB	00H
	DB	00H
	DB	00H
	DB	00H
	DB	00H
	DB	00H
	DB	00H
	DB	00H
	DB	00H
	DB	00H
	DB	00H
	DB	00H
	DB	00H
	DB	00H
	DB	00H
	DB	00H
	DB	00H
	DB	00H
	DB	00H
	DB	00H
	DB	00H
	DB	00H
	DB	00H
	DB	00H
	DB	00H
	DB	00H
	DB	00H
	DB	00H
	DB	00H
	DB	00H
	DB	00H
	DB	00H
	DB	00H
	DB	00H
	DB	00H
	DB	00H
	DB	00H
	DB	00H
	DB	00H
	DB	00H
	DB	00H
	DB	00H
	DB	00H
	DB	00H
	DB	00H
	DB	00H
	DB	00H
	DB	00H
	DB	00H
	DB	00H
	DB	00H
	DB	00H
	DB	00H
	DB	00H
	DB	00H
	DB	00H
	DB	00H
	DB	00H
	DB	00H
	DB	00H
	DB	00H
	DB	00H
	DB	00H
	DB	00H
	DB	00H
	DB	00H
	DB	00H
	DB	00H
	DB	00H
	DB	00H
	DB	00H
	DB	00H
	DB	00H
	DB	00H
	DB	00H
	DB	00H
	DB	00H
	DB	00H
	DB	00H
	DB	00H
	DB	00H
	DB	00H
	DB	00H
	DB	00H
	DB	00H
	DB	00H
	DB	00H
	DB	00H
	DB	00H
	DB	00H
	DB	00H
	DB	00H
	DB	00H
	DB	00H
	DB	00H
	DB	00H
	DB	00H
	DB	00H
	DB	00H
	DB	00H
	DB	00H
	DB	00H
	DB	00H
	DB	00H
	DB	00H
	DB	00H
	DB	00H
	DB	00H
	DB	00H
	DB	00H
	DB	00H
	DB	00H
	DB	00H
	DB	00H
	DB	00H
	DB	00H
	DB	00H
	DB	00H
	DB	00H
	DB	00H
	DB	00H
	DB	00H
	DB	00H
	DB	00H
	DB	00H
	DB	00H
	DB	00H
	DB	00H
	DB	00H
	DB	00H
	DB	00H
	DB	00H
	DB	00H
	DB	00H
	DB	00H
	DB	00H
	DB	00H
	DB	00H
	DB	00H
	DB	00H
	DB	00H
	DB	00H
	DB	00H
	DB	00H
	DB	00H
	DB	00H
	DB	00H
	DB	00H
	DB	00H
	DB	00H
	DB	00H
	DB	00H
	DB	00H
	DB	00H
	DB	00H
	DB	00H
	DB	00H
	DB	00H
	DB	00H
	DB	00H
	DB	00H
	DB	00H
	DB	00H
	DB	00H
	DB	00H
	DB	00H
	DB	00H
	DB	00H
	DB	00H
	DB	00H
	DB	00H
	DB	00H
	DB	00H
	DB	00H
	DB	00H
	DB	00H
	DB	00H
	DB	00H
	DB	00H
	DB	00H
	DB	00H
	DB	00H
	DB	00H
	DB	00H
	DB	00H
	DB	00H
	DB	00H
	DB	00H
	DB	00H
	DB	00H
	DB	00H
	DB	00H
	DB	00H
	DB	00H
	DB	00H
	DB	00H
	DB	00H
	DB	00H
	DB	00H
	DB	00H
	DB	00H
	DB	00H
	DB	00H
	DB	00H
	DB	00H
	DB	00H
	DB	00H
	DB	00H
	DB	00H
	DB	00H
	DB	00H
	DB	00H
	DB	00H
	DB	00H
	DB	00H
	DB	00H
	DB	00H
	DB	00H
	DB	00H
	DB	00H
	DB	00H
	DB	00H
	DB	00H
	DB	00H
	DB	00H
	DB	00H
	DB	00H
	DB	00H
	DB	00H
	DB	00H
	DB	00H
	DB	00H
	DB	00H
	DB	00H
	DB	00H
	DB	00H
	DB	00H
	DB	00H
	DB	00H
	DB	00H
	DB	00H
	DB	00H
	DB	00H
	DB	00H
	DB	00H
	DB	00H
	DB	00H
	DB	00H
	DB	00H
	DB	00H
	DB	00H
	DB	00H
	DB	00H
	DB	00H
	DB	00H
	DB	00H
	DB	00H
	DB	00H
	DB	00H
	DB	00H
	DB	00H
	DB	00H
	DB	00H
	DB	00H
	DB	00H
	DB	00H
	DB	00H
	DB	00H
	DB	00H
	DB	00H
	DB	00H
	DB	00H
	DB	00H
	DB	00H
	DB	00H
	DB	00H
	DB	00H
	DB	00H
	DB	00H
	DB	00H
	DB	00H
	DB	00H
	DB	00H
	DB	00H
	DB	00H
	DB	00H
	DB	00H
	DB	00H
	DB	00H
	DB	00H
	DB	00H
	DB	00H
	DB	00H
	DB	00H
	DB	00H
	DB	00H
	DB	00H
	DB	00H
	DB	00H
	DB	00H
	DB	00H
	DB	00H
	DB	00H
	DB	00H
	DB	00H
	DB	00H
	DB	00H
	DB	00H
	DB	00H
	DB	00H
	DB	00H
	DB	00H
	DB	00H
	DB	00H
	DB	00H
	DB	00H
	DB	00H
	DB	00H
	DB	00H
	DB	00H
	DB	00H
	DB	00H
	DB	00H
	DB	00H
	DB	00H
	DB	00H
	DB	00H
	DB	00H
	DB	00H
	DB	00H
	DB	00H
	DB	00H
	DB	00H
	DB	00H
	DB	00H
	DB	00H
	DB	00H
	DB	00H
	DB	00H
	DB	00H
	DB	00H
	DB	00H
	DB	00H
	DB	00H
	DB	00H
	DB	00H
	DB	00H
	DB	00H
	DB	00H
	DB	00H
	DB	00H
	DB	00H
	DB	00H
	DB	00H
	DB	00H
	DB	00H
	DB	00H
	DB	00H
	DB	00H
	DB	00H
	DB	00H
	DB	00H
	DB	00H
	DB	00H
	DB	00H
	DB	00H
	DB	00H
	DB	00H
	DB	00H
	DB	00H
	DB	00H
	DB	00H
	DB	00H
	DB	00H
	DB	00H
	DB	00H
	DB	00H
	DB	00H
	DB	00H
	DB	00H
	DB	00H
	DB	00H
	DB	00H
	DB	00H
	DB	00H
	DB	00H
	DB	00H
	DB	00H
	DB	00H
	DB	00H
	DB	00H
	DB	00H
	DB	00H
	DB	00H
	DB	00H
	DB	00H
	DB	00H
	DB	00H
	DB	00H
	DB	00H
	DB	00H
	DB	00H
	DB	00H
	DB	00H
	DB	00H
	DB	00H
	DB	00H
	DB	00H
	DB	00H
	DB	00H
	DB	00H
	DB	00H
	DB	00H
	DB	00H
	DB	00H
	DB	00H
	DB	00H
	DB	00H
	DB	00H
	DB	00H
	DB	00H
	DB	00H
	DB	00H
	DB	00H
	DB	00H
	DB	00H
	DB	00H
	DB	00H
	DB	00H
	DB	00H
	DB	00H
	DB	00H
	DB	00H
	DB	00H
	DB	00H
	DB	00H
	DB	00H
	DB	00H
	DB	00H
	DB	00H
	DB	00H
	DB	00H
	DB	00H
	DB	00H
	DB	00H
	DB	00H
	DB	00H
	DB	00H
	DB	00H
	DB	00H
	DB	00H
	DB	00H
	DB	00H
	DB	00H
	DB	00H
	DB	00H
	DB	00H
	DB	00H
	DB	00H
	DB	00H
	DB	00H
	DB	00H
	DB	00H
	DB	00H
	DB	00H
	DB	00H
	DB	00H
	DB	00H
	DB	00H
	DB	00H
	DB	00H
	DB	00H
	DB	00H
	DB	00H
	DB	00H
	DB	00H
	DB	00H
	DB	00H
	DB	00H
	DB	00H
	DB	00H
	DB	00H
	DB	00H
	DB	00H
	DB	00H
	DB	00H
	DB	00H
	DB	00H
	DB	00H
	DB	00H
	DB	00H
	DB	00H
	DB	00H
	DB	00H
	DB	00H
	DB	00H
	DB	00H
	DB	00H
	DB	00H
	DB	00H
	DB	00H
	DB	00H
	DB	00H
	DB	00H
	DB	00H
	DB	00H
	DB	00H
	DB	00H
	DB	00H
	DB	00H
	DB	00H
	DB	00H
	DB	00H
	DB	00H
	DB	00H
	DB	00H
	DB	00H
	DB	00H
	DB	00H
	DB	00H
	DB	00H
	DB	00H
	DB	00H
	DB	00H
	DB	00H
	DB	00H
	DB	00H
	DB	00H
	DB	00H
	DB	00H
	DB	00H
	DB	00H
	DB	00H
	DB	00H
	DB	00H
	DB	00H
	DB	00H
	DB	00H
	DB	00H
	DB	00H
	DB	00H
	DB	00H
	DB	00H
	DB	00H
	DB	00H
	DB	00H
	DB	00H
	DB	00H
	DB	00H
	DB	00H
	DB	00H
	DB	00H
	DB	00H
	DB	00H
	DB	00H
	DB	00H
	DB	00H
	DB	00H
	DB	00H
	DB	00H
	DB	00H
	DB	00H
	DB	00H
	DB	00H
	DB	00H
	DB	00H
	DB	00H
	DB	00H
	DB	00H
	DB	00H
	DB	00H
	DB	00H
	DB	00H
	DB	00H
	DB	00H
	DB	00H
	DB	00H
	DB	00H
	DB	00H
	DB	00H
	DB	00H
	DB	00H
	DB	00H
	DB	00H
	DB	00H
	DB	00H
	DB	00H
	DB	00H
	DB	00H
	DB	00H
	DB	00H
	DB	00H
	DB	00H
	DB	00H
	DB	00H
	DB	00H
	DB	00H
	DB	00H
	DB	00H
	DB	00H
	DB	00H
	DB	00H
	DB	00H
	DB	00H
	DB	00H
	DB	00H
	DB	00H
	DB	00H
	DB	00H
	DB	00H
	DB	00H
	DB	00H
	DB	00H
	DB	00H
	DB	00H
	DB	00H
	DB	00H
	DB	00H
	DB	00H
	DB	00H
	DB	00H
	DB	00H
	DB	00H
	DB	00H
	DB	00H
	DB	00H
	DB	00H
	DB	00H
	DB	00H
	DB	00H
	DB	00H
	DB	00H
	DB	00H
	DB	00H
	DB	00H
	DB	00H
	DB	00H
	DB	00H
	DB	00H
	DB	00H
	DB	00H
	DB	00H
	DB	00H
	DB	00H
	DB	00H
	DB	00H
	DB	00H
	DB	00H
	DB	00H
	DB	00H
	DB	00H
	DB	00H
	DB	00H
	DB	00H
	DB	00H
	DB	00H
	DB	00H
	DB	00H
	DB	00H
	DB	00H
	DB	00H
	DB	00H
	DB	00H
	DB	00H
	DB	00H
	DB	00H
	DB	00H
	DB	00H
	DB	00H
	DB	00H
	DB	00H
	DB	00H
	DB	00H
	DB	00H
	DB	00H
	DB	00H
	DB	00H
	DB	00H
	DB	00H
	DB	00H
	DB	00H
	DB	00H
	DB	00H
	DB	00H
	DB	00H
	DB	00H
	DB	00H
	DB	00H
	DB	00H
	DB	00H
	DB	00H
	DB	00H
	DB	00H
	DB	00H
	DB	00H
	DB	00H
	DB	00H
	DB	00H
	DB	00H
	DB	00H
	DB	00H
	DB	00H
	DB	00H
	DB	00H
	DB	00H
	DB	00H
	DB	00H
	DB	00H
	DB	00H
	DB	00H
	DB	00H
	DB	00H
	DB	00H
	DB	00H
	DB	00H
	DB	00H
	DB	00H
	DB	00H
	DB	00H
	DB	00H
	DB	00H
	DB	00H
	DB	00H
	DB	00H
	DB	00H
	DB	00H
	DB	00H
	DB	00H
	DB	00H
	DB	00H
	DB	00H
	DB	00H
	DB	00H
	DB	00H
	DB	00H
	DB	00H
	DB	00H
	DB	00H
	DB	00H
	DB	00H
	DB	00H
	DB	00H
	DB	00H
	DB	00H
	DB	00H
	DB	00H
	DB	00H
	DB	00H
	DB	00H
	DB	00H
	DB	00H
	DB	00H
	DB	00H
	DB	00H
	DB	00H
	DB	00H
	DB	00H
	DB	00H
	DB	00H
	DB	00H
	DB	00H
	DB	00H
	DB	00H
	DB	00H
	DB	00H
	DB	00H
	DB	00H
	DB	00H
	DB	00H
	DB	00H
	DB	00H
	DB	00H
	DB	00H
	DB	00H
	DB	00H
	DB	00H
	DB	00H
	DB	00H
	DB	00H
	DB	00H
	DB	00H
	DB	00H
	DB	00H
	DB	00H
	DB	00H
	DB	00H
	DB	00H
	DB	00H
	DB	00H
	DB	00H
	DB	00H
	DB	00H
	DB	00H
	DB	00H
	DB	00H
	DB	00H
	DB	00H
	DB	00H
	DB	00H
	DB	00H
	DB	00H
	DB	00H
	DB	00H
	DB	00H
	DB	00H
	DB	00H
	DB	00H
	DB	00H
	DB	00H
	DB	00H
	DB	00H
	DB	00H
	DB	00H
	DB	00H
	DB	00H
	DB	00H
	DB	00H
	DB	00H
	DB	00H
	DB	00H
	DB	00H
	DB	00H
	DB	00H
	DB	00H
	DB	00H
	DB	00H
	DB	00H
	DB	00H
	DB	00H
	DB	00H
	DB	00H
	DB	00H
	DB	00H
	DB	00H
	DB	00H
	DB	00H
	DB	00H
	DB	00H
	DB	00H
	DB	00H
	DB	00H
	DB	00H
	DB	00H
	DB	00H
	DB	00H
	DB	00H
	DB	00H
	DB	00H
	DB	00H
	DB	00H
	DB	00H
	DB	00H
	DB	00H
	DB	00H
	DB	00H
	DB	00H
	DB	00H
	DB	00H
	DB	00H
	DB	00H
	DB	00H
	DB	00H
	DB	00H
	DB	00H
	DB	00H
	DB	00H
	DB	00H
	DB	00H
	DB	00H
	DB	00H
	DB	00H
	DB	00H
	DB	00H
	DB	00H
	DB	00H
	DB	00H
	DB	00H
	DB	00H
	DB	00H
	DB	00H
	DB	00H
	DB	00H
	DB	00H
	DB	00H
	DB	00H
	DB	00H
	DB	00H
	DB	00H
	DB	00H
	DB	00H
	DB	00H
	DB	00H
	DB	00H
	DB	00H
	DB	00H
	DB	00H
	DB	00H
	DB	00H
	DB	00H
	DB	00H
	DB	00H
	DB	00H
	DB	00H
	DB	00H
	DB	00H
	DB	00H
	DB	00H
	DB	00H
	DB	00H
	DB	00H
	DB	00H
	DB	00H
	DB	00H
	DB	00H
	DB	00H
	DB	00H
	DB	00H
	DB	00H
	DB	00H
	DB	00H
	DB	00H
	DB	00H
	DB	00H
	DB	00H
	DB	00H
	DB	00H
	DB	00H
	DB	00H
	DB	00H
	DB	00H
	DB	00H
	DB	00H
	DB	00H
	DB	00H
	DB	00H
	DB	00H
	DB	00H
	DB	00H
	DB	00H
	DB	00H
	DB	00H
	DB	00H
	DB	00H
	DB	00H
	DB	00H
	DB	00H
	DB	00H
	DB	00H
	DB	00H
	DB	00H
	DB	00H
	DB	00H
	DB	00H
	DB	00H
	DB	00H
	DB	00H
	DB	00H
	DB	00H
	DB	00H
	DB	00H
	DB	00H
	DB	00H
	DB	00H
	DB	00H
	DB	00H
	DB	00H
	DB	00H
	DB	00H
	DB	00H
	DB	00H
	DB	00H
	DB	00H
	DB	00H
	DB	00H
	DB	00H
	DB	00H
	DB	00H
	DB	00H
	DB	00H
	DB	00H
	DB	00H
	DB	00H
	DB	00H
	DB	00H
	DB	00H
	DB	00H
	DB	00H
	DB	00H
	DB	00H
	DB	00H
	DB	00H
	DB	00H
	DB	00H
	DB	00H
	DB	00H
	DB	00H
	DB	00H
	DB	00H
	DB	00H
	DB	00H
	DB	00H
	DB	00H
	DB	00H
	DB	00H
	DB	00H
	DB	00H
	DB	00H
	DB	00H
	DB	00H
	DB	00H
	DB	00H
	DB	00H
	DB	00H
	DB	00H
	DB	00H
	DB	00H
	DB	00H
	DB	00H
	DB	00H
	DB	00H
	DB	00H
	DB	00H
	DB	00H
	DB	00H
	DB	00H
	DB	00H
	DB	00H
	DB	00H
	DB	00H
	DB	00H
	DB	00H
	DB	00H
	DB	00H
	DB	00H
	DB	00H
	DB	00H
	DB	00H
	DB	00H
	DB	00H
	DB	00H
	DB	00H
	DB	00H
	DB	00H
	DB	00H
	DB	00H
	DB	00H
	DB	00H
	DB	00H
	DB	00H
	DB	00H
	DB	00H
	DB	00H
	DB	00H
	DB	00H
	DB	00H
	DB	00H
	DB	00H
	DB	00H
	DB	00H
	DB	00H
	DB	00H
	DB	00H
	DB	00H
	DB	00H
	DB	00H
	DB	00H
	DB	00H
	DB	00H
	DB	00H
	DB	00H
	DB	00H
	DB	00H
	DB	00H
	DB	00H
	DB	00H
	DB	00H
	DB	00H
	DB	00H
	DB	00H
	DB	00H
	DB	00H
	DB	00H
	DB	00H
	DB	00H
	DB	00H
	DB	00H
	DB	00H
	DB	00H
	DB	00H
	DB	00H
	DB	00H
	DB	00H
	DB	00H
	DB	00H
	DB	00H
	DB	00H
	DB	00H
	DB	00H
	DB	00H
	DB	00H
	DB	00H
	DB	00H
	DB	00H
	DB	00H
	DB	00H
	DB	00H
	DB	00H
	DB	00H
	DB	00H
	DB	00H
	DB	00H
	DB	00H
	DB	00H
	DB	00H
	DB	00H
	DB	00H
	DB	00H
	DB	00H
	DB	00H
	DB	00H
	DB	00H
	DB	00H
	DB	00H
	DB	00H
	DB	00H
	DB	00H
	DB	00H
	DB	00H
	DB	00H
	DB	00H
	DB	00H
	DB	00H
	DB	00H
	DB	00H
	DB	00H
	DB	00H
	DB	00H
	DB	00H
	DB	00H
	DB	00H
	DB	00H
	DB	00H
	DB	00H
	DB	00H
	DB	00H
	DB	00H
	DB	00H
	DB	00H
	DB	00H
	DB	00H
	DB	00H
	DB	00H
	DB	00H
	DB	00H
	DB	00H
	DB	00H
	DB	00H
	DB	00H
	DB	00H
	DB	00H
	DB	00H
	DB	00H
	DB	00H
	DB	00H
	DB	00H
	DB	00H
	DB	00H
	DB	00H
	DB	00H
	DB	00H
	DB	00H
	DB	00H
	DB	00H
	DB	00H
	DB	00H
	DB	00H
	DB	00H
	DB	00H
	DB	00H
	DB	00H
	DB	00H
	DB	00H
	DB	00H
	DB	00H
	DB	00H
	DB	00H
	DB	00H
	DB	00H
	DB	00H
	DB	00H
	DB	00H
	DB	00H
	DB	00H
	DB	00H
	DB	00H
	DB	00H
	DB	00H
	DB	00H
	DB	00H
	DB	00H
	DB	00H
	DB	00H
	DB	00H
	DB	00H
	DB	00H
	DB	00H
	DB	00H
	DB	00H
	DB	00H
	DB	00H
	DB	00H
	DB	00H
	DB	00H
	DB	00H
	DB	00H
	DB	00H
	DB	00H
	DB	00H
	DB	00H
	DB	00H
	DB	00H
	DB	00H
	DB	00H
	DB	00H
	DB	00H
	DB	00H
	DB	00H
	DB	00H
	DB	00H
	DB	00H
	DB	00H
	DB	00H
	DB	00H
	DB	00H
	DB	00H
	DB	00H
	DB	00H
	DB	00H
	DB	00H
	DB	00H
	DB	00H
	DB	00H
	DB	00H
	DB	00H
	DB	00H
	DB	00H
	DB	00H
	DB	00H
	DB	00H
	DB	00H
	DB	00H
	DB	00H
	DB	00H
	DB	00H
	DB	00H
	DB	00H
	DB	00H
	DB	00H
	DB	00H
	DB	00H
	DB	00H
	DB	00H
	DB	00H
	DB	00H
	DB	00H
	DB	00H
	DB	00H
	DB	00H
	DB	00H
	DB	00H
	DB	00H
	DB	00H
	DB	00H
	DB	00H
	DB	00H
	DB	00H
	DB	00H
	DB	00H
	DB	00H
	DB	00H
	DB	00H
	DB	00H
	DB	00H
	DB	00H
	DB	00H
	DB	00H
	DB	00H
	DB	00H
	DB	00H
	DB	00H
	DB	00H
	DB	00H
	DB	00H
	DB	00H
	DB	00H
	DB	00H
	DB	00H
	DB	00H
	DB	00H
	DB	00H
	DB	00H
	DB	00H
	DB	00H
	DB	00H
	DB	00H
	DB	00H
	DB	00H
	DB	00H
	DB	00H
	DB	00H
	DB	00H
	DB	00H
	DB	00H
	DB	00H
	DB	00H
	DB	00H
	DB	00H
	DB	00H
	DB	00H
	DB	00H
	DB	00H
	DB	00H
	DB	00H
	DB	00H
	DB	00H
	DB	00H
	DB	00H
	DB	00H
	DB	00H
	DB	00H
	DB	00H
	DB	00H
	DB	00H
	DB	00H
	DB	00H
	DB	00H
	DB	00H
	DB	00H
	DB	00H
	DB	00H
	DB	00H
	DB	00H
	DB	00H
	DB	00H
	DB	00H
	DB	00H
	DB	00H
	DB	00H
	DB	00H
	DB	00H
	DB	00H
	DB	00H
	DB	00H
	DB	00H
	DB	00H
	DB	00H
	DB	00H
	DB	00H
	DB	00H
	DB	00H
	DB	00H
	DB	00H
	DB	00H
	DB	00H
	DB	00H
	DB	00H
	DB	00H
	DB	00H
	DB	00H
	DB	00H
	DB	00H
	DB	00H
	DB	00H
	DB	00H
	DB	00H
	DB	00H
	DB	00H
	DB	00H
	DB	00H
	DB	00H
	DB	00H
	DB	00H
	DB	00H
	DB	00H
	DB	00H
	DB	00H
	DB	00H
	DB	00H
	DB	00H
	DB	00H
	DB	00H
	DB	00H
	DB	00H
	DB	00H
	DB	00H
	DB	00H
	DB	00H
	DB	00H
	DB	00H
	DB	00H
	DB	00H
	DB	00H
	DB	00H
	DB	00H
	DB	00H
	DB	00H
	DB	00H
	DB	00H
	DB	00H
	DB	00H
	DB	00H
	DB	00H
	DB	00H
	DB	00H
	DB	00H
	DB	00H
	DB	00H
	DB	00H
	DB	00H
	DB	00H
	DB	00H
	DB	00H
	DB	00H
	DB	00H
	DB	00H
	DB	00H
	DB	00H
	DB	00H
	DB	00H
	DB	00H
	DB	00H
	DB	00H
	DB	00H
	DB	00H
	DB	00H
	DB	00H
	DB	00H
	DB	00H
	DB	00H
	DB	00H
	DB	00H
	DB	00H
	DB	00H
	DB	00H
	DB	00H
	DB	00H
	DB	00H
	DB	00H
	DB	00H
	DB	00H
	DB	00H
	DB	00H
	DB	00H
	DB	00H
	DB	00H
	DB	00H
	DB	00H
	DB	00H
	DB	00H
	DB	00H
	DB	00H
	DB	00H
	DB	00H
	DB	00H
	DB	00H
	DB	00H
	DB	00H
	DB	00H
	DB	00H
	DB	00H
	DB	00H
	DB	00H
	DB	00H
	DB	00H
	DB	00H
	DB	00H
	DB	00H
	DB	00H
	DB	00H
	DB	00H
	DB	00H
	DB	00H
	DB	00H
	DB	00H
	DB	00H
	DB	00H
	DB	00H
	DB	00H
	DB	00H
	DB	00H
	DB	00H
	DB	00H
	DB	00H
	DB	00H
	DB	00H
	DB	00H
	DB	00H
	DB	00H
	DB	00H
	DB	00H
	DB	00H
	DB	00H
	DB	00H
	DB	00H
	DB	00H
	DB	00H
	DB	00H
	DB	00H
	DB	00H
	DB	00H
	DB	00H
	DB	00H
	DB	00H
	DB	00H
	DB	00H
	DB	00H
	DB	00H
	DB	00H
	DB	00H
	DB	00H
	DB	00H
	DB	00H
	DB	00H
	DB	00H
	DB	00H
	DB	00H
	DB	00H
	DB	00H
	DB	00H
	DB	00H
	DB	00H
	DB	00H
	DB	00H
	DB	00H
	DB	00H
	DB	00H
	DB	00H
	DB	00H
	DB	00H
	DB	00H
	DB	00H
	DB	00H
	DB	00H
	DB	00H
	DB	00H
	DB	00H
	DB	00H
	DB	00H
	DB	00H
	DB	00H
	DB	00H
	DB	00H
	DB	00H
	DB	00H
	DB	00H
	DB	00H
	DB	00H
	DB	00H
	DB	00H
	DB	00H
	DB	00H
	DB	00H
	DB	00H
	DB	00H
	DB	00H
	DB	00H
	DB	00H
	DB	00H
	DB	00H
	DB	00H
	DB	00H
	DB	00H
	DB	00H
	DB	00H
	DB	00H
	DB	00H
	DB	00H
	DB	00H
	DB	00H
	DB	00H
	DB	00H
	DB	00H
	DB	00H
	DB	00H
	DB	00H
	DB	00H
	DB	00H
	DB	00H
	DB	00H
	DB	00H
	DB	00H
	DB	00H
	DB	00H
	DB	00H
	DB	00H
	DB	00H
	DB	00H
	DB	00H
	DB	00H
	DB	00H
	DB	00H
	DB	00H
	DB	00H
	DB	00H
	DB	00H
	DB	00H
	DB	00H
	DB	00H
	DB	00H
	DB	00H
	DB	00H
	DB	00H
	DB	00H
	DB	00H
	DB	00H
	DB	00H
	DB	00H
	DB	00H
	DB	00H
	DB	00H
	DB	00H
	DB	00H
	DB	00H
	DB	00H
	DB	00H
	DB	00H
	DB	00H
	DB	00H
	DB	00H
	DB	00H
	DB	00H
	DB	00H
	DB	00H
	DB	00H
	DB	00H
	DB	00H
	DB	00H
	DB	00H
	DB	00H
	DB	00H
	DB	00H
	DB	00H
	DB	00H
	DB	00H
	DB	00H
	DB	00H
	DB	00H
	DB	00H
	DB	00H
	DB	00H
	DB	00H
	DB	00H
	DB	00H
	DB	00H
	DB	00H
	DB	00H
	DB	00H
	DB	00H
	DB	00H
	DB	00H
	DB	00H
	DB	00H
	DB	00H
	DB	00H
	DB	00H
	DB	00H
	DB	00H
	DB	00H
	DB	00H
	DB	00H
	DB	00H
	DB	00H
	DB	00H
	DB	00H
	DB	00H
	DB	00H
	DB	00H
	DB	00H
	DB	00H
	DB	00H
	DB	00H
	DB	00H
	DB	00H
	DB	00H
	DB	00H
	DB	00H
	DB	00H
	DB	00H
	DB	00H
	DB	00H
	DB	00H
	DB	00H
	DB	00H
	DB	00H
	DB	00H
	DB	00H
	DB	00H
	DB	00H
	DB	00H
	DB	00H
	DB	00H
	DB	00H
	DB	00H
	DB	00H
	DB	00H
	DB	00H
	DB	00H
	DB	00H
	DB	00H
	DB	00H
	DB	00H
	DB	00H
	DB	00H
	DB	00H
	DB	00H
	DB	00H
	DB	00H
	DB	00H
	DB	00H
	DB	00H
	DB	00H
	DB	00H
	DB	00H
	DB	00H
	DB	00H
	DB	00H
	DB	00H
	DB	00H
	DB	00H
	DB	00H
	DB	00H
	DB	00H
	DB	00H
	DB	00H
	DB	00H
	DB	00H
	DB	00H
	DB	00H
	DB	00H
	DB	00H
	DB	00H
	DB	00H
	DB	00H
	DB	00H
	DB	00H
	DB	00H
	DB	00H
	DB	00H
	DB	00H
	DB	00H
	DB	00H
	DB	00H
	DB	00H
	DB	00H
	DB	00H
	DB	00H
	DB	00H
	DB	00H
	DB	00H
	DB	00H
	DB	00H
	DB	00H
	DB	00H
	DB	00H
	DB	00H
	DB	00H
	DB	00H
	DB	00H
	DB	00H
	DB	00H
	DB	00H
	DB	00H
	DB	00H
	DB	00H
	DB	00H
	DB	00H
	DB	00H
	DB	00H
	DB	00H
	DB	00H
	DB	00H
	DB	00H
	DB	00H
	DB	00H
	DB	00H
	DB	00H
	DB	00H
	DB	00H
	DB	00H
	DB	00H
	DB	00H
	DB	00H
	DB	00H
	DB	00H
	DB	00H
	DB	00H
	DB	00H
	DB	00H
	DB	00H
	DB	00H
	DB	00H
	DB	00H
	DB	00H
	DB	00H
	DB	00H
	DB	00H
	DB	00H
	DB	00H
	DB	00H
	DB	00H
	DB	00H
	DB	00H
	DB	00H
	DB	00H
	DB	00H
	DB	00H
	DB	00H
	DB	00H
	DB	00H
	DB	00H
	DB	00H
	DB	00H
	DB	00H
	DB	00H
	DB	00H
	DB	00H
	DB	00H
	DB	00H
	DB	00H
	DB	00H
	DB	00H
	DB	00H
	DB	00H
	DB	00H
	DB	00H
	DB	00H
	DB	00H
	DB	00H
	DB	00H
	DB	00H
	DB	00H
	DB	00H
	DB	00H
	DB	00H
	DB	00H
	DB	00H
	DB	00H
	DB	00H
	DB	00H
	DB	00H
	DB	00H
	DB	00H
	DB	00H
	DB	00H
	DB	00H
	DB	00H
	DB	00H
	DB	00H
	DB	00H
	DB	00H
	DB	00H
	DB	00H
	DB	00H
	DB	00H
	DB	00H
	DB	00H
	DB	00H
	DB	00H
	DB	00H
	DB	00H
	DB	00H
	DB	00H
	DB	00H
	DB	00H
	DB	00H
	DB	00H
	DB	00H
	DB	00H
	DB	00H
	DB	00H
	DB	00H
	DB	00H
	DB	00H
	DB	00H
	DB	00H
	DB	00H
	DB	00H
	DB	00H
	DB	00H
	DB	00H
	DB	00H
	DB	00H
	DB	00H
	DB	00H
	DB	00H
	DB	00H
	DB	00H
	DB	00H
	DB	00H
	DB	00H
	DB	00H
	DB	00H
	DB	00H
	DB	00H
	DB	00H
	DB	00H
	DB	00H
	DB	00H
	DB	00H
	DB	00H
	DB	00H
	DB	00H
	DB	00H
	DB	00H
	DB	00H
	DB	00H
	DB	00H
	DB	00H
	DB	00H
	DB	00H
	DB	00H
	DB	00H
	DB	00H
	DB	00H
	DB	00H
	DB	00H
	DB	00H
	DB	00H
	DB	00H
	DB	00H
	DB	00H
	DB	00H
	DB	00H
	DB	00H
	DB	00H
	DB	00H
	DB	00H
	DB	00H
	DB	00H
	DB	00H
	DB	00H
	DB	00H
	DB	00H
	DB	00H
	DB	00H
	DB	00H
	DB	00H
	DB	00H
	DB	00H
	DB	00H
	DB	00H
	DB	00H
	DB	00H
	DB	00H
	DB	00H
	DB	00H
	DB	00H
	DB	00H
	DB	00H
	DB	00H
	DB	00H
	DB	00H
	DB	00H
	DB	00H
	DB	00H
	DB	00H
	DB	00H
	DB	00H
	DB	00H
	DB	00H
	DB	00H
	DB	00H
	DB	00H
	DB	00H
	DB	00H
	DB	00H
	DB	00H
	DB	00H
	DB	00H
	DB	00H
	DB	00H
	DB	00H
	DB	00H
	DB	00H
	DB	00H
	DB	00H
	DB	00H
	DB	00H
	DB	00H
	DB	00H
	DB	00H
	DB	00H
	DB	00H
	DB	00H
	DB	00H
	DB	00H
	DB	00H
	DB	00H
	DB	00H
	DB	00H
	DB	00H
	DB	00H
	DB	00H
	DB	00H
	DB	00H
	DB	00H
	DB	00H
	DB	00H
	DB	00H
	DB	00H
	DB	00H
	DB	00H
	DB	00H
	DB	00H
	DB	00H
	DB	00H
	DB	00H
	DB	00H
	DB	00H
	DB	00H
	DB	00H
	DB	00H
	DB	00H
	DB	00H
	DB	00H
	DB	00H
	DB	00H
	DB	00H
	DB	00H
	DB	00H
	DB	00H
	DB	00H
	DB	00H
	DB	00H
	DB	00H
	DB	00H
	DB	00H
	DB	00H
	DB	00H
	DB	00H
	DB	00H
	DB	00H
	DB	00H
	DB	00H
	DB	00H
	DB	00H
	DB	00H
	DB	00H
	DB	00H
	DB	00H
	DB	00H
	DB	00H
	DB	00H
	DB	00H
	DB	00H
	DB	00H
	DB	00H
	DB	00H
	DB	00H
	DB	00H
	DB	00H
	DB	00H
	DB	00H
	DB	00H
	DB	00H
	DB	00H
	DB	00H
	DB	00H
	DB	00H
	DB	00H
	DB	00H
	DB	00H
	DB	00H
	DB	00H
	DB	00H
	DB	00H
	DB	00H
	DB	00H
	DB	00H
	DB	00H
	DB	00H
	DB	00H
	DB	00H
	DB	00H
	DB	00H
	DB	00H
	DB	00H
	DB	00H
	DB	00H
	DB	00H
	DB	00H
	DB	00H
	DB	00H
	DB	00H
	DB	00H
	DB	00H
	DB	00H
	DB	00H
	DB	00H
	DB	00H
	DB	00H
	DB	00H
	DB	00H
	DB	00H
	DB	00H
	DB	00H
	DB	00H
	DB	00H
	DB	00H
	DB	00H
	DB	00H
	DB	00H
	DB	00H
	DB	00H
	DB	00H
	DB	00H
	DB	00H
	DB	00H
	DB	00H
	DB	00H
	DB	00H
	DB	00H
	DB	00H
	DB	00H
	DB	00H
	DB	00H
	DB	00H
	DB	00H
	DB	00H
	DB	00H
	DB	00H
	DB	00H
	DB	00H
	DB	00H
	DB	00H
	DB	00H
	DB	00H
	DB	00H
	DB	00H
	DB	00H
	DB	00H
	DB	00H
	DB	00H
	DB	00H
	DB	00H
	DB	00H
	DB	00H
	DB	00H
	DB	00H
	DB	00H
	DB	00H
	DB	00H
	DB	00H
	DB	00H
	DB	00H
	DB	00H
	DB	00H
	DB	00H
	DB	00H
	DB	00H
	DB	00H
	DB	00H
	DB	00H
	DB	00H
	DB	00H
	DB	00H
	DB	00H
	DB	00H
	DB	00H
	DB	00H
	DB	00H
	DB	00H
	DB	00H
	DB	00H
	DB	00H
	DB	00H
	DB	00H
	DB	00H
	DB	00H
	DB	00H
	DB	00H
	DB	00H
	DB	00H
	DB	00H
	DB	00H
	DB	00H
	DB	00H
	DB	00H
	DB	00H
	DB	00H
	DB	00H
	DB	00H
	DB	00H
	DB	00H
	DB	00H
	DB	00H
	DB	00H
	DB	00H
	DB	00H
	DB	00H
	DB	00H
	DB	00H
	DB	00H
	DB	00H
	DB	00H
	DB	00H
	DB	00H
	DB	00H
	DB	00H
	DB	00H
	DB	00H
	DB	00H
	DB	00H
	DB	00H
	DB	00H
	DB	00H
	DB	00H
	DB	00H
	DB	00H
	DB	00H
	DB	00H
	DB	00H
	DB	00H
	DB	00H
	DB	00H
	DB	00H
	DB	00H
	DB	00H
	DB	00H
	DB	00H
	DB	00H
	DB	00H
	DB	00H
	DB	00H
	DB	00H
	DB	00H
	DB	00H
	DB	00H
	DB	00H
	DB	00H
	DB	00H
	DB	00H
	DB	00H
	DB	00H
	DB	00H
	DB	00H
	DB	00H
	DB	00H
	DB	00H
	DB	00H
	DB	00H
	DB	00H
	DB	00H
	DB	00H
	DB	00H
	DB	00H
	DB	00H
	DB	00H
	DB	00H
	DB	00H
	DB	00H
	DB	00H
	DB	00H
	DB	00H
	DB	00H
	DB	00H
	DB	00H
	DB	00H
	DB	00H
	DB	00H
	DB	00H
	DB	00H
	DB	00H
	DB	00H
	DB	00H
	DB	00H
	DB	00H
	DB	00H
	DB	00H
	DB	00H
	DB	00H
	DB	00H
	DB	00H
	DB	00H
	DB	00H
	DB	00H
	DB	00H
	DB	00H
	DB	00H
	DB	00H
	DB	00H
	DB	00H
	DB	00H
	DB	00H
	DB	00H
	DB	00H
	DB	00H
	DB	00H
	DB	00H
	DB	00H
	DB	00H
	DB	00H
	DB	00H
	DB	00H
	DB	00H
	DB	00H
	DB	00H
	DB	00H
	DB	00H
	DB	00H
	DB	00H
	DB	00H
	DB	00H
	DB	00H
	DB	00H
	DB	00H
	DB	00H
	DB	00H
	DB	00H
	DB	00H
	DB	00H
	DB	00H
	DB	00H
	DB	00H
	DB	00H
	DB	00H
	DB	00H
	DB	00H
	DB	00H
	DB	00H
	DB	00H
	DB	00H
	DB	00H
	DB	00H
	DB	00H
	DB	00H
	DB	00H
	DB	00H
	DB	00H
	DB	00H
	DB	00H
	DB	00H
	DB	00H
	DB	00H
	DB	00H
	DB	00H
	DB	00H
	DB	00H
	DB	00H
	DB	00H
	DB	00H
	DB	00H
	DB	00H
	DB	00H
	DB	00H
	DB	00H
	DB	00H
	DB	00H
	DB	00H
	DB	00H
	DB	00H
	DB	00H
	DB	00H
	DB	00H
	DB	00H
	DB	00H
	DB	00H
	DB	00H
	DB	00H
	DB	00H
	DB	00H
	DB	00H
	DB	00H
	DB	00H
	DB	00H
	DB	00H
	DB	00H
	DB	00H
	DB	00H
	DB	00H
	DB	00H
	DB	00H
	DB	00H
	DB	00H
	DB	00H
	DB	00H
	DB	00H
	DB	00H
	DB	00H
	DB	00H
	DB	00H
	DB	00H
	DB	00H
	DB	00H
	DB	00H
	DB	00H
	DB	00H
	DB	00H
	DB	00H
	DB	00H
	DB	00H
	DB	00H
	DB	00H
	DB	00H
	DB	00H
	DB	00H
	DB	00H
	DB	00H
	DB	00H
	DB	00H
	DB	00H
	DB	00H
	DB	00H
	DB	00H
	DB	00H
	DB	00H
	DB	00H
	DB	00H
	DB	00H
	DB	00H
	DB	00H
	DB	00H
	DB	00H
	DB	00H
	DB	00H
	DB	00H
	DB	00H
	DB	00H
	DB	00H
	DB	00H
	DB	00H
	DB	00H
	DB	00H
	DB	00H
	DB	00H
	DB	00H
	DB	00H
	DB	00H
	DB	00H
	DB	00H
	DB	00H
	DB	00H
	DB	00H
	DB	00H
	DB	00H
	DB	00H
	DB	00H
	DB	00H
	DB	00H
	DB	00H
	DB	00H
	DB	00H
	DB	00H
	DB	00H
	DB	00H
	DB	00H
	DB	00H
	DB	00H
	DB	00H
	DB	00H
	DB	00H
	DB	00H
	DB	00H
	DB	00H
	DB	00H
	DB	00H
	DB	00H
	DB	00H
	DB	00H
	DB	00H
	DB	00H
	DB	00H
	DB	00H
	DB	00H
	DB	00H
	DB	00H
	DB	00H
	DB	00H
	DB	00H
	DB	00H
	DB	00H
	DB	00H
	DB	00H
	DB	00H
	DB	00H
	DB	00H
	DB	00H
	DB	00H
	DB	00H
	DB	00H
	DB	00H
	DB	00H
	DB	00H
	DB	00H
	DB	00H
	DB	00H
	DB	00H
	DB	00H
	DB	00H
	DB	00H
	DB	00H
	DB	00H
	DB	00H
	DB	00H
	DB	00H
	DB	00H
	DB	00H
	DB	00H
	DB	00H
	DB	00H
	DB	00H
	DB	00H
	DB	00H
	DB	00H
	DB	00H
	DB	00H
	DB	00H
	DB	00H
	DB	00H
	DB	00H
	DB	00H
	DB	00H
	DB	00H
	DB	00H
	DB	00H
	DB	00H
	DB	00H
	DB	00H
	DB	00H
	DB	00H
	DB	00H
	DB	00H
	DB	00H
	DB	00H
	DB	00H
	DB	00H
	DB	00H
	DB	00H
	DB	00H
	DB	00H
	DB	00H
	DB	00H
	DB	00H
	DB	00H
	DB	00H
	DB	00H
	DB	00H
	DB	00H
	DB	00H
	DB	00H
	DB	00H
	DB	00H
	DB	00H
	DB	00H
	DB	00H
	DB	00H
	DB	00H
	DB	00H
	DB	00H
	DB	00H
	DB	00H
	DB	00H
	DB	00H
	DB	00H
	DB	00H
	DB	00H
	DB	00H
	DB	00H
	DB	00H
	DB	00H
	DB	00H
	DB	00H
	DB	00H
	DB	00H
	DB	00H
	DB	00H
	DB	00H
	DB	00H
	DB	00H
	DB	00H
	DB	00H
	DB	00H
	DB	00H
	DB	00H
	DB	00H
	DB	00H
	DB	00H
	DB	00H
	DB	00H
	DB	00H
	DB	00H
	DB	00H
	DB	00H
	DB	00H
	DB	00H
	DB	00H
	DB	00H
	DB	00H
	DB	00H
	DB	00H
	DB	00H
	DB	00H
	DB	00H
	DB	00H
	DB	00H
	DB	00H
	DB	00H
	DB	00H
	DB	00H
	DB	00H
	DB	00H
	DB	00H
	DB	00H
	DB	00H
	DB	00H
	DB	00H
	DB	00H
	DB	00H
	DB	00H
	DB	00H
	DB	00H
	DB	00H
	DB	00H
	DB	00H
	DB	00H
	DB	00H
	DB	00H
	DB	00H
	DB	00H
	DB	00H
	DB	00H
	DB	00H
	DB	00H
	DB	00H
	DB	00H
	DB	00H
	DB	00H
	DB	00H
	DB	00H
	DB	00H
	DB	00H
	DB	00H
	DB	00H
	DB	00H
	DB	00H
	DB	00H
	DB	00H
	DB	00H
	DB	00H
	DB	00H
	DB	00H
	DB	00H
	DB	00H
	DB	00H
	DB	00H
	DB	00H
	DB	00H
	DB	00H
	DB	00H
	DB	00H
	DB	00H
	DB	00H
	DB	00H
	DB	00H
	DB	00H
	DB	00H
	DB	00H
	DB	00H
	DB	00H
	DB	00H
	DB	00H
	DB	00H
	DB	00H
	DB	00H
	DB	00H
	DB	00H
	DB	00H
	DB	00H
	DB	00H
	DB	00H
	DB	00H
	DB	00H
	DB	00H
	DB	00H
	DB	00H
	DB	00H
	DB	00H
	DB	00H
	DB	00H
	DB	00H
	DB	00H
	DB	00H
	DB	00H
	DB	00H
	DB	00H
	DB	00H
	DB	00H
	DB	00H
	DB	00H
	DB	00H
	DB	00H
	DB	00H
	DB	00H
	DB	00H
	DB	00H
	DB	00H
	DB	00H
	DB	00H
	DB	00H
	DB	00H
	DB	00H
	DB	00H
	DB	00H
	DB	00H
	DB	00H
	DB	00H
	DB	00H
	DB	00H
	DB	00H
	DB	00H
	DB	00H
	DB	00H
	DB	00H
	DB	00H
	DB	00H
	DB	00H
	DB	00H
	DB	00H
	DB	00H
	DB	00H
	DB	00H
	DB	00H
	DB	00H
	DB	00H
	DB	00H
	DB	00H
	DB	00H
	DB	00H
	DB	00H
	DB	00H
	DB	00H
	DB	00H
	DB	00H
	DB	00H
	DB	00H
	DB	00H
	DB	00H
	DB	00H
	DB	00H
	DB	00H
	DB	00H
	DB	00H
	DB	00H
	DB	00H
	DB	00H
	DB	00H
	DB	00H
	DB	00H
	DB	00H
	DB	00H
	DB	00H
	DB	00H
	DB	00H
	DB	00H
	DB	00H
	DB	00H
	DB	00H
	DB	00H
	DB	00H
	DB	00H
	DB	00H
	DB	00H
	DB	00H
	DB	00H
	DB	00H
	DB	00H
	DB	00H
	DB	00H
	DB	00H
	DB	00H
	DB	00H
	DB	00H
	DB	00H
	DB	00H
	DB	00H
	DB	00H
	DB	00H
	DB	00H
	DB	00H
	DB	00H
	DB	00H
	DB	00H
	DB	00H
	DB	00H
	DB	00H
	DB	00H
	DB	00H
	DB	00H
	DB	00H
	DB	00H
	DB	00H
	DB	00H
	DB	00H
	DB	00H
	DB	00H
	DB	00H
	DB	00H
	DB	00H
	DB	00H
	DB	00H
	DB	00H
	DB	00H
	DB	00H
	DB	00H
	DB	00H
	DB	00H
	DB	00H
	DB	00H
	DB	00H
	DB	00H
	DB	00H
	DB	00H
	DB	00H
	DB	00H
	DB	00H
	DB	00H
	DB	00H
	DB	00H
	DB	00H
	DB	00H
	DB	00H
	DB	00H
	DB	00H
	DB	00H
	DB	00H
	DB	00H
	DB	00H
	DB	00H
	DB	00H
	DB	00H
	DB	00H
	DB	00H
	DB	00H
	DB	00H
	DB	00H
	DB	00H
	DB	00H
	DB	00H
	DB	00H
	DB	00H
	DB	00H
	DB	00H
	DB	00H
	DB	00H
	DB	00H
	DB	00H
	DB	00H
	DB	00H
	DB	00H
	DB	00H
	DB	00H
	DB	00H
	DB	00H
	DB	00H
	DB	00H
	DB	00H
	DB	00H
	DB	00H
	DB	00H
	DB	00H
	DB	00H
	DB	00H
	DB	00H
	DB	00H
	DB	00H
	DB	00H
	DB	00H
	DB	00H
	DB	00H
	DB	00H
	DB	00H
	DB	00H
	DB	00H
	DB	00H
	DB	00H
	DB	00H
	DB	00H
	DB	00H
	DB	00H
	DB	00H
	DB	00H
	DB	00H
	DB	00H
	DB	00H
	DB	00H
	DB	00H
	DB	00H
	DB	00H
	DB	00H
	DB	00H
	DB	00H
	DB	00H
	DB	00H
	DB	00H
	DB	00H
	DB	00H
	DB	00H
	DB	00H
	DB	00H
	DB	00H
	DB	00H
	DB	00H
	DB	00H
	DB	00H
	DB	00H
	DB	00H
	DB	00H
	DB	00H
	DB	00H
	DB	00H
	DB	00H
	DB	00H
	DB	00H
	DB	00H
	DB	00H
	DB	00H
	DB	00H
	DB	00H
	DB	00H
	DB	00H
	DB	00H
	DB	00H
	DB	00H
	DB	00H
	DB	00H
	DB	00H
	DB	00H
	DB	00H
	DB	00H
	DB	00H
	DB	00H
	DB	00H
	DB	00H
	DB	00H
	DB	00H
	DB	00H
	DB	00H
	DB	00H
	DB	00H
	DB	00H
	DB	00H
	DB	00H
	DB	00H
	DB	00H
	DB	00H
	DB	00H
	DB	00H
	DB	00H
	DB	00H
	DB	00H
	DB	00H
	DB	00H
	DB	00H
	DB	00H
	DB	00H
	DB	00H
	DB	00H
	DB	00H
	DB	00H
	DB	00H
	DB	00H
	DB	00H
	DB	00H
	DB	00H
	DB	00H
	DB	00H
	DB	00H
	DB	00H
	DB	00H
	DB	00H
	DB	00H
	DB	00H
	DB	00H
	DB	00H
	DB	00H
	DB	00H
	DB	00H
	DB	00H
	DB	00H
	DB	00H
	DB	00H
	DB	00H
	DB	00H
	DB	00H
	DB	00H
	DB	00H
	DB	00H
	DB	00H
	DB	00H
	DB	00H
	DB	00H
	DB	00H
	DB	00H
	DB	00H
	DB	00H
	DB	00H
	DB	00H
	DB	00H
	DB	00H
	DB	00H
	DB	00H
	DB	00H
	DB	00H
	DB	00H
	DB	00H
	DB	00H
	DB	00H
	DB	00H
	DB	00H
	DB	00H
	DB	00H
	DB	00H
	DB	00H
	DB	00H
	DB	00H
	DB	00H
	DB	00H
	DB	00H
	DB	00H
	DB	00H
	DB	00H
	DB	00H
	DB	00H
	DB	00H
	DB	00H
	DB	00H
	DB	00H
	DB	00H
	DB	00H
	DB	00H
	DB	00H
	DB	00H
	DB	00H
	DB	00H
	DB	00H
	DB	00H
	DB	00H
	DB	00H
	DB	00H
	DB	00H
	DB	00H
	DB	00H
	DB	00H
	DB	00H
	DB	00H
	DB	00H
	DB	00H
	DB	00H
	DB	00H
	DB	00H
	DB	00H
	DB	00H
	DB	00H
	DB	00H
	DB	00H
	DB	00H
	DB	00H
	DB	00H
	DB	00H
	DB	00H
	DB	00H
	DB	00H
	DB	00H
	DB	00H
	DB	00H
	DB	00H
	DB	00H
	DB	00H
	DB	00H
	DB	00H
	DB	00H
	DB	00H
	DB	00H
	DB	00H
	DB	00H
	DB	00H
	DB	00H
	DB	00H
	DB	00H
	DB	00H
	DB	00H
	DB	00H
	DB	00H
	DB	00H
	DB	00H
	DB	00H
	DB	00H
	DB	00H
	DB	00H
	DB	00H
	DB	00H
	DB	00H
	DB	00H
	DB	00H
	DB	00H
	DB	00H
	DB	00H
	DB	00H
	DB	00H
	DB	00H
	DB	00H
	DB	00H
	DB	00H
	DB	00H
	DB	00H
	DB	00H
	DB	00H
	DB	00H
	DB	00H
	DB	00H
	DB	00H
	DB	00H
	DB	00H
	DB	00H
	DB	00H
	DB	00H
	DB	00H
	DB	00H
	DB	00H
	DB	00H
	DB	00H
	DB	00H
	DB	00H
	DB	00H
	DB	00H
	DB	00H
	DB	00H
	DB	00H
	DB	00H
	DB	00H
	DB	00H
	DB	00H
	DB	00H
	DB	00H
	DB	00H
	DB	00H
	DB	00H
	DB	00H
	DB	00H
	DB	00H
	DB	00H
	DB	00H
	DB	00H
	DB	00H
	DB	00H
	DB	00H
	DB	00H
	DB	00H
	DB	00H
	DB	00H
	DB	00H
	DB	00H
	DB	00H
	DB	00H
	DB	00H
	DB	00H
	DB	00H
	DB	00H
	DB	00H
	DB	00H
	DB	00H
	DB	00H
	DB	00H
	DB	00H
	DB	00H
	DB	00H
	DB	00H
	DB	00H
	DB	00H
	DB	00H
	DB	00H
	DB	00H
	DB	00H
	DB	00H
	DB	00H
	DB	00H
	DB	00H
	DB	00H
	DB	00H
	DB	00H
	DB	00H
	DB	00H
	DB	00H
	DB	00H
	DB	00H
	DB	00H
	DB	00H
	DB	00H
	DB	00H
	DB	00H
	DB	00H
	DB	00H
	DB	00H
	DB	00H
	DB	00H
	DB	00H
	DB	00H
	DB	00H
	DB	00H
	DB	00H
	DB	00H
	DB	00H
	DB	00H
	DB	00H
	DB	00H
	DB	00H
	DB	00H
	DB	00H
	DB	00H
	DB	00H
	DB	00H
	DB	00H
	DB	00H
	DB	00H
	DB	00H
	DB	00H
	DB	00H
	DB	00H
	DB	00H
	DB	00H
	DB	00H
	DB	00H
	DB	00H
	DB	00H
	DB	00H
	DB	00H
	DB	00H
	DB	00H
	DB	00H
	DB	00H
	DB	00H
	DB	00H
	DB	00H
	DB	00H
	DB	00H
	DB	00H
	DB	00H
	DB	00H
	DB	00H
	DB	00H
	DB	00H
	DB	00H
	DB	00H
	DB	00H
	DB	00H
	DB	00H
	DB	00H
	DB	00H
	DB	00H
	DB	00H
	DB	00H
	DB	00H
	DB	00H
	DB	00H
	DB	00H
	DB	00H
	DB	00H
	DB	00H
	DB	00H
	DB	00H
	DB	00H
	DB	00H
	DB	00H
	DB	00H
	DB	00H
	DB	00H
	DB	00H
	DB	00H
	DB	00H
	DB	00H
	DB	00H
	DB	00H
	DB	00H
	DB	00H
	DB	00H
	DB	00H
	DB	00H
	DB	00H
	DB	00H
	DB	00H
	DB	00H
	DB	00H
	DB	00H
	DB	00H
	DB	00H
	DB	00H
	DB	00H
	DB	00H
	DB	00H
	DB	00H
	DB	00H
	DB	00H
	DB	00H
	DB	00H
	DB	00H
	DB	00H
	DB	00H
	DB	00H
	DB	00H
	DB	00H
	DB	00H
	DB	00H
	DB	00H
	DB	00H
	DB	00H
	DB	00H
	DB	00H
	DB	00H
	DB	00H
	DB	00H
	DB	00H
	DB	00H
	DB	00H
	DB	00H
	DB	00H
	DB	00H
	DB	00H
	DB	00H
	DB	00H
	DB	00H
	DB	00H
	DB	00H
	DB	00H
	DB	00H
	DB	00H
	DB	00H
	DB	00H
	DB	00H
	DB	00H
	DB	00H
	DB	00H
	DB	00H
	DB	00H
	DB	00H
	DB	00H
	DB	00H
	DB	00H
	DB	00H
	DB	00H
	DB	00H
	DB	00H
	DB	00H
	DB	00H
	DB	00H
	DB	00H
	DB	00H
	DB	00H
	DB	00H
	DB	00H
	DB	00H
	DB	00H
	DB	00H
	DB	00H
	DB	00H
	DB	00H
	DB	00H
	DB	00H
	DB	00H
	DB	00H
	DB	00H
	DB	00H
	DB	00H
	DB	00H
	DB	00H
	DB	00H
	DB	00H
	DB	00H
	DB	00H
	DB	00H
	DB	00H
	DB	00H
	DB	00H
	DB	00H
	DB	00H
	DB	00H
	DB	00H
	DB	00H
	DB	00H
	DB	00H
	DB	00H
	DB	00H
	DB	00H
	DB	00H
	DB	00H
	DB	00H
	DB	00H
	DB	00H
	DB	00H
	DB	00H
	DB	00H
	DB	00H
	DB	00H
	DB	00H
	DB	00H
	DB	00H
	DB	00H
	DB	00H
	DB	00H
	DB	00H
	DB	00H
	DB	00H
	DB	00H
	DB	00H
	DB	00H
	DB	00H
	DB	00H
	DB	00H
	DB	00H
	DB	00H
	DB	00H
	DB	00H
	DB	00H
	DB	00H
	DB	00H
	DB	00H
	DB	00H
	DB	00H
	DB	00H
	DB	00H
	DB	00H
	DB	00H
	DB	00H
	DB	00H
	DB	00H
	DB	00H
	DB	00H
	DB	00H
	DB	00H
	DB	00H
	DB	00H
	DB	00H
	DB	00H
	DB	00H
	DB	00H
	DB	00H
	DB	00H
	DB	00H
	DB	00H
	DB	00H
	DB	00H
	DB	00H
	DB	00H
	DB	00H
	DB	00H
	DB	00H
	DB	00H
	DB	00H
	DB	00H
	DB	00H
	DB	00H
	DB	00H
	DB	00H
	DB	00H
	DB	00H
	DB	00H
	DB	00H
	DB	00H
	DB	00H
	DB	00H
	DB	00H
	DB	00H
	DB	00H
	DB	00H
	DB	00H
	DB	00H
	DB	00H
	DB	00H
	DB	00H
	DB	00H
	DB	00H
	DB	00H
	DB	00H
	DB	00H
	DB	00H
	DB	00H
	DB	00H
	DB	00H
	DB	00H
	DB	00H
	DB	00H
	DB	00H
	DB	00H
	DB	00H
	DB	00H
	DB	00H
	DB	00H
	DB	00H
	DB	00H
	DB	00H
	DB	00H
	DB	00H
	DB	00H
	DB	00H
	DB	00H
	DB	00H
	DB	00H
	DB	00H
	DB	00H
	DB	00H
	DB	00H
	DB	00H
	DB	00H
	DB	00H
	DB	00H
	DB	00H
	DB	00H
	DB	00H
	DB	00H
	DB	00H
	DB	00H
	DB	00H
	DB	00H
	DB	00H
	DB	00H
	DB	00H
	DB	00H
	DB	00H
	DB	00H
	DB	00H
	DB	00H
	DB	00H
	DB	00H
	DB	00H
	DB	00H
	DB	00H
	DB	00H
	DB	00H
	DB	00H
	DB	00H
	DB	00H
	DB	00H
	DB	00H
	DB	00H
	DB	00H
	DB	00H
	DB	00H
	DB	00H
	DB	00H
	DB	00H
	DB	00H
	DB	00H
	DB	00H
	DB	00H
	DB	00H
	DB	00H
	DB	00H
	DB	00H
	DB	00H
	DB	00H
	DB	00H
	DB	00H
	DB	00H
	DB	00H
	DB	00H
	DB	00H
	DB	00H
	DB	00H
	DB	00H
	DB	00H
	DB	00H
	DB	00H
	DB	00H
	DB	00H
	DB	00H
	DB	00H
	DB	00H
	DB	00H
	DB	00H
	DB	00H
	DB	00H
	DB	00H
	DB	00H
	DB	00H
	DB	00H
	DB	00H
	DB	00H
	DB	00H
	DB	00H
	DB	00H
	DB	00H
	DB	00H
	DB	00H
	DB	00H
	DB	00H
	DB	00H
	DB	00H
	DB	00H
	DB	00H
	DB	00H
	DB	00H
	DB	00H
	DB	00H
	DB	00H
	DB	00H
	DB	00H
	DB	00H
	DB	00H
	DB	00H
	DB	00H
	DB	00H
	DB	00H
	DB	00H
	DB	00H
	DB	00H
	DB	00H
	DB	00H
	DB	00H
	DB	00H
	DB	00H
	DB	00H
	DB	00H
	DB	00H
	DB	00H
	DB	00H
	DB	00H
	DB	00H
	DB	00H
	DB	00H
	DB	00H
	DB	00H
	DB	00H
	DB	00H
	DB	00H
	DB	00H
	DB	00H
	DB	00H
	DB	00H
	DB	00H
	DB	00H
	DB	00H
	DB	00H
	DB	00H
	DB	00H
	DB	00H
	DB	00H
	DB	00H
	DB	00H
	DB	00H
	DB	00H
	DB	00H
	DB	00H
	DB	00H
	DB	00H
	DB	00H
	DB	00H
	DB	00H
	DB	00H
	DB	00H
	DB	00H
	DB	00H
	DB	00H
	DB	00H
	DB	00H
	DB	00H
	DB	00H
	DB	00H
	DB	00H
	DB	00H
	DB	00H
	DB	00H
	DB	00H
	DB	00H
	DB	00H
	DB	00H
	DB	00H
	DB	00H
	DB	00H
	DB	00H
	DB	00H
	DB	00H
	DB	00H
	DB	00H
	DB	00H
	DB	00H
	DB	00H
	DB	00H
	DB	00H
	DB	00H
	DB	00H
	DB	00H
	DB	00H
	DB	00H
	DB	00H
	DB	00H
	DB	00H
	DB	00H
	DB	00H
	DB	00H
	DB	00H
	DB	00H
	DB	00H
	DB	00H
	DB	00H
	DB	00H
	DB	00H
	DB	00H
	DB	00H
	DB	00H
	DB	00H
	DB	00H
	DB	00H
	DB	00H
	DB	00H
	DB	00H
	DB	00H
	DB	00H
	DB	00H
	DB	00H
	DB	00H
	DB	00H
	DB	00H
	DB	00H
	DB	00H
	DB	00H
	DB	00H
	DB	00H
	DB	00H
	DB	00H
	DB	00H
	DB	00H
	DB	00H
	DB	00H
	DB	00H
	DB	00H
	DB	00H
	DB	00H
	DB	00H
	DB	00H
	DB	00H
	DB	00H
	DB	00H
	DB	00H
	DB	00H
	DB	00H
	DB	00H
	DB	00H
	DB	00H
	DB	00H
	DB	00H
	DB	00H
	DB	00H
	DB	00H
	DB	00H
	DB	00H
	DB	00H
	DB	00H
	DB	00H
	DB	00H
	DB	00H
	DB	00H
	DB	00H
	DB	00H
	DB	00H
	DB	00H
	DB	00H
	DB	00H
	DB	00H
	DB	00H
	DB	00H
	DB	00H
	DB	00H
	DB	00H
	DB	00H
	DB	00H
	DB	00H
	DB	00H
	DB	00H
	DB	00H
	DB	00H
	DB	00H
	DB	00H
	DB	00H
	DB	00H
	DB	00H
	DB	00H
	DB	00H
	DB	00H
	DB	00H
	DB	00H
	DB	00H
	DB	00H
	DB	00H
	DB	00H
	DB	00H
	DB	00H
	DB	00H
	DB	00H
	DB	00H
	DB	00H
	DB	00H
	DB	00H
	DB	00H
	DB	00H
	DB	00H
	DB	00H
	DB	00H
	DB	00H
	DB	00H
	DB	00H
	DB	00H
	DB	00H
	DB	00H
	DB	00H
	DB	00H
	DB	00H
	DB	00H
	DB	00H
	DB	00H
	DB	00H
	DB	00H
	DB	00H
	DB	00H
	DB	00H
	DB	00H
	DB	00H
	DB	00H
	DB	00H
	DB	00H
	DB	00H
	DB	00H
	DB	00H
	DB	00H
	DB	00H
	DB	00H
	DB	00H
	DB	00H
	DB	00H
	DB	00H
	DB	00H
	DB	00H
	DB	00H
	DB	00H
	DB	00H
	DB	00H
	DB	00H
	DB	00H
	DB	00H
	DB	00H
	DB	00H
	DB	00H
	DB	00H
	DB	00H
	DB	00H
	DB	00H
	DB	00H
	DB	00H
	DB	00H
	DB	00H
	DB	00H
	DB	00H
	DB	00H
	DB	00H
	DB	00H
	DB	00H
	DB	00H
	DB	00H
	DB	00H
	DB	00H
	DB	00H
	DB	00H
	DB	00H
	DB	00H
	DB	00H
	DB	00H
	DB	00H
	DB	00H
	DB	00H
	DB	00H
	DB	00H
	DB	00H
	DB	00H
	DB	00H
	DB	00H
	DB	00H
	DB	00H
	DB	00H
	DB	00H
	DB	00H
	DB	00H
	DB	00H
	DB	00H
	DB	00H
	DB	00H
	DB	00H
	DB	00H
	DB	00H
	DB	00H
	DB	00H
	DB	00H
	DB	00H
	DB	00H
	DB	00H
	DB	00H
	DB	00H
	DB	00H
	DB	00H
	DB	00H
	DB	00H
	DB	00H
	DB	00H
	DB	00H
	DB	00H
	DB	00H
	DB	00H
	DB	00H
	DB	00H
	DB	00H
	DB	00H
	DB	00H
	DB	00H
	DB	00H
	DB	00H
	DB	00H
	DB	00H
	DB	00H
	DB	00H
	DB	00H
	DB	00H
	DB	00H
	DB	00H
	DB	00H
	DB	00H
	DB	00H
	DB	00H
	DB	00H
	DB	00H
	DB	00H
	DB	00H
	DB	00H
	DB	00H
	DB	00H
	DB	00H
	DB	00H
	DB	00H
	DB	00H
	DB	00H
	DB	00H
	DB	00H
	DB	00H
	DB	00H
	DB	00H
	DB	00H
	DB	00H
	DB	00H
	DB	00H
	DB	00H
	DB	00H
	DB	00H
	DB	00H
	DB	00H
	DB	00H
	DB	00H
	DB	00H
	DB	00H
	DB	00H
	DB	00H
	DB	00H
	DB	00H
	DB	00H
	DB	00H
	DB	00H
	DB	00H
	DB	00H
	DB	00H
	DB	00H
	DB	00H
	DB	00H
	DB	00H
	DB	00H
	DB	00H
	DB	00H
	DB	00H
	DB	00H
	DB	00H
	DB	00H
	DB	00H
	DB	00H
	DB	00H
	DB	00H
	DB	00H
	DB	00H
	DB	00H
	DB	00H
	DB	00H
	DB	00H
	DB	00H
	DB	00H
	DB	00H
	DB	00H
	DB	00H
	DB	00H
	DB	00H
	DB	00H
	DB	00H
	DB	00H
	DB	00H
	DB	00H
	DB	00H
	DB	00H
	DB	00H
	DB	00H
	DB	00H
	DB	00H
	DB	00H
	DB	00H
	DB	00H
	DB	00H
	DB	00H
	DB	00H
	DB	00H
	DB	00H
	DB	00H
	DB	00H
	DB	00H
	DB	00H
	DB	00H
	DB	00H
	DB	00H
	DB	00H
	DB	00H
	DB	00H
	DB	00H
	DB	00H
	DB	00H
	DB	00H
	DB	00H
	DB	00H
	DB	00H
	DB	00H
	DB	00H
	DB	00H
	DB	00H
	DB	00H
	DB	00H
	DB	00H
	DB	00H
	DB	00H
	DB	00H
	DB	00H
	DB	00H
	DB	00H
	DB	00H
	DB	00H
	DB	00H
	DB	00H
	DB	00H
	DB	00H
	DB	00H
	DB	00H
	DB	00H
	DB	00H
	DB	00H
	DB	00H
	DB	00H
	DB	00H
	DB	00H
	DB	00H
	DB	00H
	DB	00H
	DB	00H
	DB	00H
	DB	00H
	DB	00H
	DB	00H
	DB	00H
	DB	00H
	DB	00H
	DB	00H
	DB	00H
	DB	00H
	DB	00H
	DB	00H
	DB	00H
	DB	00H
	DB	00H
	DB	00H
	DB	00H
	DB	00H
	DB	00H
	DB	00H
	DB	00H
	DB	00H
	DB	00H
	DB	00H
	DB	00H
	DB	00H
	DB	00H
	DB	00H
	DB	00H
	DB	00H
	DB	00H
	DB	00H
	DB	00H
	DB	00H
	DB	00H
	DB	00H
	DB	00H
	DB	00H
	DB	00H
	DB	00H
	DB	00H
	DB	00H
	DB	00H
	DB	00H
	DB	00H
	DB	00H
	DB	00H
	DB	00H
	DB	00H
	DB	00H
	DB	00H
	DB	00H
	DB	00H
	DB	00H
	DB	00H
	DB	00H
	DB	00H
	DB	00H
	DB	00H
	DB	00H
	DB	00H
	DB	00H
	DB	00H
	DB	00H
	DB	00H
	DB	00H
	DB	00H
	DB	00H
	DB	00H
	DB	00H
	DB	00H
	DB	00H
	DB	00H
	DB	00H
	DB	00H
	DB	00H
	DB	00H
	DB	00H
	DB	00H
	DB	00H
	DB	00H
	DB	00H
	DB	00H
	DB	00H
	DB	00H
	DB	00H
	DB	00H
	DB	00H
	DB	00H
	DB	00H
	DB	00H
	DB	00H
	DB	00H
	DB	00H
	DB	00H
	DB	00H
	DB	00H
	DB	00H
	DB	00H
	DB	00H
	DB	00H
	DB	00H
	DB	00H
	DB	00H
	DB	00H
	DB	00H
	DB	00H
	DB	00H
	DB	00H
	DB	00H
	DB	00H
	DB	00H
	DB	00H
	DB	00H
	DB	00H
	DB	00H
	DB	00H
	DB	00H
	DB	00H
	DB	00H
	DB	00H
	DB	00H
	DB	00H
	DB	00H
	DB	00H
	DB	00H
	DB	00H
	DB	00H
	DB	00H
	DB	00H
	DB	00H
	DB	00H
	DB	00H
	DB	00H
	DB	00H
	DB	00H
	DB	00H
	DB	00H
	DB	00H
	DB	00H
	DB	00H
	DB	00H
	DB	00H
	DB	00H
	DB	00H
	DB	00H
	DB	00H
	DB	00H
	DB	00H
	DB	00H
	DB	00H
	DB	00H
	DB	00H
	DB	00H
	DB	00H
	DB	00H
	DB	00H
	DB	00H
	DB	00H
	DB	00H
	DB	00H
	DB	00H
	DB	00H
	DB	00H
	DB	00H
	DB	00H
	DB	00H
	DB	00H
	DB	00H
	DB	00H
	DB	00H
	DB	00H
	DB	00H
	DB	00H
	DB	00H
	DB	00H
	DB	00H
	DB	00H
	DB	00H
	DB	00H
	DB	00H
	DB	00H
	DB	00H
	DB	00H
	DB	00H
	DB	00H
	DB	00H
	DB	00H
	DB	00H
	DB	00H
	DB	00H
	DB	00H
	DB	00H
	DB	00H
	DB	00H
	DB	00H
	DB	00H
	DB	00H
	DB	00H
	DB	00H
	DB	00H
	DB	00H
	DB	00H
	DB	00H
	DB	00H
	DB	00H
	DB	00H
	DB	00H
	DB	00H
	DB	00H
	DB	00H
	DB	00H
	DB	00H
	DB	00H
	DB	00H
	DB	00H
	DB	00H
	DB	00H
	DB	00H
	DB	00H
	DB	00H
	DB	00H
	DB	00H
	DB	00H
	DB	00H
	DB	00H
	DB	00H
	DB	00H
	DB	00H
	DB	00H
	DB	00H
	DB	00H
	DB	00H
	DB	00H
	DB	00H
	DB	00H
	DB	00H
	DB	00H
	DB	00H
	DB	00H
	DB	00H
	DB	00H
	DB	00H
	DB	00H
	DB	00H
	DB	00H
	DB	00H
	DB	00H
	DB	00H
	DB	00H
	DB	00H
	DB	00H
	DB	00H
	DB	00H
	DB	00H
	DB	00H
	DB	00H
	DB	00H
	DB	00H
	DB	00H
	DB	00H
	DB	00H
	DB	00H
	DB	00H
	DB	00H
	DB	00H
	DB	00H
	DB	00H
	DB	00H
	DB	00H
	DB	00H
	DB	00H
	DB	00H
	DB	00H
	DB	00H
	DB	00H
	DB	00H
	DB	00H
	DB	00H
	DB	00H
	DB	00H
	DB	00H
	DB	00H
	DB	00H
	DB	00H
	DB	00H
	DB	00H
	DB	00H
	DB	00H
	DB	00H
	DB	00H
	DB	00H
	DB	00H
	DB	00H
	DB	00H
	DB	00H
	DB	00H
	DB	00H
	DB	00H
	DB	00H
	DB	00H
	DB	00H
	DB	00H
	DB	00H
	DB	00H
	DB	00H
	DB	00H
	DB	00H
	DB	00H
	DB	00H
	DB	00H
	DB	00H
	DB	00H
	DB	00H
	DB	00H
	DB	00H
	DB	00H
	DB	00H
	DB	00H
	DB	00H
	DB	00H
	DB	00H
	DB	00H
	DB	00H
	DB	00H
	DB	00H
	DB	00H
	DB	00H
	DB	00H
	DB	00H
	DB	00H
	DB	00H
	DB	00H
	DB	00H
	DB	00H
	DB	00H
	DB	00H
	DB	00H
	DB	00H
	DB	00H
	DB	00H
	DB	00H
	DB	00H
	DB	00H
	DB	00H
	DB	00H
	DB	00H
	DB	00H
	DB	00H
	DB	00H
	DB	00H
	DB	00H
	DB	00H
	DB	00H
	DB	00H
	DB	00H
	DB	00H
	DB	00H
	DB	00H
	DB	00H
	DB	00H
	DB	00H
	DB	00H
	DB	00H
	DB	00H
	DB	00H
	DB	00H
	DB	00H
	DB	00H
	DB	00H
	DB	00H
	DB	00H
	DB	00H
	DB	00H
	DB	00H
	DB	00H
	DB	00H
	DB	00H
	DB	00H
	DB	00H
	DB	00H
	DB	00H
	DB	00H
	DB	00H
	DB	00H
	DB	00H
	DB	00H
	DB	00H
	DB	00H
	DB	00H
	DB	00H
	DB	00H
	DB	00H
	DB	00H
	DB	00H
	DB	00H
	DB	00H
	DB	00H
	DB	00H
	DB	00H
	DB	00H
	DB	00H
	DB	00H
	DB	00H
	DB	00H
	DB	00H
	DB	00H
	DB	00H
	DB	00H
	DB	00H
	DB	00H
	DB	00H
	DB	00H
	DB	00H
	DB	00H
	DB	00H
	DB	00H
	DB	00H
	DB	00H
	DB	00H
	DB	00H
	DB	00H
	DB	00H
	DB	00H
	DB	00H
	DB	00H
	DB	00H
	DB	00H
	DB	00H
	DB	00H
	DB	00H
	DB	00H
	DB	00H
	DB	00H
	DB	00H
	DB	00H
	DB	00H
	DB	00H
	DB	00H
	DB	00H
	DB	00H
	DB	00H
	DB	00H
	DB	00H
	DB	00H
	DB	00H
	DB	00H
	DB	00H
	DB	00H
	DB	00H
	DB	00H
	DB	00H
	DB	00H
	DB	00H
	DB	00H
	DB	00H
	DB	00H
	DB	00H
	DB	00H
	DB	00H
	DB	00H
	DB	00H
	DB	00H
	DB	00H
	DB	00H
	DB	00H
	DB	00H
	DB	00H
	DB	00H
	DB	00H
	DB	00H
	DB	00H
	DB	00H
	DB	00H
	DB	00H
	DB	00H
	DB	00H
	DB	00H
	DB	00H
	DB	00H
	DB	00H
	DB	00H
	DB	00H
	DB	00H
	DB	00H
	DB	00H
	DB	00H
	DB	00H
	DB	00H
	DB	00H
	DB	00H
	DB	00H
	DB	00H
	DB	00H
	DB	00H
	DB	00H
	DB	00H
	DB	00H
	DB	00H
	DB	00H
	DB	00H
	DB	00H
	DB	00H
	DB	00H
	DB	00H
	DB	00H
	DB	00H
	DB	00H
	DB	00H
	DB	00H
	DB	00H
	DB	00H
	DB	00H
	DB	00H
	DB	00H
	DB	00H
	DB	00H
	DB	00H
	DB	00H
	DB	00H
	DB	00H
	DB	00H
	DB	00H
	DB	00H
	DB	00H
	DB	00H
	DB	00H
	DB	00H
	DB	00H
	DB	00H
	DB	00H
	DB	00H
	DB	00H
	DB	00H
	DB	00H
	DB	00H
	DB	00H
	DB	00H
	DB	00H
	DB	00H
	DB	00H
	DB	00H
	DB	00H
	DB	00H
	DB	00H
	DB	00H
	DB	00H
	DB	00H
	DB	00H
	DB	00H
	DB	00H
	DB	00H
	DB	00H
	DB	00H
	DB	00H
	DB	00H
	DB	00H
	DB	00H
	DB	00H
	DB	00H
	DB	00H
	DB	00H
	DB	00H
	DB	00H
	DB	00H
	DB	00H
	DB	00H
	DB	00H
	DB	00H
	DB	00H
	DB	00H
	DB	00H
	DB	00H
	DB	00H
	DB	00H
	DB	00H
	DB	00H
	DB	00H
	DB	00H
	DB	00H
	DB	00H
	DB	00H
	DB	00H
	DB	00H
	DB	00H
	DB	00H
	DB	00H
	DB	00H
	DB	00H
	DB	00H
	DB	00H
	DB	00H
	DB	00H
	DB	00H
	DB	00H
	DB	00H
	DB	00H
	DB	00H
	DB	00H
	DB	00H
	DB	00H
	DB	00H
	DB	00H
	DB	00H
	DB	00H
	DB	00H
	DB	00H
	DB	00H
	DB	00H
	DB	00H
	DB	00H
	DB	00H
	DB	00H
	DB	00H
	DB	00H
	DB	00H
	DB	00H
	DB	00H
	DB	00H
	DB	00H
	DB	00H
	DB	00H
	DB	00H
	DB	00H
	DB	00H
	DB	00H
	DB	00H
	DB	00H
	DB	00H
	DB	00H
	DB	00H
	DB	00H
	DB	00H
	DB	00H
	DB	00H
	DB	00H
	DB	00H
	DB	00H
	DB	00H
	DB	00H
	DB	00H
	DB	00H
	DB	00H
	DB	00H
	DB	00H
	DB	00H
	DB	00H
	DB	00H
	DB	00H
	DB	00H
	DB	00H
	DB	00H
	DB	00H
	DB	00H
	DB	00H
	DB	00H
	DB	00H
	DB	00H
	DB	00H
	DB	00H
	DB	00H
	DB	00H
	DB	00H
	DB	00H
	DB	00H
	DB	00H
	DB	00H
	DB	00H
	DB	00H
	DB	00H
	DB	00H
	DB	00H
	DB	00H
	DB	00H
	DB	00H
	DB	00H
	DB	00H
	DB	00H
	DB	00H
	DB	00H
	DB	00H
	DB	00H
	DB	00H
	DB	00H
	DB	00H
	DB	00H
	DB	00H
	DB	00H
	DB	00H
	DB	00H
	DB	00H
	DB	00H
	DB	00H
	DB	00H
	DB	00H
	DB	00H
	DB	00H
	DB	00H
	DB	00H
	DB	00H
	DB	00H
	DB	00H
	DB	00H
	DB	00H
	DB	00H
	DB	00H
	DB	00H
	DB	00H
	DB	00H
	DB	00H
	DB	00H
	DB	00H
	DB	00H
	DB	00H
	DB	00H
	DB	00H
	DB	00H
	DB	00H
	DB	00H
	DB	00H
	DB	00H
	DB	00H
	DB	00H
	DB	00H
	DB	00H
	DB	00H
	DB	00H
	DB	00H
	DB	00H
	DB	00H
	DB	00H
	DB	00H
	DB	00H
	DB	00H
	DB	00H
	DB	00H
	DB	00H
	DB	00H
	DB	00H
	DB	00H
	DB	00H
	DB	00H
	DB	00H
	DB	00H
	DB	00H
	DB	00H
	DB	00H
	DB	00H
	DB	00H
	DB	00H
	DB	00H
	DB	00H
	DB	00H
	DB	00H
	DB	00H
	DB	00H
	DB	00H
	DB	00H
	DB	00H
	DB	00H
	DB	00H
	DB	00H
	DB	00H
	DB	00H
	DB	00H
	DB	00H
	DB	00H
	DB	00H
	DB	00H
	DB	00H
	DB	00H
	DB	00H
	DB	00H
	DB	00H
	DB	00H
	DB	00H
	DB	00H
	DB	00H
	DB	00H
	DB	00H
	DB	00H
	DB	00H
	DB	00H
	DB	00H
	DB	00H
	DB	00H
	DB	00H
	DB	00H
	DB	00H
	DB	00H
	DB	00H
	DB	00H
	DB	00H
	DB	00H
	DB	00H
	DB	00H
	DB	00H
	DB	00H
	DB	00H
	DB	00H
	DB	00H
	DB	00H
	DB	00H
	DB	00H
	DB	00H
	DB	00H
	DB	00H
	DB	00H
	DB	00H
	DB	00H
	DB	00H
	DB	00H
	DB	00H
	DB	00H
	DB	00H
	DB	00H
	DB	00H
	DB	00H
	DB	00H
	DB	00H
	DB	00H
	DB	00H
	DB	00H
	DB	00H
	DB	00H
	DB	00H
	DB	00H
	DB	00H
	DB	00H
	DB	00H
	DB	00H
	DB	00H
	DB	00H
	DB	00H
	DB	00H
	DB	00H
	DB	00H
	DB	00H
	DB	00H
	DB	00H
	DB	00H
	DB	00H
	DB	00H
	DB	00H
	DB	00H
	DB	00H
	DB	00H
	DB	00H
	DB	00H
	DB	00H
	DB	00H
	DB	00H
	DB	00H
	DB	00H
	DB	00H
	DB	00H
	DB	00H
	DB	00H
	DB	00H
	DB	00H
	DB	00H
	DB	00H
	DB	00H
	DB	00H
	DB	00H
	DB	00H
	DB	00H
	DB	00H
	DB	00H
	DB	00H
	DB	00H
	DB	00H
	DB	00H
	DB	00H
	DB	00H
	DB	00H
	DB	00H
	DB	00H
	DB	00H
	DB	00H
	DB	00H
	DB	00H
	DB	00H
	DB	00H
	DB	00H
	DB	00H
	DB	00H
	DB	00H
	DB	00H
	DB	00H
	DB	00H
	DB	00H
	DB	00H
	DB	00H
	DB	00H
	DB	00H
	DB	00H
	DB	00H
	DB	00H
	DB	00H
	DB	00H
	DB	00H
	DB	00H
	DB	00H
	DB	00H
	DB	00H
	DB	00H
	DB	00H
	DB	00H
	DB	00H
	DB	00H
	DB	00H
	DB	00H
	DB	00H
	DB	00H
	DB	00H
	DB	00H
	DB	00H
	DB	00H
	DB	00H
	DB	00H
	DB	00H
	DB	00H
	DB	00H
	DB	00H
	DB	00H
	DB	00H
	DB	00H
	DB	00H
	DB	00H
	DB	00H
	DB	00H
	DB	00H
	DB	00H
	DB	00H
	DB	00H
	DB	00H
	DB	00H
	DB	00H
	DB	00H
	DB	00H
	DB	00H
	DB	00H
	DB	00H
	DB	00H
	DB	00H
	DB	00H
	DB	00H
	DB	00H
	DB	00H
	DB	00H
	DB	00H
	DB	00H
	DB	00H
	DB	00H
	DB	00H
	DB	00H
	DB	00H
	DB	00H
	DB	00H
	DB	00H
	DB	00H
	DB	00H
	DB	00H
	DB	00H
	DB	00H
	DB	00H
	DB	00H
	DB	00H
	DB	00H
	DB	00H
	DB	00H
	DB	00H
	DB	00H
	DB	00H
	DB	00H
	DB	00H
	DB	00H
	DB	00H
	DB	00H
	DB	00H
	DB	00H
	DB	00H
	DB	00H
	DB	00H
	DB	00H
	DB	00H
	DB	00H
	DB	00H
	DB	00H
	DB	00H
	DB	00H
	DB	00H
	DB	00H
	DB	00H
	DB	00H
	DB	00H
	DB	00H
	DB	00H
	DB	00H
	DB	00H
	DB	00H
	DB	00H
	DB	00H
	DB	00H
	DB	00H
	DB	00H
	DB	00H
	DB	00H
	DB	00H
	DB	00H
	DB	00H
	DB	00H
	DB	00H
	DB	00H
	DB	00H
	DB	00H
	DB	00H
	DB	00H
	DB	00H
	DB	00H
	DB	00H
	DB	00H
	DB	00H
	DB	00H
	DB	00H
	DB	00H
	DB	00H
	DB	00H
	DB	00H
	DB	00H
	DB	00H
	DB	00H
	DB	00H
	DB	00H
	DB	00H
	DB	00H
	DB	00H
	DB	00H
	DB	00H
	DB	00H
	DB	00H
	DB	00H
	DB	00H
	DB	00H
	DB	00H
	DB	00H
	DB	00H
	DB	00H
	DB	00H
	DB	00H
	DB	00H
	DB	00H
	DB	00H
	DB	00H
	DB	00H
	DB	00H
	DB	00H
	DB	00H
	DB	00H
	DB	00H
	DB	00H
	DB	00H
	DB	00H
	DB	00H
	DB	00H
	DB	00H
	DB	00H
	DB	00H
	DB	00H
	DB	00H
	DB	00H
	DB	00H
	DB	00H
	DB	00H
	DB	00H
	DB	00H
	DB	00H
	DB	00H
	DB	00H
	DB	00H
	DB	00H
	DB	00H
	DB	00H
	DB	00H
	DB	00H
	DB	00H
	DB	00H
	DB	00H
	DB	00H
	DB	00H
	DB	00H
	DB	00H
	DB	00H
	DB	00H
	DB	00H
	DB	00H
	DB	00H
	DB	00H
	DB	00H
	DB	00H
	DB	00H
	DB	00H
	DB	00H
	DB	00H
	DB	00H
	DB	00H
	DB	00H
	DB	00H
	DB	00H
	DB	00H
	DB	00H
	DB	00H
	DB	00H
	DB	00H
	DB	00H
	DB	00H
	DB	00H
	DB	00H
	DB	00H
	DB	00H
	DB	00H
	DB	00H
	DB	00H
	DB	00H
	DB	00H
	DB	00H
	DB	00H
	DB	00H
	DB	00H
	DB	00H
	DB	00H
	DB	00H
	DB	00H
	DB	00H
	DB	00H
	DB	00H
	DB	00H
	DB	00H
	DB	00H
	DB	00H
	DB	00H
	DB	00H
	DB	00H
	DB	00H
	DB	00H
	DB	00H
	DB	00H
	DB	00H
	DB	00H
	DB	00H
	DB	00H
	DB	00H
	DB	00H
	DB	00H
	DB	00H
	DB	00H
	DB	00H
	DB	00H
	DB	00H
	DB	00H
	DB	00H
	DB	00H
	DB	00H
	DB	00H
	DB	00H
	DB	00H
	DB	00H
	DB	00H
	DB	00H
	DB	00H
	DB	00H
	DB	00H
	DB	00H
	DB	00H
	DB	00H
	DB	00H
	DB	00H
	DB	00H
	DB	00H
	DB	00H
	DB	00H
	DB	00H
	DB	00H
	DB	00H
	DB	00H
	DB	00H
	DB	00H
	DB	00H
	DB	00H
	DB	00H
	DB	00H
	DB	00H
	DB	00H
	DB	00H
	DB	00H
	DB	00H
	DB	00H
	DB	00H
	DB	00H
	DB	00H
	DB	00H
	DB	00H
	DB	00H
	DB	00H
	DB	00H
	DB	00H
	DB	00H
	DB	00H
	DB	00H
	DB	00H
	DB	00H
	DB	00H
	DB	00H
	DB	00H
	DB	00H
	DB	00H
	DB	00H
	DB	00H
	DB	00H
	DB	00H
	DB	00H
	DB	00H
	DB	00H
	DB	00H
	DB	00H
	DB	00H
	DB	00H
	DB	00H
	DB	00H
	DB	00H
	DB	00H
	DB	00H
	DB	00H
	DB	00H
	DB	00H
	DB	00H
	DB	00H
	DB	00H
	DB	00H
	DB	00H
	DB	00H
	DB	00H
	DB	00H
	DB	00H
	DB	00H
	DB	00H
	DB	00H
	DB	00H
	DB	00H
	DB	00H
	DB	00H
	DB	00H
	DB	00H
	DB	00H
	DB	00H
	DB	00H
	DB	00H
	DB	00H
	DB	00H
	DB	00H
	DB	00H
	DB	00H
	DB	00H
	DB	00H
	DB	00H
	DB	00H
	DB	00H
	DB	00H
	DB	00H
	DB	00H
	DB	00H
	DB	00H
	DB	00H
	DB	00H
	DB	00H
	DB	00H
	DB	00H
	DB	00H
	DB	00H
	DB	00H
	DB	00H
	DB	00H
	DB	00H
	DB	00H
	DB	00H
	DB	00H
	DB	00H
	DB	00H
	DB	00H
	DB	00H
	DB	00H
	DB	00H
	DB	00H
	DB	00H
	DB	00H
	DB	00H
	DB	00H
	DB	00H
	DB	00H
	DB	00H
	DB	00H
	DB	00H
	DB	00H
	DB	00H
	DB	00H
	DB	00H
	DB	00H
	DB	00H
	DB	00H
	DB	00H
	DB	00H
	DB	00H
	DB	00H
	DB	00H
	DB	00H
	DB	00H
	DB	00H
	DB	00H
	DB	00H
	DB	00H
	DB	00H
	DB	00H
	DB	00H
	DB	00H
	DB	00H
	DB	00H
	DB	00H
	DB	00H
	DB	00H
	DB	00H
	DB	00H
	DB	00H
	DB	00H
	DB	00H
	DB	00H
	DB	00H
	DB	00H
	DB	00H
	DB	00H
	DB	00H
	DB	00H
	DB	00H
	DB	00H
	DB	00H
	DB	00H
	DB	00H
	DB	00H
	DB	00H
	DB	00H
	DB	00H
	DB	00H
	DB	00H
	DB	00H
	DB	00H
	DB	00H
	DB	00H
	DB	00H
	DB	00H
	DB	00H
	DB	00H
	DB	00H
	DB	00H
	DB	00H
	DB	00H
	DB	00H
	DB	00H
	DB	00H
	DB	00H
	DB	00H
	DB	00H
	DB	00H
	DB	00H
	DB	00H
	DB	00H
	DB	00H
	DB	00H
	DB	00H
	DB	00H
	DB	00H
	DB	00H
	DB	00H
	DB	00H
	DB	00H
	DB	00H
	DB	00H
	DB	00H
	DB	00H
	DB	00H
	DB	00H
	DB	00H
	DB	00H
	DB	00H
	DB	00H
	DB	00H
	DB	00H
	DB	00H
	DB	00H
	DB	00H
	DB	00H
	DB	00H
	DB	00H
	DB	00H
	DB	00H
	DB	00H
	DB	00H
	DB	00H
	DB	00H
	DB	00H
	DB	00H
	DB	00H
	DB	00H
	DB	00H
	DB	00H
	DB	00H
	DB	00H
	DB	00H
	DB	00H
	DB	00H
	DB	00H
	DB	00H
	DB	00H
	DB	00H
	DB	00H
	DB	00H
	DB	00H
	DB	00H
	DB	00H
	DB	00H
	DB	00H
	DB	00H
	DB	00H
	DB	00H
	DB	00H
	DB	00H
	DB	00H
	DB	00H
	DB	00H
	DB	00H
	DB	00H
	DB	00H
	DB	00H
	DB	00H
	DB	00H
	DB	00H
	DB	00H
	DB	00H
	DB	00H
	DB	00H
	DB	00H
	DB	00H
	DB	00H
	DB	00H
	DB	00H
	DB	00H
	DB	00H
	DB	00H
	DB	00H
	DB	00H
	DB	00H
	DB	00H
	DB	00H
	DB	00H
	DB	00H
	DB	00H
	DB	00H
	DB	00H
	DB	00H
	DB	00H
	DB	00H
	DB	00H
	DB	00H
	DB	00H
	DB	00H
	DB	00H
	DB	00H
	DB	00H
	DB	00H
	DB	00H
	DB	00H
	DB	00H
	DB	00H
	DB	00H
	DB	00H
	DB	00H
	DB	00H
	DB	00H
	DB	00H
	DB	00H
	DB	00H
	DB	00H
	DB	00H
	DB	00H
	DB	00H
	DB	00H
	DB	00H
	DB	00H
	DB	00H
	DB	00H
	DB	00H
	DB	00H
	DB	00H
	DB	00H
	DB	00H
	DB	00H
	DB	00H
	DB	00H
	DB	00H
	DB	00H
	DB	00H
	DB	00H
	DB	00H
	DB	00H
	DB	00H
	DB	00H
	DB	00H
	DB	00H
	DB	00H
	DB	00H
	DB	00H
	DB	00H
	DB	00H
	DB	00H
	DB	00H
	DB	00H
	DB	00H
	DB	00H
	DB	00H
	DB	00H
	DB	00H
	DB	00H
	DB	00H
	DB	00H
	DB	00H
	DB	00H
	DB	00H
	DB	00H
	DB	00H
	DB	00H
	DB	00H
	DB	00H
	DB	00H
	DB	00H
	DB	00H
	DB	00H
	DB	00H
	DB	00H
	DB	00H
	DB	00H
	DB	00H
	DB	00H
	DB	00H
	DB	00H
	DB	00H
	DB	00H
	DB	00H
	DB	00H
	DB	00H
	DB	00H
	DB	00H
	DB	00H
	DB	00H
	DB	00H
	DB	00H
	DB	00H
	DB	00H
	DB	00H
	DB	00H
	DB	00H
	DB	00H
	DB	00H
	DB	00H
	DB	00H
	DB	00H
	DB	00H
	DB	00H
	DB	00H
	DB	00H
	DB	00H
	DB	00H
	DB	00H
	DB	00H
	DB	00H
	DB	00H
	DB	00H
	DB	00H
	DB	00H
	DB	00H
	DB	00H
	DB	00H
	DB	00H
	DB	00H
	DB	00H
	DB	00H
	DB	00H
	DB	00H
	DB	00H
	DB	00H
	DB	00H
	DB	00H
	DB	00H
	DB	00H
	DB	00H
	DB	00H
	DB	00H
	DB	00H
	DB	00H
	DB	00H
	DB	00H
	DB	00H
	DB	00H
	DB	00H
	DB	00H
	DB	00H
	DB	00H
	DB	00H
	DB	00H
	DB	00H
	DB	00H
	DB	00H
	DB	00H
	DB	00H
	DB	00H
	DB	00H
	DB	00H
	DB	00H
	DB	00H
	DB	00H
	DB	00H
	DB	00H
	DB	00H
	DB	00H
	DB	00H
	DB	00H
	DB	00H
	DB	00H
	DB	00H
	DB	00H
	DB	00H
	DB	00H
	DB	00H
	DB	00H
	DB	00H
	DB	00H
	DB	00H
	DB	00H
	DB	00H
	DB	00H
	DB	00H
	DB	00H
	DB	00H
	DB	00H
	DB	00H
	DB	00H
	DB	00H
	DB	00H
	DB	00H
	DB	00H
	DB	00H
	DB	00H
	DB	00H
	DB	00H
	DB	00H
	DB	00H
	DB	00H
	DB	00H
	DB	00H
	DB	00H
	DB	00H
	DB	00H
	DB	00H
	DB	00H
	DB	00H
	DB	00H
	DB	00H
	DB	00H
	DB	00H
	DB	00H
	DB	00H
	DB	00H
	DB	00H
	DB	00H
	DB	00H
	DB	00H
	DB	00H
	DB	00H
	DB	00H
	DB	00H
	DB	00H
	DB	00H
	DB	00H
	DB	00H
	DB	00H
	DB	00H
	DB	00H
	DB	00H
	DB	00H
	DB	00H
	DB	00H
	DB	00H
	DB	00H
	DB	00H
	DB	00H
	DB	00H
	DB	00H
	DB	00H
	DB	00H
	DB	00H
	DB	00H
	DB	00H
	DB	00H
	DB	00H
	DB	00H
	DB	00H
	DB	00H
	DB	00H
	DB	00H
	DB	00H
	DB	00H
	DB	00H
	DB	00H
	DB	00H
	DB	00H
	DB	00H
	DB	00H
	DB	00H
	DB	00H
	DB	00H
	DB	00H
	DB	00H
	DB	00H
	DB	00H
	DB	00H
	DB	00H
	DB	00H
	DB	00H
	DB	00H
	DB	00H
	DB	00H
	DB	00H
	DB	00H
	DB	00H
	DB	00H
	DB	00H
	DB	00H
	DB	00H
	DB	00H
	DB	00H
	DB	00H
	DB	00H
	DB	00H
	DB	00H
	DB	00H
	DB	00H
	DB	00H
	DB	00H
	DB	00H
	DB	00H
	DB	00H
	DB	00H
	DB	00H
	DB	00H
	DB	00H
	DB	00H
	DB	00H
	DB	00H
	DB	00H
	DB	00H
	DB	00H
	DB	00H
	DB	00H
	DB	00H
	DB	00H
	DB	00H
	DB	00H
	DB	00H
	DB	00H
	DB	00H
	DB	00H
	DB	00H
	DB	00H
	DB	00H
	DB	00H
	DB	00H
	DB	00H
	DB	00H
	DB	00H
	DB	00H
	DB	00H
	DB	00H
	DB	00H
	DB	00H
	DB	00H
	DB	00H
	DB	00H
	DB	00H
	DB	00H
	DB	00H
	DB	00H
	DB	00H
	DB	00H
	DB	00H
	DB	00H
	DB	00H
	DB	00H
	DB	00H
	DB	00H
	DB	00H
	DB	00H
	DB	00H
	DB	00H
	DB	00H
	DB	00H
	DB	00H
	DB	00H
	DB	00H
	DB	00H
	DB	00H
	DB	00H
	DB	00H
	DB	00H
	DB	00H
	DB	00H
	DB	00H
	DB	00H
	DB	00H
	DB	00H
	DB	00H
	DB	00H
	DB	00H
	DB	00H
	DB	00H
	DB	00H
	DB	00H
	DB	00H
	DB	00H
	DB	00H
	DB	00H
	DB	00H
	DB	00H
	DB	00H
	DB	00H
	DB	00H
	DB	00H
	DB	00H
	DB	00H
	DB	00H
	DB	00H
	DB	00H
	DB	00H
	DB	00H
	DB	00H
	DB	00H
	DB	00H
	DB	00H
	DB	00H
	DB	00H
	DB	00H
	DB	00H
	DB	00H
	DB	00H
	DB	00H
	DB	00H
	DB	00H
	DB	00H
	DB	00H
	DB	00H
	DB	00H
	DB	00H
	DB	00H
	DB	00H
	DB	00H
	DB	00H
	DB	00H
	DB	00H
	DB	00H
	DB	00H
	DB	00H
	DB	00H
	DB	00H
	DB	00H
	DB	00H
	DB	00H
	DB	00H
	DB	00H
	DB	00H
	DB	00H
	DB	00H
	DB	00H
	DB	00H
	DB	00H
	DB	00H
	DB	00H
	DB	00H
	DB	00H
	DB	00H
	DB	00H
	DB	00H
	DB	00H
	DB	00H
	DB	00H
	DB	00H
	DB	00H
	DB	00H
	DB	00H
	DB	00H
	DB	00H
	DB	00H
	DB	00H
	DB	00H
	DB	00H
	DB	00H
	DB	00H
	DB	00H
	DB	00H
	DB	00H
	DB	00H
	DB	00H
	DB	00H
	DB	00H
	DB	00H
	DB	00H
	DB	00H
	DB	00H
	DB	00H
	DB	00H
	DB	00H
	DB	00H
	DB	00H
	DB	00H
	DB	00H
	DB	00H
	DB	00H
	DB	00H
	DB	00H
	DB	00H
	DB	00H
	DB	00H
	DB	00H
	DB	00H
	DB	00H
	DB	00H
	DB	00H
	DB	00H
	DB	00H
	DB	00H
	DB	00H
	DB	00H
	DB	00H
	DB	00H
	DB	00H
	DB	00H
	DB	00H
	DB	00H
	DB	00H
	DB	00H
	DB	00H
	DB	00H
	DB	00H
	DB	00H
	DB	00H
	DB	00H
	DB	00H
	DB	00H
	DB	00H
	DB	00H
	DB	00H
	DB	00H
	DB	00H
	DB	00H
	DB	00H
	DB	00H
	DB	00H
	DB	00H
	DB	00H
	DB	00H
	DB	00H
	DB	00H
	DB	00H
	DB	00H
	DB	00H
	DB	00H
	DB	00H
	DB	00H
	DB	00H
	DB	00H
	DB	00H
	DB	00H
	DB	00H
	DB	00H
	DB	00H
	DB	00H
	DB	00H
	DB	00H
	DB	00H
	DB	00H
	DB	00H
	DB	00H
	DB	00H
	DB	00H
	DB	00H
	DB	00H
	DB	00H
	DB	00H
	DB	00H
	DB	00H
	DB	00H
	DB	00H
	DB	00H
	DB	00H
	DB	00H
	DB	00H
	DB	00H
	DB	00H
	DB	00H
	DB	00H
	DB	00H
	DB	00H
	DB	00H
	DB	00H
	DB	00H
	DB	00H
	DB	00H
	DB	00H
	DB	00H
	DB	00H
	DB	00H
	DB	00H
	DB	00H
	DB	00H
	DB	00H
	DB	00H
	DB	00H
	DB	00H
	DB	00H
	DB	00H
	DB	00H
	DB	00H
	DB	00H
	DB	00H
	DB	00H
	DB	00H
	DB	00H
	DB	00H
	DB	00H
	DB	00H
	DB	00H
	DB	00H
	DB	00H
	DB	00H
	DB	00H
	DB	00H
	DB	00H
	DB	00H
	DB	00H
	DB	00H
	DB	00H
	DB	00H
	DB	00H
	DB	00H
	DB	00H
	DB	00H
	DB	00H
	DB	00H
	DB	00H
	DB	00H
	DB	00H
	DB	00H
	DB	00H
	DB	00H
	DB	00H
	DB	00H
	DB	00H
	DB	00H
	DB	00H
	DB	00H
	DB	00H
	DB	00H
	DB	00H
	DB	00H
	DB	00H
	DB	00H
	DB	00H
	DB	00H
	DB	00H
	DB	00H
	DB	00H
	DB	00H
	DB	00H
	DB	00H
	DB	00H
	DB	00H
	DB	00H
	DB	00H
	DB	00H
	DB	00H
	DB	00H
	DB	00H
	DB	00H
	DB	00H
	DB	00H
	DB	00H
	DB	00H
	DB	00H
	DB	00H
	DB	00H
	DB	00H
	DB	00H
	DB	00H
	DB	00H
	DB	00H
	DB	00H
	DB	00H
	DB	00H
	DB	00H
	DB	00H
	DB	00H
	DB	00H
	DB	00H
	DB	00H
	DB	00H
	DB	00H
	DB	00H
	DB	00H
	DB	00H
	DB	00H
	DB	00H
	DB	00H
	DB	00H
	DB	00H
	DB	00H
	DB	00H
	DB	00H
	DB	00H
	DB	00H
	DB	00H
	DB	00H
	DB	00H
	DB	00H
	DB	00H
	DB	00H
	DB	00H
	DB	00H
	DB	00H
	DB	00H
	DB	00H
	DB	00H
	DB	00H
	DB	00H
	DB	00H
	DB	00H
	DB	00H
	DB	00H
	DB	00H
	DB	00H
	DB	00H
	DB	00H
	DB	00H
	DB	00H
	DB	00H
	DB	00H
	DB	00H
	DB	00H
	DB	00H
	DB	00H
	DB	00H
	DB	00H
	DB	00H
	DB	00H
	DB	00H
	DB	00H
	DB	00H
	DB	00H
	DB	00H
	DB	00H
	DB	00H
	DB	00H
	DB	00H
	DB	00H
	DB	00H
	DB	00H
	DB	00H
	DB	00H
	DB	00H
	DB	00H
	DB	00H
	DB	00H
	DB	00H
	DB	00H
	DB	00H
	DB	00H
	DB	00H
	DB	00H
	DB	00H
	DB	00H
	DB	00H
	DB	00H
	DB	00H
	DB	00H
	DB	00H
	DB	00H
	DB	00H
	DB	00H
	DB	00H
	DB	00H
	DB	00H
	DB	00H
	DB	00H
	DB	00H
	DB	00H
	DB	00H
	DB	00H
	DB	00H
	DB	00H
	DB	00H
	DB	00H
	DB	00H
	DB	00H
	DB	00H
	DB	00H
	DB	00H
	DB	00H
	DB	00H
	DB	00H
	DB	00H
	DB	00H
	DB	00H
	DB	00H
	DB	00H
	DB	00H
	DB	00H
	DB	00H
	DB	00H
	DB	00H
	DB	00H
	DB	00H
	DB	00H
	DB	00H
	DB	00H
	DB	00H
	DB	00H
	DB	00H
	DB	00H
	DB	00H
	DB	00H
	DB	00H
	DB	00H
	DB	00H
	DB	00H
	DB	00H
	DB	00H
	DB	00H
	DB	00H
	DB	00H
	DB	00H
	DB	00H
	DB	00H
	DB	00H
	DB	00H
	DB	00H
	DB	00H
	DB	00H
	DB	00H
	DB	00H
	DB	00H
	DB	00H
	DB	00H
	DB	00H
	DB	00H
	DB	00H
	DB	00H
	DB	00H
	DB	00H
	DB	00H
	DB	00H
	DB	00H
	DB	00H
	DB	00H
	DB	00H
	DB	00H
	DB	00H
	DB	00H
	DB	00H
	DB	00H
	DB	00H
	DB	00H
	DB	00H
	DB	00H
	DB	00H
	DB	00H
	DB	00H
	DB	00H
	DB	00H
	DB	00H
	DB	00H
	DB	00H
	DB	00H
	DB	00H
	DB	00H
	DB	00H
	DB	00H
	DB	00H
	DB	00H
	DB	00H
	DB	00H
	DB	00H
	DB	00H
	DB	00H
	DB	00H
	DB	00H
	DB	00H
	DB	00H
	DB	00H
	DB	00H
	DB	00H
	DB	00H
	DB	00H
	DB	00H
	DB	00H
	DB	00H
	DB	00H
	DB	00H
	DB	00H
	DB	00H
	DB	00H
	DB	00H
	DB	00H
	DB	00H
	DB	00H
	DB	00H
	DB	00H
	DB	00H
	DB	00H
	DB	00H
	DB	00H
	DB	00H
	DB	00H
	DB	00H
	DB	00H
	DB	00H
	DB	00H
	DB	00H
	DB	00H
	DB	00H
	DB	00H
	DB	00H
	DB	00H
	DB	00H
	DB	00H
	DB	00H
	DB	00H
	DB	00H
	DB	00H
	DB	00H
	DB	00H
	DB	00H
	DB	00H
	DB	00H
	DB	00H
	DB	00H
	DB	00H
	DB	00H
	DB	00H
	DB	00H
	DB	00H
	DB	00H
	DB	00H
	DB	00H
	DB	00H
	DB	00H
	DB	00H
	DB	00H
	DB	00H
	DB	00H
	DB	00H
	DB	00H
	DB	00H
	DB	00H
	DB	00H
	DB	00H
	DB	00H
	DB	00H
	DB	00H
	DB	00H
	DB	00H
	DB	00H
	DB	00H
	DB	00H
	DB	00H
	DB	00H
	DB	00H
	DB	00H
	DB	00H
	DB	00H
	DB	00H
	DB	00H
	DB	00H
	DB	00H
	DB	00H
	DB	00H
	DB	00H
	DB	00H
	DB	00H
	DB	00H
	DB	00H
	DB	00H
	DB	00H
	DB	00H
	DB	00H
	DB	00H
	DB	00H
	DB	00H
	DB	00H
	DB	00H
	DB	00H
	DB	00H
	DB	00H
	DB	00H
	DB	00H
	DB	00H
	DB	00H
	DB	00H
	DB	00H
	DB	00H
	DB	00H
	DB	00H
	DB	00H
	DB	00H
	DB	00H
	DB	00H
	DB	00H
	DB	00H
	DB	00H
	DB	00H
	DB	00H
	DB	00H
	DB	00H
	DB	00H
	DB	00H
	DB	00H
	DB	00H
	DB	00H
	DB	00H
	DB	00H
	DB	00H
	DB	00H
	DB	00H
	DB	00H
	DB	00H
	DB	00H
	DB	00H
	DB	00H
	DB	00H
	DB	00H
	DB	00H
	DB	00H
	DB	00H
	DB	00H
	DB	00H
	DB	00H
	DB	00H
	DB	00H
	DB	00H
	DB	00H
	DB	00H
	DB	00H
	DB	00H
	DB	00H
	DB	00H
	DB	00H
	DB	00H
	DB	00H
	DB	00H
	DB	00H
	DB	00H
	DB	00H
	DB	00H
	DB	00H
	DB	00H
	DB	00H
	DB	00H
	DB	00H
	DB	00H
	DB	00H
	DB	00H
	DB	00H
	DB	00H
	DB	00H
	DB	00H
	DB	00H
	DB	00H
	DB	00H
	DB	00H
	DB	00H
	DB	00H
	DB	00H
	DB	00H
	DB	00H
	DB	00H
	DB	00H
	DB	00H
	DB	00H
	DB	00H
	DB	00H
	DB	00H
	DB	00H
	DB	00H
	DB	00H
	DB	00H
	DB	00H
	DB	00H
	DB	00H
	DB	00H
	DB	00H
	DB	00H
	DB	00H
	DB	00H
	DB	00H
	DB	00H
	DB	00H
	DB	00H
	DB	00H
	DB	00H
	DB	00H
	DB	00H
	DB	00H
	DB	00H
	DB	00H
	DB	00H
	DB	00H
	DB	00H
	DB	00H
	DB	00H
	DB	00H
	DB	00H
	DB	00H
	DB	00H
	DB	00H
	DB	00H
	DB	00H
	DB	00H
	DB	00H
	DB	00H
	DB	00H
	DB	00H
	DB	00H
	DB	00H
	DB	00H
	DB	00H
	DB	00H
	DB	00H
	DB	00H
	DB	00H
	DB	00H
	DB	00H
	DB	00H
	DB	00H
	DB	00H
	DB	00H
	DB	00H
	DB	00H
	DB	00H
	DB	00H
	DB	00H
	DB	00H
	DB	00H
	DB	00H
	DB	00H
	DB	00H
	DB	00H
	DB	00H
	DB	00H
	DB	00H
	DB	00H
	DB	00H
	DB	00H
	DB	00H
	DB	00H
	DB	00H
	DB	00H
	DB	00H
	DB	00H
	DB	00H
	DB	00H
	DB	00H
	DB	00H
	DB	00H
	DB	00H
	DB	00H
	DB	00H
	DB	00H
	DB	00H
	DB	00H
	DB	00H
	DB	00H
	DB	00H
	DB	00H
	DB	00H
	DB	00H
	DB	00H
	DB	00H
	DB	00H
	DB	00H
	DB	00H
	DB	00H
	DB	00H
	DB	00H
	DB	00H
	DB	00H
	DB	00H
	DB	00H
	DB	00H
	DB	00H
	DB	00H
	DB	00H
	DB	00H
	DB	00H
	DB	00H
	DB	00H
	DB	00H
	DB	00H
	DB	00H
	DB	00H
	DB	00H
	DB	00H
	DB	00H
	DB	00H
	DB	00H
	DB	00H
	DB	00H
	DB	00H
	DB	00H
	DB	00H
	DB	00H
	DB	00H
	DB	00H
	DB	00H
	DB	00H
	DB	00H
	DB	00H
	DB	00H
	DB	00H
	DB	00H
	DB	00H
	DB	00H
	DB	00H
	DB	00H
	DB	00H
	DB	00H
	DB	00H
	DB	00H
	DB	00H
	DB	00H
	DB	00H
	DB	00H
	DB	00H
	DB	00H
	DB	00H
	DB	00H
	DB	00H
	DB	00H
	DB	00H
	DB	00H
	DB	00H
	DB	00H
	DB	00H
	DB	00H
	DB	00H
	DB	00H
	DB	00H
	DB	00H
	DB	00H
	DB	00H
	DB	00H
	DB	00H
	DB	00H
	DB	00H
	DB	00H
	DB	00H
	DB	00H
	DB	00H
	DB	00H
	DB	00H
	DB	00H
	DB	00H
	DB	00H
	DB	00H
	DB	00H
	DB	00H
	DB	00H
	DB	00H
	DB	00H
	DB	00H
	DB	00H
	DB	00H
	DB	00H
	DB	00H
	DB	00H
	DB	00H
	DB	00H
	DB	00H
	DB	00H
	DB	00H
	DB	00H
	DB	00H
	DB	00H
	DB	00H
	DB	00H
	DB	00H
	DB	00H
	DB	00H
	DB	00H
	DB	00H
	DB	00H
	DB	00H
	DB	00H
	DB	00H
	DB	00H
	DB	00H
	DB	00H
	DB	00H
	DB	00H
	DB	00H
	DB	00H
	DB	00H
	DB	00H
	DB	00H
	DB	00H
	DB	00H
	DB	00H
	DB	00H
	DB	00H
	DB	00H
	DB	00H
	DB	00H
	DB	00H
	DB	00H
	DB	00H
	DB	00H
	DB	00H
	DB	00H
	DB	00H
	DB	00H
	DB	00H
	DB	00H
	DB	00H
	DB	00H
	DB	00H
	DB	00H
	DB	00H
	DB	00H
	DB	00H
	DB	00H
	DB	00H
	DB	00H
	DB	00H
	DB	00H
	DB	00H
	DB	00H
	DB	00H
	DB	00H
	DB	00H
	DB	00H
	DB	00H
	DB	00H
	DB	00H
	DB	00H
	DB	00H
	DB	00H
	DB	00H
	DB	00H
	DB	00H
	DB	00H
	DB	00H
	DB	00H
	DB	00H
	DB	00H
	DB	00H
	DB	00H
	DB	00H
	DB	00H
	DB	00H
	DB	00H
	DB	00H
	DB	00H
	DB	00H
	DB	00H
	DB	00H
	DB	00H
	DB	00H
	DB	00H
	DB	00H
	DB	00H
	DB	00H
	DB	00H
	DB	00H
	DB	00H
	DB	00H
	DB	00H
	DB	00H
	DB	00H
	DB	00H
	DB	00H
	DB	00H
	DB	00H
	DB	00H
	DB	00H
	DB	00H
	DB	00H
	DB	00H
	DB	00H
	DB	00H
	DB	00H
	DB	00H
	DB	00H
	DB	00H
	DB	00H
	DB	00H
	DB	00H
	DB	00H
	DB	00H
	DB	00H
	DB	00H
	DB	00H
	DB	00H
	DB	00H
	DB	00H
	DB	00H
	DB	00H
	DB	00H
	DB	00H
	DB	00H
	DB	00H
	DB	00H
	DB	00H
	DB	00H
	DB	00H
	DB	00H
	DB	00H
	DB	00H
	DB	00H
	DB	00H
	DB	00H
	DB	00H
	DB	00H
	DB	00H
	DB	00H
	DB	00H
	DB	00H
	DB	00H
	DB	00H
	DB	00H
	DB	00H
	DB	00H
	DB	00H
	DB	00H
	DB	00H
	DB	00H
	DB	00H
	DB	00H
	DB	00H
	DB	00H
	DB	00H
	DB	00H
	DB	00H
	DB	00H
	DB	00H
	DB	00H
	DB	00H
	DB	00H
	DB	00H
	DB	00H
	DB	00H
	DB	00H
	DB	00H
	DB	00H
	DB	00H
	DB	00H
	DB	00H
	DB	00H
	DB	00H
	DB	00H
	DB	00H
	DB	00H
	DB	00H
	DB	00H
	DB	00H
	DB	00H
	DB	00H
	DB	00H
	DB	00H
	DB	00H
	DB	00H
	DB	00H
	DB	00H
	DB	00H
	DB	00H
	DB	00H
	DB	00H
	DB	00H
	DB	00H
	DB	00H
	DB	00H
	DB	00H
	DB	00H
	DB	00H
	DB	00H
	DB	00H
	DB	00H
	DB	00H
	DB	00H
	DB	00H
	DB	00H
	DB	00H
	DB	00H
	DB	00H
	DB	00H
	DB	00H
	DB	00H
	DB	00H
	DB	00H
	DB	00H
	DB	00H
	DB	00H
	DB	00H
	DB	00H
	DB	00H
	DB	00H
	DB	00H
	DB	00H
	DB	00H
	DB	00H
	DB	00H
	DB	00H
	DB	00H
	DB	00H
	DB	00H
	DB	00H
	DB	00H
	DB	00H
	DB	00H
	DB	00H
	DB	00H
	DB	00H
	DB	00H
	DB	00H
	DB	00H
	DB	00H
	DB	00H
	DB	00H
	DB	00H
	DB	00H
	DB	00H
	DB	00H
	DB	00H
	DB	00H
	DB	00H
	DB	00H
	DB	00H
	DB	00H
	DB	00H
	DB	00H
	DB	00H
	DB	00H
	DB	00H
	DB	00H
	DB	00H
	DB	00H
	DB	00H
	DB	00H
	DB	00H
	DB	00H
	DB	00H
	DB	00H
	DB	00H
	DB	00H
	DB	00H
	DB	00H
	DB	00H
	DB	00H
	DB	00H
	DB	00H
	DB	00H
	DB	00H
	DB	00H
	DB	00H
	DB	00H
	DB	00H
	DB	00H
	DB	00H
	DB	00H
	DB	00H
	DB	00H
	DB	00H
	DB	00H
	DB	00H
	DB	00H
	DB	00H
	DB	00H
	DB	00H
	DB	00H
	DB	00H
	DB	00H
	DB	00H
	DB	00H
	DB	00H
	DB	00H
	DB	00H
	DB	00H
	DB	00H
	DB	00H
	DB	00H
	DB	00H
	DB	00H
	DB	00H
	DB	00H
	DB	00H
	DB	00H
	DB	00H
	DB	00H
	DB	00H
	DB	00H
	DB	00H
	DB	00H
	DB	00H
	DB	00H
	DB	00H
	DB	00H
	DB	00H
	DB	00H
	DB	00H
	DB	00H
	DB	00H
	DB	00H
	DB	00H
	DB	00H
	DB	00H
	DB	00H
	DB	00H
	DB	00H
	DB	00H
	DB	00H
	DB	00H
	DB	00H
	DB	00H
	DB	00H
	DB	00H
	DB	00H
	DB	00H
	DB	00H
	DB	00H
	DB	00H
	DB	00H
	DB	00H
	DB	00H
	DB	00H
	DB	00H
	DB	00H
	DB	00H
	DB	00H
	DB	00H
	DB	00H
	DB	00H
	DB	00H
	DB	00H
	DB	00H
	DB	00H
	DB	00H
	DB	00H
	DB	00H
	DB	00H
	DB	00H
	DB	00H
	DB	00H
	DB	00H
	DB	00H
	DB	00H
	DB	00H
	DB	00H
	DB	00H
	DB	00H
	DB	00H
	DB	00H
	DB	00H
	DB	00H
	DB	00H
	DB	00H
	DB	00H
	DB	00H
	DB	00H
	DB	00H
	DB	00H
	DB	00H
	DB	00H
	DB	00H
	DB	00H
	DB	00H
	DB	00H
	DB	00H
	DB	00H
	DB	00H
	DB	00H
	DB	00H
	DB	00H
	DB	00H
	DB	00H
	DB	00H
	DB	00H
	DB	00H
	DB	00H
	DB	00H
	DB	00H
	DB	00H
	DB	00H
	DB	00H
	DB	00H
	DB	00H
	DB	00H
	DB	00H
	DB	00H
	DB	00H
	DB	00H
	DB	00H
	DB	00H
	DB	00H
	DB	00H
	DB	00H
	DB	00H
	DB	00H
	DB	00H
	DB	00H
	DB	00H
	DB	00H
	DB	00H
	DB	00H
	DB	00H
	DB	00H
	DB	00H
	DB	00H
	DB	00H
	DB	00H
	DB	00H
	DB	00H
	DB	00H
	DB	00H
	DB	00H
	DB	00H
	DB	00H
	DB	00H
	DB	00H
	DB	00H
	DB	00H
	DB	00H
	DB	00H
	DB	00H
	DB	00H
	DB	00H
	DB	00H
	DB	00H
	DB	00H
	DB	00H
	DB	00H
	DB	00H
	DB	00H
	DB	00H
	DB	00H
	DB	00H
	DB	00H
	DB	00H
	DB	00H
	DB	00H
	DB	00H
	DB	00H
	DB	00H
	DB	00H
	DB	00H
	DB	00H
	DB	00H
	DB	00H
	DB	00H
	DB	00H
	DB	00H
	DB	00H
	DB	00H
	DB	00H
	DB	00H
	DB	00H
	DB	00H
	DB	00H
	DB	00H
	DB	00H
	DB	00H
	DB	00H
	DB	00H
	DB	00H
	DB	00H
	DB	00H
	DB	00H
	DB	00H
	DB	00H
	DB	00H
	DB	00H
	DB	00H
	DB	00H
	DB	00H
	DB	00H
	DB	00H
	DB	00H
	DB	00H
	DB	00H
	DB	00H
	DB	00H
	DB	00H
	DB	00H
	DB	00H
	DB	00H
	DB	00H
	DB	00H
	DB	00H
	DB	00H
	DB	00H
	DB	00H
	DB	00H
	DB	00H
	DB	00H
	DB	00H
	DB	00H
	DB	00H
	DB	00H
	DB	00H
	DB	00H
	DB	00H
	DB	00H
	DB	00H
	DB	00H
	DB	00H
	DB	00H
	DB	00H
	DB	00H
	DB	00H
	DB	00H
	DB	00H
	DB	00H
	DB	00H
	DB	00H
	DB	00H
	DB	00H
	DB	00H
	DB	00H
	DB	00H
	DB	00H
	DB	00H
	DB	00H
	DB	00H
	DB	00H
	DB	00H
	DB	00H
	DB	00H
	DB	00H
	DB	00H
	DB	00H
	DB	00H
	DB	00H
	DB	00H
	DB	00H
	DB	00H
	DB	00H
	DB	00H
	DB	00H
	DB	00H
	DB	00H
	DB	00H
	DB	00H
	DB	00H
	DB	00H
	DB	00H
	DB	00H
	DB	00H
	DB	00H
	DB	00H
	DB	00H
	DB	00H
	DB	00H
	DB	00H
	DB	00H
	DB	00H
	DB	00H
	DB	00H
	DB	00H
	DB	00H
	DB	00H
	DB	00H
	DB	00H
	DB	00H
	DB	00H
	DB	00H
	DB	00H
	DB	00H
	DB	00H
	DB	00H
	DB	00H
	DB	00H
	DB	00H
	DB	00H
	DB	00H
	DB	00H
	DB	00H
	DB	00H
	DB	00H
	DB	00H
	DB	00H
	DB	00H
	DB	00H
	DB	00H
	DB	00H
	DB	00H
	DB	00H
	DB	00H
	DB	00H
	DB	00H
	DB	00H
	DB	00H
	DB	00H
	DB	00H
	DB	00H
	DB	00H
	DB	00H
	DB	00H
	DB	00H
	DB	00H
	DB	00H
	DB	00H
	DB	00H
	DB	00H
	DB	00H
	DB	00H
	DB	00H
	DB	00H
	DB	00H
	DB	00H
	DB	00H
	DB	00H
	DB	00H
	DB	00H
	DB	00H
	DB	00H
	DB	00H
	DB	00H
	DB	00H
	DB	00H
	DB	00H
	DB	00H
	DB	00H
	DB	00H
	DB	00H
	DB	00H
	DB	00H
	DB	00H
	DB	00H
	DB	00H
	DB	00H
	DB	00H
	DB	00H
	DB	00H
	DB	00H
	DB	00H
	DB	00H
	DB	00H
	DB	00H
	DB	00H
	DB	00H
	DB	00H
	DB	00H
	DB	00H
	DB	00H
	DB	00H
	DB	00H
	DB	00H
	DB	00H
	DB	00H
	DB	00H
	DB	00H
	DB	00H
	DB	00H
	DB	00H
	DB	00H
	DB	00H
	DB	00H
	DB	00H
	DB	00H
	DB	00H
	DB	00H
	DB	00H
	DB	00H
	DB	00H
	DB	00H
	DB	00H
	DB	00H
	DB	00H
	DB	00H
	DB	00H
	DB	00H
	DB	00H
	DB	00H
	DB	00H
	DB	00H
	DB	00H
	DB	00H
	DB	00H
	DB	00H
	DB	00H
	DB	00H
	DB	00H
	DB	00H
	DB	00H
	DB	00H
	DB	00H
	DB	00H
	DB	00H
	DB	00H
	DB	00H
	DB	00H
	DB	00H
	DB	00H
	DB	00H
	DB	00H
	DB	00H
	DB	00H
	DB	00H
	DB	00H
	DB	00H
	DB	00H
	DB	00H
	DB	00H
	DB	00H
	DB	00H
	DB	00H
	DB	00H
	DB	00H
	DB	00H
	DB	00H
	DB	00H
	DB	00H
	DB	00H
	DB	00H
	DB	00H
	DB	00H
	DB	00H
	DB	00H
	DB	00H
	DB	00H
	DB	00H
	DB	00H
	DB	00H
	DB	00H
	DB	00H
	DB	00H
	DB	00H
	DB	00H
	DB	00H
	DB	00H
	DB	00H
	DB	00H
	DB	00H
	DB	00H
	DB	00H
	DB	00H
	DB	00H
	DB	00H
	DB	00H
	DB	00H
	DB	00H
	DB	00H
	DB	00H
	DB	00H
	DB	00H
	DB	00H
	DB	00H
	DB	00H
	DB	00H
	DB	00H
	DB	00H
	DB	00H
	DB	00H
	DB	00H
	DB	00H
	DB	00H
	DB	00H
	DB	00H
	DB	00H
	DB	00H
	DB	00H
	DB	00H
	DB	00H
	DB	00H
	DB	00H
	DB	00H
	DB	00H
	DB	00H
	DB	00H
	DB	00H
	DB	00H
	DB	00H
	DB	00H
	DB	00H
	DB	00H
	DB	00H
	DB	00H
	DB	00H
	DB	00H
	DB	00H
	DB	00H
	DB	00H
	DB	00H
	DB	00H
	DB	00H
	DB	00H
	DB	00H
	DB	00H
	DB	00H
	DB	00H
	DB	00H
	DB	00H
	DB	00H
	DB	00H
	DB	00H
	DB	00H
	DB	00H
	DB	00H
	DB	00H
	DB	00H
	DB	00H
	DB	00H
	DB	00H
	DB	00H
	DB	00H
	DB	00H
	DB	00H
	DB	00H
	DB	00H
	DB	00H
	DB	00H
	DB	00H
	DB	00H
	DB	00H
	DB	00H
	DB	00H
	DB	00H
	DB	00H
	DB	00H
	DB	00H
	DB	00H
	DB	00H
	DB	00H
	DB	00H
	DB	00H
	DB	00H
	DB	00H
	DB	00H
	DB	00H
	DB	00H
	DB	00H
	DB	00H
	DB	00H
	DB	00H
	DB	00H
	DB	00H
	DB	00H
	DB	00H
	DB	00H
	DB	00H
	DB	00H
	DB	00H
	DB	00H
	DB	00H
	DB	00H
	DB	00H
	DB	00H
	DB	00H
	DB	00H
	DB	00H
	DB	00H
	DB	00H
	DB	00H
	DB	00H
	DB	00H
	DB	00H
	DB	00H
	DB	00H
	DB	00H
	DB	00H
	DB	00H
	DB	00H
	DB	00H
	DB	00H
	DB	00H
	DB	00H
	DB	00H
	DB	00H
	DB	00H
	DB	00H
	DB	00H
	DB	00H
	DB	00H
	DB	00H
	DB	00H
	DB	00H
	DB	00H
	DB	00H
	DB	00H
	DB	00H
	DB	00H
	DB	00H
	DB	00H
	DB	00H
	DB	00H
	DB	00H
	DB	00H
	DB	00H
	DB	00H
	DB	00H
	DB	00H
	DB	00H
	DB	00H
	DB	00H
	DB	00H
	DB	00H
	DB	00H
	DB	00H
	DB	00H
	DB	00H
	DB	00H
	DB	00H
	DB	00H
	DB	00H
	DB	00H
	DB	00H
	DB	00H
	DB	00H
	DB	00H
	DB	00H
	DB	00H
	DB	00H
	DB	00H
	DB	00H
	DB	00H
	DB	00H
	DB	00H
	DB	00H
	DB	00H
	DB	00H
	DB	00H
	DB	00H
	DB	00H
	DB	00H
	DB	00H
	DB	00H
	DB	00H
	DB	00H
	DB	00H
	DB	00H
	DB	00H
	DB	00H
	DB	00H
	DB	00H
	DB	00H
	DB	00H
	DB	00H
	DB	00H
	DB	00H
	DB	00H
	DB	00H
	DB	00H
	DB	00H
	DB	00H
	DB	00H
	DB	00H
	DB	00H
	DB	00H
	DB	00H
	DB	00H
	DB	00H
	DB	00H
	DB	00H
	DB	00H
	DB	00H
	DB	00H
	DB	00H
	DB	00H
	DB	00H
	DB	00H
	DB	00H
	DB	00H
	DB	00H
	DB	00H
	DB	00H
	DB	00H
	DB	00H
	DB	00H
	DB	00H
	DB	00H
	DB	00H
	DB	00H
	DB	00H
	DB	00H
	DB	00H
	DB	00H
	DB	00H
	DB	00H
	DB	00H
	DB	00H
	DB	00H
	DB	00H
	DB	00H
	DB	00H
	DB	00H
	DB	00H
	DB	00H
	DB	00H
	DB	00H
	DB	00H
	DB	00H
	DB	00H
	DB	00H
	DB	00H
	DB	00H
	DB	00H
	DB	00H
	DB	00H
	DB	00H
	DB	00H
	DB	00H
	DB	00H
	DB	00H
	DB	00H
	DB	00H
	DB	00H
	DB	00H
	DB	00H
	DB	00H
	DB	00H
	DB	00H
	DB	00H
	DB	00H
	DB	00H
	DB	00H
	DB	00H
	DB	00H
	DB	00H
	DB	00H
	DB	00H
	DB	00H
	DB	00H
	DB	00H
	DB	00H
	DB	00H
	DB	00H
	DB	00H
	DB	00H
	DB	00H
	DB	00H
	DB	00H
	DB	00H
	DB	00H
	DB	00H
	DB	00H
	DB	00H
	DB	00H
	DB	00H
	DB	00H
	DB	00H
	DB	00H
	DB	00H
	DB	00H
	DB	00H
	DB	00H
	DB	00H
	DB	00H
	DB	00H
	DB	00H
	DB	00H
	DB	00H
	DB	00H
	DB	00H
	DB	00H
	DB	00H
	DB	00H
	DB	00H
	DB	00H
	DB	00H
	DB	00H
	DB	00H
	DB	00H
	DB	00H
	DB	00H
	DB	00H
	DB	00H
	DB	00H
	DB	00H
	DB	00H
	DB	00H
	DB	00H
	DB	00H
	DB	00H
	DB	00H
	DB	00H
	DB	00H
	DB	00H
	DB	00H
	DB	00H
	DB	00H
	DB	00H
	DB	00H
	DB	00H
	DB	00H
	DB	00H
	DB	00H
	DB	00H
	DB	00H
	DB	00H
	DB	00H
	DB	00H
	DB	00H
	DB	00H
	DB	00H
	DB	00H
	DB	00H
	DB	00H
	DB	00H
	DB	00H
	DB	00H
	DB	00H
	DB	00H
	DB	00H
	DB	00H
	DB	00H
	DB	00H
	DB	00H
	DB	00H
	DB	00H
	DB	00H
	DB	00H
	DB	00H
	DB	00H
	DB	00H
	DB	00H
	DB	00H
	DB	00H
	DB	00H
	DB	00H
	DB	00H
	DB	00H
	DB	00H
	DB	00H
	DB	00H
	DB	00H
	DB	00H
	DB	00H
	DB	00H
	DB	00H
	DB	00H
	DB	00H
	DB	00H
	DB	00H
	DB	00H
	DB	00H
	DB	00H
	DB	00H
	DB	00H
	DB	00H
	DB	00H
	DB	00H
	DB	00H
	DB	00H
	DB	00H
	DB	00H
	DB	00H
	DB	00H
	DB	00H
	DB	00H
	DB	00H
	DB	00H
	DB	00H
	DB	00H
	DB	00H
	DB	00H
	DB	00H
	DB	00H
	DB	00H
	DB	00H
	DB	00H
	DB	00H
	DB	00H
	DB	00H
	DB	00H
	DB	00H
	DB	00H
	DB	00H
	DB	00H
	DB	00H
	DB	00H
	DB	00H
	DB	00H
	DB	00H
	DB	00H
	DB	00H
	DB	00H
	DB	00H
	DB	00H
	DB	00H
	DB	00H
	DB	00H
	DB	00H
	DB	00H
	DB	00H
	DB	00H
	DB	00H
	DB	00H
	DB	00H
	DB	00H
	DB	00H
	DB	00H
	DB	00H
	DB	00H
	DB	00H
	DB	00H
	DB	00H
	DB	00H
	DB	00H
	DB	00H
	DB	00H
	DB	00H
	DB	00H
	DB	00H
	DB	00H
	DB	00H
	DB	00H
	DB	00H
	DB	00H
	DB	00H
	DB	00H
	DB	00H
	DB	00H
	DB	00H
	DB	00H
	DB	00H
	DB	00H
	DB	00H
	DB	00H
	DB	00H
	DB	00H
	DB	00H
	DB	00H
	DB	00H
	DB	00H
	DB	00H
	DB	00H
	DB	00H
	DB	00H
	DB	00H
	DB	00H
	DB	00H
	DB	00H
	DB	00H
	DB	00H
	DB	00H
	DB	00H
	DB	00H
	DB	00H
	DB	00H
	DB	00H
	DB	00H
	DB	00H
	DB	00H
	DB	00H
	DB	00H
	DB	00H
	DB	00H
	DB	00H
	DB	00H
	DB	00H
	DB	00H
	DB	00H
	DB	00H
	DB	00H
	DB	00H
	DB	00H
	DB	00H
	DB	00H
	DB	00H
	DB	00H
	DB	00H
	DB	00H
	DB	00H
	DB	00H
	DB	00H
	DB	00H
	DB	00H
	DB	00H
	DB	00H
	DB	00H
	DB	00H
	DB	00H
	DB	00H
	DB	00H
	DB	00H
	DB	00H
	DB	00H
	DB	00H
	DB	00H
	DB	00H
	DB	00H
	DB	00H
	DB	00H
	DB	00H
	DB	00H
	DB	00H
	DB	00H
	DB	00H
	DB	00H
	DB	00H
	DB	00H
	DB	00H
	DB	00H
	DB	00H
	DB	00H
	DB	00H
	DB	00H
	DB	00H
	DB	00H
	DB	00H
	DB	00H
	DB	00H
	DB	00H
	DB	00H
	DB	00H
	DB	00H
	DB	00H
	DB	00H
	DB	00H
	DB	00H
	DB	00H
	DB	00H
	DB	00H
	DB	00H
	DB	00H
	DB	00H
	DB	00H
	DB	00H
	DB	00H
	DB	00H
	DB	00H
	DB	00H
	DB	00H
	DB	00H
	DB	00H
	DB	00H
	DB	00H
	DB	00H
	DB	00H
	DB	00H
	DB	00H
	DB	00H
	DB	00H
	DB	00H
	DB	00H
	DB	00H
	DB	00H
	DB	00H
	DB	00H
	DB	00H
	DB	00H
	DB	00H
	DB	00H
	DB	00H
	DB	00H
	DB	00H
	DB	00H
	DB	00H
	DB	00H
	DB	00H
	DB	00H
	DB	00H
	DB	00H
	DB	00H
	DB	00H
	DB	00H
	DB	00H
	DB	00H
	DB	00H
	DB	00H
	DB	00H
	DB	00H
	DB	00H
	DB	00H
	DB	00H
	DB	00H
	DB	00H
	DB	00H
	DB	00H
	DB	00H
	DB	00H
	DB	00H
	DB	00H
	DB	00H
	DB	00H
	DB	00H
	DB	00H
	DB	00H
	DB	00H
	DB	00H
	DB	00H
	DB	00H
	DB	00H
	DB	00H
	DB	00H
	DB	00H
	DB	00H
	DB	00H
	DB	00H
	DB	00H
	DB	00H
	DB	00H
	DB	00H
	DB	00H
	DB	00H
	DB	00H
	DB	00H
	DB	00H
	DB	00H
	DB	00H
	DB	00H
	DB	00H
	DB	00H
	DB	00H
	DB	00H
	DB	00H
	DB	00H
	DB	00H
	DB	00H
	DB	00H
	DB	00H
	DB	00H
	DB	00H
	DB	00H
	DB	00H
	DB	00H
	DB	00H
	DB	00H
	DB	00H
	DB	00H
	DB	00H
	DB	00H
	DB	00H
	DB	00H
	DB	00H
	DB	00H
	DB	00H
	DB	00H
	DB	00H
	DB	00H
	DB	00H
	DB	00H
	DB	00H
	DB	00H
	DB	00H
	DB	00H
	DB	00H
	DB	00H
	DB	00H
	DB	00H
	DB	00H
	DB	00H
	DB	00H
	DB	00H
	DB	00H
	DB	00H
	DB	00H
	DB	00H
	DB	00H
	DB	00H
	DB	00H
	DB	00H
	DB	00H
	DB	00H
	DB	00H
	DB	00H
	DB	00H
	DB	00H
	DB	00H
	DB	00H
	DB	00H
	DB	00H
	DB	00H
	DB	00H
	DB	00H
	DB	00H
	DB	00H
	DB	00H
	DB	00H
	DB	00H
	DB	00H
	DB	00H
	DB	00H
	DB	00H
	DB	00H
	DB	00H
	DB	00H
	DB	00H
	DB	00H
	DB	00H
	DB	00H
	DB	00H
	DB	00H
	DB	00H
	DB	00H
	DB	00H
	DB	00H
	DB	00H
	DB	00H
	DB	00H
	DB	00H
	DB	00H
	DB	00H
	DB	00H
	DB	00H
	DB	00H
	DB	00H
	DB	00H
	DB	00H
	DB	00H
	DB	00H
	DB	00H
	DB	00H
	DB	00H
	DB	00H
	DB	00H
	DB	00H
	DB	00H
	DB	00H
	DB	00H
	DB	00H
	DB	00H
	DB	00H
	DB	00H
	DB	00H
	DB	00H
	DB	00H
	DB	00H
	DB	00H
	DB	00H
	DB	00H
	DB	00H
	DB	00H
	DB	00H
	DB	00H
	DB	00H
	DB	00H
	DB	00H
	DB	00H
	DB	00H
	DB	00H
	DB	00H
	DB	00H
	DB	00H
	DB	00H
	DB	00H
	DB	00H
	DB	00H
	DB	00H
	DB	00H
	DB	00H
	DB	00H
	DB	00H
	DB	00H
	DB	00H
	DB	00H
	DB	00H
	DB	00H
	DB	00H
	DB	00H
	DB	00H
	DB	00H
	DB	00H
	DB	00H
	DB	00H
	DB	00H
	DB	00H
	DB	00H
	DB	00H
	DB	00H
	DB	00H
	DB	00H
	DB	00H
	DB	00H
	DB	00H
	DB	00H
	DB	00H
	DB	00H
	DB	00H
	DB	00H
	DB	00H
	DB	00H
	DB	00H
	DB	00H
	DB	00H
	DB	00H
	DB	00H
	DB	00H
	DB	00H
	DB	00H
	DB	00H
	DB	00H
	DB	00H
	DB	00H
	DB	00H
	DB	00H
	DB	00H
	DB	00H
	DB	00H
	DB	00H
	DB	00H
	DB	00H
	DB	00H
	DB	00H
	DB	00H
	DB	00H
	DB	00H
	DB	00H
	DB	00H
	DB	00H
	DB	00H
	DB	00H
	DB	00H
	DB	00H
	DB	00H
	DB	00H
	DB	00H
	DB	00H
	DB	00H
	DB	00H
	DB	00H
	DB	00H
	DB	00H
	DB	00H
	DB	00H
	DB	00H
	DB	00H
	DB	00H
	DB	00H
	DB	00H
	DB	00H
	DB	00H
	DB	00H
	DB	00H
	DB	00H
	DB	00H
	DB	00H
	DB	00H
	DB	00H
	DB	00H
	DB	00H
	DB	00H
	DB	00H
	DB	00H
	DB	00H
	DB	00H
	DB	00H
	DB	00H
	DB	00H
	DB	00H
	DB	00H
	DB	00H
	DB	00H
	DB	00H
	DB	00H
	DB	00H
	DB	00H
	DB	00H
	DB	00H
	DB	00H
	DB	00H
	DB	00H
	DB	00H
	DB	00H
	DB	00H
	DB	00H
	DB	00H
	DB	00H
	DB	00H
	DB	00H
	DB	00H
	DB	00H
	DB	00H
	DB	00H
	DB	00H
	DB	00H
	DB	00H
	DB	00H
	DB	00H
	DB	00H
	DB	00H
	DB	00H
	DB	00H
	DB	00H
	DB	00H
	DB	00H
	DB	00H
	DB	00H
	DB	00H
	DB	00H
	DB	00H
	DB	00H
	DB	00H
	DB	00H
	DB	00H
	DB	00H
	DB	00H
	DB	00H
	DB	00H
	DB	00H
	DB	00H
	DB	00H
	DB	00H
	DB	00H
	DB	00H
	DB	00H
	DB	00H
	DB	00H
	DB	00H
	DB	00H
	DB	00H
	DB	00H
	DB	00H
	DB	00H
	DB	00H
	DB	00H
	DB	00H
	DB	00H
	DB	00H
	DB	00H
	DB	00H
	DB	00H
	DB	00H
	DB	00H
	DB	00H
	DB	00H
	DB	00H
	DB	00H
	DB	00H
	DB	00H
	DB	00H
	DB	00H
	DB	00H
	DB	00H
	DB	00H
	DB	00H
	DB	00H
	DB	00H
	DB	00H
	DB	00H
	DB	00H
	DB	00H
	DB	00H
	DB	00H
	DB	00H
	DB	00H
	DB	00H
	DB	00H
	DB	00H
	DB	00H
	DB	00H
	DB	00H
	DB	00H
	DB	00H
	DB	00H
	DB	00H
	DB	00H
	DB	00H
	DB	00H
	DB	00H
	DB	00H
	DB	00H
	DB	00H
	DB	00H
	DB	00H
	DB	00H
	DB	00H
	DB	00H
	DB	00H
	DB	00H
	DB	00H
	DB	00H
	DB	00H
	DB	00H
	DB	00H
	DB	00H
	DB	00H
	DB	00H
	DB	00H
	DB	00H
	DB	00H
	DB	00H
	DB	00H
	DB	00H
	DB	00H
	DB	00H
	DB	00H
	DB	00H
	DB	00H
	DB	00H
	DB	00H
	DB	00H
	DB	00H
	DB	00H
	DB	00H
	DB	00H
	DB	00H
	DB	00H
	DB	00H
	DB	00H
	DB	00H
	DB	00H
	DB	00H
	DB	00H
	DB	00H
	DB	00H
	DB	00H
	DB	00H
	DB	00H
	DB	00H
	DB	00H
	DB	00H
	DB	00H
	DB	00H
	DB	00H
	DB	00H
	DB	00H
	DB	00H
	DB	00H
	DB	00H
	DB	00H
	DB	00H
	DB	00H
	DB	00H
	DB	00H
	DB	00H
	DB	00H
	DB	00H
	DB	00H
	DB	00H
	DB	00H
	DB	00H
	DB	00H
	DB	00H
	DB	00H
	DB	00H
	DB	00H
	DB	00H
	DB	00H
	DB	00H
	DB	00H
	DB	00H
	DB	00H
	DB	00H
	DB	00H
	DB	00H
	DB	00H
	DB	00H
	DB	00H
	DB	00H
	DB	00H
	DB	00H
	DB	00H
	DB	00H
	DB	00H
	DB	00H
	DB	00H
	DB	00H
	DB	00H
	DB	00H
	DB	00H
	DB	00H
	DB	00H
	DB	00H
	DB	00H
	DB	00H
	DB	00H
	DB	00H
	DB	00H
	DB	00H
	DB	00H
	DB	00H
	DB	00H
	DB	00H
	DB	00H
	DB	00H
	DB	00H
	DB	00H
	DB	00H
	DB	00H
	DB	00H
	DB	00H
	DB	00H
	DB	00H
	DB	00H
	DB	00H
	DB	00H
	DB	00H
	DB	00H
	DB	00H
	DB	00H
	DB	00H
	DB	00H
	DB	00H
	DB	00H
	DB	00H
	DB	00H
	DB	00H
	DB	00H
	DB	00H
	DB	00H
	DB	00H
	DB	00H
	DB	00H
	DB	00H
	DB	00H
	DB	00H
	DB	00H
	DB	00H
	DB	00H
	DB	00H
	DB	00H
	DB	00H
	DB	00H
	DB	00H
	DB	00H
	DB	00H
	DB	00H
	DB	00H
	DB	00H
	DB	00H
	DB	00H
	DB	00H
	DB	00H
	DB	00H
	DB	00H
	DB	00H
	DB	00H
	DB	00H
	DB	00H
	DB	00H
	DB	00H
	DB	00H
	DB	00H
	DB	00H
	DB	00H
	DB	00H
	DB	00H
	DB	00H
	DB	00H
	DB	00H
	DB	00H
	DB	00H
	DB	00H
	DB	00H
	DB	00H
	DB	00H
	DB	00H
	DB	00H
	DB	00H
	DB	00H
	DB	00H
	DB	00H
	DB	00H
	DB	00H
	DB	00H
	DB	00H
	DB	00H
	DB	00H
	DB	00H
	DB	00H
	DB	00H
	DB	00H
	DB	00H
	DB	00H
	DB	00H
	DB	00H
	DB	00H
	DB	00H
	DB	00H
	DB	00H
	DB	00H
	DB	00H
	DB	00H
	DB	00H
	DB	00H
	DB	00H
	DB	00H
	DB	00H
	DB	00H
	DB	00H
	DB	00H
	DB	00H
	DB	00H
	DB	00H
	DB	00H
	DB	00H
	DB	00H
	DB	00H
	DB	00H
	DB	00H
	DB	00H
	DB	00H
	DB	00H
	DB	00H
	DB	00H
	DB	00H
	DB	00H
	DB	00H
	DB	00H
	DB	00H
	DB	00H
	DB	00H
	DB	00H
	DB	00H
	DB	00H
	DB	00H
	DB	00H
	DB	00H
	DB	00H
	DB	00H
	DB	00H
	DB	00H
	DB	00H
	DB	00H
	DB	00H
	DB	00H
	DB	00H
	DB	00H
	DB	00H
	DB	00H
	DB	00H
	DB	00H
	DB	00H
	DB	00H
	DB	00H
	DB	00H
	DB	00H
	DB	00H
	DB	00H
	DB	00H
	DB	00H
	DB	00H
	DB	00H
	DB	00H
	DB	00H
	DB	00H
	DB	00H
	DB	00H
	DB	00H
	DB	00H
	DB	00H
	DB	00H
	DB	00H
	DB	00H
	DB	00H
	DB	00H
	DB	00H
	DB	00H
	DB	00H
	DB	00H
	DB	00H
	DB	00H
	DB	00H
	DB	00H
	DB	00H
	DB	00H
	DB	00H
	DB	00H
	DB	00H
	DB	00H
	DB	00H
	DB	00H
	DB	00H
	DB	00H
	DB	00H
	DB	00H
	DB	00H
	DB	00H
	DB	00H
	DB	00H
	DB	00H
	DB	00H
	DB	00H
	DB	00H
	DB	00H
	DB	00H
	DB	00H
	DB	00H
	DB	00H
	DB	00H
	DB	00H
	DB	00H
	DB	00H
	DB	00H
	DB	00H
	DB	00H
	DB	00H
	DB	00H
	DB	00H
	DB	00H
	DB	00H
	DB	00H
	DB	00H
	DB	00H
	DB	00H
	DB	00H
	DB	00H
	DB	00H
	DB	00H
	DB	00H
	DB	00H
	DB	00H
	DB	00H
	DB	00H
	DB	00H
	DB	00H
	DB	00H
	DB	00H
	DB	00H
	DB	00H
	DB	00H
	DB	00H
	DB	00H
	DB	00H
	DB	00H
	DB	00H
	DB	00H
	DB	00H
	DB	00H
	DB	00H
	DB	00H
	DB	00H
	DB	00H
	DB	00H
	DB	00H
	DB	00H
	DB	00H
	DB	00H
	DB	00H
	DB	00H
	DB	00H
	DB	00H
	DB	00H
	DB	00H
	DB	00H
	DB	00H
	DB	00H
	DB	00H
	DB	00H
	DB	00H
	DB	00H
	DB	00H
	DB	00H
	DB	00H
	DB	00H
	DB	00H
	DB	00H
	DB	00H
	DB	00H
	DB	00H
	DB	00H
	DB	00H
	DB	00H
	DB	00H
	DB	00H
	DB	00H
	DB	00H
	DB	00H
	DB	00H
	DB	00H
	DB	00H
	DB	00H
	DB	00H
	DB	00H
	DB	00H
	DB	00H
	DB	00H
	DB	00H
	DB	00H
	DB	00H
	DB	00H
	DB	00H
	DB	00H
	DB	00H
	DB	00H
	DB	00H
	DB	00H
	DB	00H
	DB	00H
	DB	00H
	DB	00H
	DB	00H
	DB	00H
	DB	00H
	DB	00H
	DB	00H
	DB	00H
	DB	00H
	DB	00H
	DB	00H
	DB	00H
	DB	00H
	DB	00H
	DB	00H
	DB	00H
	DB	00H
	DB	00H
	DB	00H
	DB	00H
	DB	00H
	DB	00H
	DB	00H
	DB	00H
	DB	00H
	DB	00H
	DB	00H
	DB	00H
	DB	00H
	DB	00H
	DB	00H
	DB	00H
	DB	00H
	DB	00H
	DB	00H
	DB	00H
	DB	00H
	DB	00H
	DB	00H
	DB	00H
	DB	00H
	DB	00H
	DB	00H
	DB	00H
	DB	00H
	DB	00H
	DB	00H
	DB	00H
	DB	00H
	DB	00H
	DB	00H
	DB	00H
	DB	00H
	DB	00H
	DB	00H
	DB	00H
	DB	00H
	DB	00H
	DB	00H
	DB	00H
	DB	00H
	DB	00H
	DB	00H
	DB	00H
	DB	00H
	DB	00H
	DB	00H
	DB	00H
	DB	00H
	DB	00H
	DB	00H
	DB	00H
	DB	00H
	DB	00H
	DB	00H
	DB	00H
	DB	00H
	DB	00H
	DB	00H
	DB	00H
	DB	00H
	DB	00H
	DB	00H
	DB	00H
	DB	00H
	DB	00H
	DB	00H
	DB	00H
	DB	00H
	DB	00H
	DB	00H
	DB	00H
	DB	00H
	DB	00H
	DB	00H
	DB	00H
	DB	00H
	DB	00H
	DB	00H
	DB	00H
	DB	00H
	DB	00H
	DB	00H
	DB	00H
	DB	00H
	DB	00H
	DB	00H
	DB	00H
	DB	00H
	DB	00H
	DB	00H
	DB	00H
	DB	00H
	DB	00H
	DB	00H
	DB	00H
	DB	00H
	DB	00H
	DB	00H
	DB	00H
	DB	00H
	DB	00H
	DB	00H
	DB	00H
	DB	00H
	DB	00H
	DB	00H
	DB	00H
	DB	00H
	DB	00H
	DB	00H
	DB	00H
	DB	00H
	DB	00H
	DB	00H
	DB	00H
	DB	00H
	DB	00H
	DB	00H
	DB	00H
	DB	00H
	DB	00H
	DB	00H
	DB	00H
	DB	00H
	DB	00H
	DB	00H
	DB	00H
	DB	00H
	DB	00H
	DB	00H
	DB	00H
	DB	00H
	DB	00H
	DB	00H
	DB	00H
	DB	00H
	DB	00H
	DB	00H
	DB	00H
	DB	00H
	DB	00H
	DB	00H
	DB	00H
	DB	00H
	DB	00H
	DB	00H
	DB	00H
	DB	00H
	DB	00H
	DB	00H
	DB	00H
	DB	00H
	DB	00H
	DB	00H
	DB	00H
	DB	00H
	DB	00H
	DB	00H
	DB	00H
	DB	00H
	DB	00H
	DB	00H
	DB	00H
	DB	00H
	DB	00H
	DB	00H
	DB	00H
	DB	00H
	DB	00H
	DB	00H
	DB	00H
	DB	00H
	DB	00H
	DB	00H
	DB	00H
	DB	00H
	DB	00H
	DB	00H
	DB	00H
	DB	00H
	DB	00H
	DB	00H
	DB	00H
	DB	00H
	DB	00H
	DB	00H
	DB	00H
	DB	00H
	DB	00H
	DB	00H
	DB	00H
	DB	00H
	DB	00H
	DB	00H
	DB	00H
	DB	00H
	DB	00H
	DB	00H
	DB	00H
	DB	00H
	DB	00H
	DB	00H
	DB	00H
	DB	00H
	DB	00H
	DB	00H
	DB	00H
	DB	00H
	DB	00H
	DB	00H
	DB	00H
	DB	00H
	DB	00H
	DB	00H
	DB	00H
	DB	00H
	DB	00H
	DB	00H
	DB	00H
	DB	00H
	DB	00H
	DB	00H
	DB	00H
	DB	00H
	DB	00H
	DB	00H
	DB	00H
	DB	00H
	DB	00H
	DB	00H
	DB	00H
	DB	00H
	DB	00H
	DB	00H
	DB	00H
	DB	00H
	DB	00H
	DB	00H
	DB	00H
	DB	00H
	DB	00H
	DB	00H
	DB	00H
	DB	00H
	DB	00H
	DB	00H
	DB	00H
	DB	00H
	DB	00H
	DB	00H
	DB	00H
	DB	00H
	DB	00H
	DB	00H
	DB	00H
	DB	00H
	DB	00H
	DB	00H
	DB	00H
	DB	00H
	DB	00H
	DB	00H
	DB	00H
	DB	00H
	DB	00H
	DB	00H
	DB	00H
	DB	00H
	DB	00H
	DB	00H
	DB	00H
	DB	00H
	DB	00H
	DB	00H
	DB	00H
	DB	00H
	DB	00H
	DB	00H
	DB	00H
	DB	00H
	DB	00H
	DB	00H
	DB	00H
	DB	00H
	DB	00H
	DB	00H
	DB	00H
	DB	00H
	DB	00H
	DB	00H
	DB	00H
	DB	00H
	DB	00H
	DB	00H
	DB	00H
	DB	00H
	DB	00H
	DB	00H
	DB	00H
	DB	00H
	DB	00H
	DB	00H
	DB	00H
	DB	00H
	DB	00H
	DB	00H
	DB	00H
	DB	00H
	DB	00H
	DB	00H
	DB	00H
	DB	00H
	DB	00H
	DB	00H
	DB	00H
	DB	00H
	DB	00H
	DB	00H
	DB	00H
	DB	00H
	DB	00H
	DB	00H
	DB	00H
	DB	00H
	DB	00H
	DB	00H
	DB	00H
	DB	00H
	DB	00H
	DB	00H
	DB	00H
	DB	00H
	DB	00H
	DB	00H
	DB	00H
	DB	00H
	DB	00H
	DB	00H
	DB	00H
	DB	00H
	DB	00H
	DB	00H
	DB	00H
	DB	00H
	DB	00H
	DB	00H
	DB	00H
	DB	00H
	DB	00H
	DB	00H
	DB	00H
	DB	00H
	DB	00H
	DB	00H
	DB	00H
	DB	00H
	DB	00H
	DB	00H
	DB	00H
	DB	00H
	DB	00H
	DB	00H
	DB	00H
	DB	00H
	DB	00H
	DB	00H
	DB	00H
	DB	00H
	DB	00H
	DB	00H
	DB	00H
	DB	00H
	DB	00H
	DB	00H
	DB	00H
	DB	00H
	DB	00H
	DB	00H
	DB	00H
	DB	00H
	DB	00H
	DB	00H
	DB	00H
	DB	00H
	DB	00H
	DB	00H
	DB	00H
	DB	00H
	DB	00H
	DB	00H
	DB	00H
	DB	00H
	DB	00H
	DB	00H
	DB	00H
	DB	00H
	DB	00H
	DB	00H
	DB	00H
	DB	00H
	DB	00H
	DB	00H
	DB	00H
	DB	00H
	DB	00H
	DB	00H
	DB	00H
	DB	00H
	DB	00H
	DB	00H
	DB	00H
	DB	00H
	DB	00H
	DB	00H
	DB	00H
	DB	00H
	DB	00H
	DB	00H
	DB	00H
	DB	00H
	DB	00H
	DB	00H
	DB	00H
	DB	00H
	DB	00H
	DB	00H
	DB	00H
	DB	00H
	DB	00H
	DB	00H
	DB	00H
	DB	00H
	DB	00H
	DB	00H
	DB	00H
	DB	00H
	DB	00H
	DB	00H
	DB	00H
	DB	00H
	DB	00H
	DB	00H
	DB	00H
	DB	00H
	DB	00H
	DB	00H
	DB	00H
	DB	00H
	DB	00H
	DB	00H
	DB	00H
	DB	00H
	DB	00H
	DB	00H
	DB	00H
	DB	00H
	DB	00H
	DB	00H
	DB	00H
	DB	00H
	DB	00H
	DB	00H
	DB	00H
	DB	00H
	DB	00H
	DB	00H
	DB	00H
	DB	00H
	DB	00H
	DB	00H
	DB	00H
	DB	00H
	DB	00H
	DB	00H
	DB	00H
	DB	00H
	DB	00H
	DB	00H
	DB	00H
	DB	00H
	DB	00H
	DB	00H
	DB	00H
	DB	00H
	DB	00H
	DB	00H
	DB	00H
	DB	00H
	DB	00H
	DB	00H
	DB	00H
	DB	00H
	DB	00H
	DB	00H
	DB	00H
	DB	00H
	DB	00H
	DB	00H
	DB	00H
	DB	00H
	DB	00H
	DB	00H
	DB	00H
	DB	00H
	DB	00H
	DB	00H
	DB	00H
	DB	00H
	DB	00H
	DB	00H
	DB	00H
	DB	00H
	DB	00H
	DB	00H
	DB	00H
	DB	00H
	DB	00H
	DB	00H
	DB	00H
	DB	00H
	DB	00H
	DB	00H
	DB	00H
	DB	00H
	DB	00H
	DB	00H
	DB	00H
	DB	00H
	DB	00H
	DB	00H
	DB	00H
	DB	00H
	DB	00H
	DB	00H
	DB	00H
	DB	00H
	DB	00H
	DB	00H
	DB	00H
	DB	00H
	DB	00H
	DB	00H
	DB	00H
	DB	00H
	DB	00H
	DB	00H
	DB	00H
	DB	00H
	DB	00H
	DB	00H
	DB	00H
	DB	00H
	DB	00H
	DB	00H
	DB	00H
	DB	00H
	DB	00H
	DB	00H
	DB	00H
	DB	00H
	DB	00H
	DB	00H
	DB	00H
	DB	00H
	DB	00H
	DB	00H
	DB	00H
	DB	00H
	DB	00H
	DB	00H
	DB	00H
	DB	00H
	DB	00H
	DB	00H
	DB	00H
	DB	00H
	DB	00H
	DB	00H
	DB	00H
	DB	00H
	DB	00H
	DB	00H
	DB	00H
	DB	00H
	DB	00H
	DB	00H
	DB	00H
	DB	00H
	DB	00H
	DB	00H
	DB	00H
	DB	00H
	DB	00H
	DB	00H
	DB	00H
	DB	00H
	DB	00H
	DB	00H
	DB	00H
	DB	00H
	DB	00H
	DB	00H
	DB	00H
	DB	00H
	DB	00H
	DB	00H
	DB	00H
	DB	00H
	DB	00H
	DB	00H
	DB	00H
	DB	00H
	DB	00H
	DB	00H
	DB	00H
	DB	00H
	DB	00H
	DB	00H
	DB	00H
	DB	00H
	DB	00H
	DB	00H
	DB	00H
	DB	00H
	DB	00H
	DB	00H
	DB	00H
	DB	00H
	DB	00H
	DB	00H
	DB	00H
	DB	00H
	DB	00H
	DB	00H
	DB	00H
	DB	00H
	DB	00H
	DB	00H
	DB	00H
	DB	00H
	DB	00H
	DB	00H
	DB	00H
	DB	00H
	DB	00H
	DB	00H
	DB	00H
	DB	00H
	DB	00H
	DB	00H
	DB	00H
	DB	00H
	DB	00H
	DB	00H
	DB	00H
	DB	00H
	DB	00H
	DB	00H
	DB	00H
	DB	00H
	DB	00H
	DB	00H
	DB	00H
	DB	00H
	DB	00H
	DB	00H
	DB	00H
	DB	00H
	DB	00H
	DB	00H
	DB	00H
	DB	00H
	DB	00H
	DB	00H
	DB	00H
	DB	00H
	DB	00H
	DB	00H
	DB	00H
	DB	00H
	DB	00H
	DB	00H
	DB	00H
	DB	00H
	DB	00H
	DB	00H
	DB	00H
	DB	00H
	DB	00H
	DB	00H
	DB	00H
	DB	00H
	DB	00H
	DB	00H
	DB	00H
	DB	00H
	DB	00H
	DB	00H
	DB	00H
	DB	00H
	DB	00H
	DB	00H
	DB	00H
	DB	00H
	DB	00H
	DB	00H
	DB	00H
	DB	00H
	DB	00H
	DB	00H
	DB	00H
	DB	00H
	DB	00H
	DB	00H
	DB	00H
	DB	00H
	DB	00H
	DB	00H
	DB	00H
	DB	00H
	DB	00H
	DB	00H
	DB	00H
	DB	00H
	DB	00H
	DB	00H
	DB	00H
	DB	00H
	DB	00H
	DB	00H
	DB	00H
	DB	00H
	DB	00H
	DB	00H
	DB	00H
	DB	00H
	DB	00H
	DB	00H
	DB	00H
	DB	00H
	DB	00H
	DB	00H
	DB	00H
	DB	00H
	DB	00H
	DB	00H
	DB	00H
	DB	00H
	DB	00H
	DB	00H
	DB	00H
	DB	00H
	DB	00H
	DB	00H
	DB	00H
	DB	00H
	DB	00H
	DB	00H
	DB	00H
	DB	00H
	DB	00H
	DB	00H
	DB	00H
	DB	00H
	DB	00H
	DB	00H
	DB	00H
	DB	00H
	DB	00H
	DB	00H
	DB	00H
	DB	00H
	DB	00H
	DB	00H
	DB	00H
	DB	00H
	DB	00H
	DB	00H
	DB	00H
	DB	00H
	DB	00H
	DB	00H
	DB	00H
	DB	00H
	DB	00H
	DB	00H
	DB	00H
	DB	00H
	DB	00H
	DB	00H
	DB	00H
	DB	00H
	DB	00H
	DB	00H
	DB	00H
	DB	00H
	DB	00H
	DB	00H
	DB	00H
	DB	00H
	DB	00H
	DB	00H
	DB	00H
	DB	00H
	DB	00H
	DB	00H
	DB	00H
	DB	00H
	DB	00H
