; Listing generated by Microsoft (R) Optimizing Compiler Version 19.41.34123.0 

include listing.inc

INCLUDELIB OLDNAMES

PUBLIC	??_C@_0BD@FGIAGBIG@bad?5variant?5access@	; `string'
PUBLIC	??_C@_0DB@JCBPAAGK@Internal?5error?5loading?5IANA?5dat@ ; `string'
PUBLIC	??_7bad_variant_access@std@@6B@			; std::bad_variant_access::`vftable'
PUBLIC	??_R4bad_variant_access@std@@6B@		; std::bad_variant_access::`RTTI Complete Object Locator'
PUBLIC	?__noop_coroutine_frame_instance@@3U__noop_coroutine_frame_standard@@A ; __noop_coroutine_frame_instance
PUBLIC	??_R1A@?0A@EA@bad_variant_access@std@@8		; std::bad_variant_access::`RTTI Base Class Descriptor at (0,-1,0,64)'
PUBLIC	??_R2bad_variant_access@std@@8			; std::bad_variant_access::`RTTI Base Class Array'
PUBLIC	?_Max_P@?$_General_precision_tables_2@M@std@@2HB ; std::_General_precision_tables_2<float>::_Max_P
PUBLIC	?copy@ranges@std@@3V_Copy_fn@12@B		; std::ranges::copy
PUBLIC	?single@views@ranges@std@@3U_Single_fn@123@B	; std::ranges::views::single
PUBLIC	?begin@_Cpos@ranges@std@@3V_Cpo@_Begin@23@B	; std::ranges::_Cpos::begin
PUBLIC	?_Uend@_Cpos@ranges@std@@3V_Cpo@_Unchecked_end@23@B ; std::ranges::_Cpos::_Uend
PUBLIC	?fill_n@ranges@std@@3V_Fill_n_fn@12@B		; std::ranges::fill_n
PUBLIC	?greater@strong_ordering@std@@2U12@B		; std::strong_ordering::greater
PUBLIC	?preferred_separator@path@filesystem@std@@2_WB	; std::filesystem::path::preferred_separator
PUBLIC	?_Is_slash@filesystem@std@@3U_Is_slash_oper@12@B ; std::filesystem::_Is_slash
PUBLIC	?_Gps_epoch_adjust@gps_clock@chrono@std@@2V?$duration@_JU?$ratio@$00$00@std@@@23@B ; std::chrono::gps_clock::_Gps_epoch_adjust
PUBLIC	?_Tai_epoch_adjust@tai_clock@chrono@std@@2V?$duration@_JU?$ratio@$00$00@std@@@23@B ; std::chrono::tai_clock::_Tai_epoch_adjust
PUBLIC	?_Global_tzdb_list@chrono@std@@3U?$atomic@PEAVtzdb_list@chrono@std@@@2@A ; std::chrono::_Global_tzdb_list
PUBLIC	?equal@strong_ordering@std@@2U12@B		; std::strong_ordering::equal
PUBLIC	??$__DIGIT_TABLE@D@std@@3QBDB			; std::__DIGIT_TABLE<char>
PUBLIC	?less@strong_ordering@std@@2U12@B		; std::strong_ordering::less
PUBLIC	?_Max_P@?$_General_precision_tables_2@N@std@@2HB ; std::_General_precision_tables_2<double>::_Max_P
PUBLIC	?_Grapheme_Break_property_data@std@@3U?$_Unicode_property_data@W4_Grapheme_Break_property_values@std@@$0FFL@$0A@@1@B ; std::_Grapheme_Break_property_data
PUBLIC	?_Min_allocation@monotonic_buffer_resource@pmr@std@@0_KB ; std::pmr::monotonic_buffer_resource::_Min_allocation
PUBLIC	?_Default_next_capacity@_Pool@unsynchronized_pool_resource@pmr@std@@2_KB ; std::pmr::unsynchronized_pool_resource::_Pool::_Default_next_capacity
PUBLIC	?_Width_estimate_intervals_v2@std@@3QB_UB	; std::_Width_estimate_intervals_v2
PUBLIC	?_Grapheme_Extend_property_data@std@@3U?$_Unicode_property_data@W4_Grapheme_Extend_property_values@std@@$0BGL@$00@1@B ; std::_Grapheme_Extend_property_data
PUBLIC	?__printable_property_data@std@@3U?$_Unicode_property_data@W4__printable_property_values@std@@$0CMH@$00@1@B ; std::__printable_property_data
PUBLIC	?_Extended_Pictographic_property_data@std@@3U?$_Unicode_property_data@W4_Extended_Pictographic_property_values@std@@$0EO@$00@1@B ; std::_Extended_Pictographic_property_data
PUBLIC	??_R3bad_variant_access@std@@8			; std::bad_variant_access::`RTTI Class Hierarchy Descriptor'
PUBLIC	??_R0?AVbad_variant_access@std@@@8		; std::bad_variant_access `RTTI Type Descriptor'
EXTRN	__imp_??1codecvt_base@std@@UEAA@XZ:PROC
EXTRN	__imp_?good@ios_base@std@@QEBA_NXZ:PROC
EXTRN	__imp_?_Ipfx@?$basic_istream@_WU?$char_traits@_W@std@@@std@@QEAA_N_N@Z:PROC
EXTRN	__imp_?_Ipfx@?$basic_istream@DU?$char_traits@D@std@@@std@@QEAA_N_N@Z:PROC
EXTRN	__imp_?flush@?$basic_ostream@_WU?$char_traits@_W@std@@@std@@QEAAAEAV12@XZ:PROC
EXTRN	__imp_?_Osfx@?$basic_ostream@_WU?$char_traits@_W@std@@@std@@QEAAXXZ:PROC
EXTRN	__imp_?flush@?$basic_ostream@DU?$char_traits@D@std@@@std@@QEAAAEAV12@XZ:PROC
EXTRN	__imp_?_Osfx@?$basic_ostream@DU?$char_traits@D@std@@@std@@QEAAXXZ:PROC
EXTRN	__imp_?rdbuf@?$basic_ios@_WU?$char_traits@_W@std@@@std@@QEBAPEAV?$basic_streambuf@_WU?$char_traits@_W@std@@@2@XZ:PROC
EXTRN	__imp_?tie@?$basic_ios@_WU?$char_traits@_W@std@@@std@@QEBAPEAV?$basic_ostream@_WU?$char_traits@_W@std@@@2@XZ:PROC
EXTRN	__imp_?rdbuf@?$basic_ios@DU?$char_traits@D@std@@@std@@QEBAPEAV?$basic_streambuf@DU?$char_traits@D@std@@@2@XZ:PROC
EXTRN	__imp_?tie@?$basic_ios@DU?$char_traits@D@std@@@std@@QEBAPEAV?$basic_ostream@DU?$char_traits@D@std@@@2@XZ:PROC
EXTRN	__imp___std_tzdb_get_current_zone:PROC
EXTRN	__imp___std_tzdb_get_time_zones:PROC
EXTRN	__imp_?__ExceptionPtrCompare@@YA_NPEBX0@Z:PROC
EXTRN	__imp___std_tzdb_delete_current_zone:PROC
EXTRN	__imp_?__ExceptionPtrToBool@@YA_NPEBX@Z:PROC
EXTRN	__imp_?__ExceptionPtrSwap@@YAXPEAX0@Z:PROC
EXTRN	__imp_?_XGetLastError@std@@YAXXZ:PROC
EXTRN	__imp_?uncaught_exceptions@std@@YAHXZ:PROC
EXTRN	__imp_?_Xruntime_error@std@@YAXPEBD@Z:PROC
EXTRN	__imp___std_atomic_wait_direct:PROC
EXTRN	__imp___std_atomic_notify_all_direct:PROC
EXTRN	__imp_abort:PROC
EXTRN	__imp___std_tzdb_delete_time_zones:PROC
;	COMDAT ?_Global_tzdb_list@chrono@std@@3U?$atomic@PEAVtzdb_list@chrono@std@@@2@A
_BSS	SEGMENT
?_Global_tzdb_list@chrono@std@@3U?$atomic@PEAVtzdb_list@chrono@std@@@2@A DQ 01H DUP (?) ; std::chrono::_Global_tzdb_list
_BSS	ENDS
;	COMDAT ??_R0?AVbad_variant_access@std@@@8
data$r	SEGMENT
??_R0?AVbad_variant_access@std@@@8 DQ FLAT:??_7type_info@@6B@ ; std::bad_variant_access `RTTI Type Descriptor'
	DQ	0000000000000000H
	DB	'.?AVbad_variant_access@std@@', 00H
data$r	ENDS
;	COMDAT ??_R3bad_variant_access@std@@8
rdata$r	SEGMENT
??_R3bad_variant_access@std@@8 DD 00H			; std::bad_variant_access::`RTTI Class Hierarchy Descriptor'
	DD	00H
	DD	02H
	DD	imagerel ??_R2bad_variant_access@std@@8
rdata$r	ENDS
;	COMDAT ?_Extended_Pictographic_property_data@std@@3U?$_Unicode_property_data@W4_Extended_Pictographic_property_values@std@@$0EO@$00@1@B
CONST	SEGMENT
?_Extended_Pictographic_property_data@std@@3U?$_Unicode_property_data@W4_Extended_Pictographic_property_values@std@@$0EO@$00@1@B DD 0a9H ; std::_Extended_Pictographic_property_data
	DD	0aeH
	DD	0203cH
	DD	02049H
	DD	02122H
	DD	02139H
	DD	02194H
	DD	021a9H
	DD	0231aH
	DD	02328H
	DD	02388H
	DD	023cfH
	DD	023e9H
	DD	023f8H
	DD	024c2H
	DD	025aaH
	DD	025b6H
	DD	025c0H
	DD	025fbH
	DD	02600H
	DD	02607H
	DD	02614H
	DD	02690H
	DD	02708H
	DD	02714H
	DD	02716H
	DD	0271dH
	DD	02721H
	DD	02728H
	DD	02733H
	DD	02744H
	DD	02747H
	DD	0274cH
	DD	0274eH
	DD	02753H
	DD	02757H
	DD	02763H
	DD	02795H
	DD	027a1H
	DD	027b0H
	DD	027bfH
	DD	02934H
	DD	02b05H
	DD	02b1bH
	DD	02b50H
	DD	02b55H
	DD	03030H
	DD	0303dH
	DD	03297H
	DD	03299H
	DD	01f000H
	DD	01f10dH
	DD	01f12fH
	DD	01f16cH
	DD	01f17eH
	DD	01f18eH
	DD	01f191H
	DD	01f1adH
	DD	01f201H
	DD	01f21aH
	DD	01f22fH
	DD	01f232H
	DD	01f23cH
	DD	01f249H
	DD	01f400H
	DD	01f546H
	DD	01f680H
	DD	01f774H
	DD	01f7d5H
	DD	01f80cH
	DD	01f848H
	DD	01f85aH
	DD	01f888H
	DD	01f8aeH
	DD	01f90cH
	DD	01f93cH
	DD	01f947H
	DD	01fc00H
	DW	01H
	DW	01H
	DW	01H
	DW	01H
	DW	01H
	DW	01H
	DW	06H
	DW	02H
	DW	02H
	DW	01H
	DW	01H
	DW	01H
	DW	0bH
	DW	03H
	DW	01H
	DW	02H
	DW	01H
	DW	01H
	DW	04H
	DW	06H
	DW	0cH
	DW	072H
	DW	076H
	DW	0bH
	DW	01H
	DW	01H
	DW	01H
	DW	01H
	DW	01H
	DW	02H
	DW	01H
	DW	01H
	DW	01H
	DW	01H
	DW	03H
	DW	01H
	DW	05H
	DW	03H
	DW	01H
	DW	01H
	DW	01H
	DW	02H
	DW	03H
	DW	02H
	DW	01H
	DW	01H
	DW	01H
	DW	01H
	DW	01H
	DW	01H
	DW	0100H
	DW	03H
	DW	01H
	DW	06H
	DW	02H
	DW	01H
	DW	0aH
	DW	039H
	DW	0fH
	DW	01H
	DW	01H
	DW	09H
	DW	04H
	DW	01b2H
	DW	013eH
	DW	010aH
	DW	080H
	DW	0cH
	DW	02bH
	DW	04H
	DW	08H
	DW	06H
	DW	08H
	DW	052H
	DW	02fH
	DW	0aH
	DW	01b9H
	DW	03feH
CONST	ENDS
;	COMDAT ?__printable_property_data@std@@3U?$_Unicode_property_data@W4__printable_property_values@std@@$0CMH@$00@1@B
CONST	SEGMENT
?__printable_property_data@std@@3U?$_Unicode_property_data@W4__printable_property_values@std@@$0CMH@$00@1@B DD 020H ; std::__printable_property_data
	DD	0a1H
	DD	0aeH
	DD	037aH
	DD	0384H
	DD	038cH
	DD	038eH
	DD	03a3H
	DD	0531H
	DD	0559H
	DD	058dH
	DD	0591H
	DD	05d0H
	DD	05efH
	DD	0606H
	DD	061dH
	DD	06deH
	DD	0710H
	DD	074dH
	DD	07c0H
	DD	07fdH
	DD	0830H
	DD	0840H
	DD	085eH
	DD	0860H
	DD	0870H
	DD	0898H
	DD	08e3H
	DD	0985H
	DD	098fH
	DD	0993H
	DD	09aaH
	DD	09b2H
	DD	09b6H
	DD	09bcH
	DD	09c7H
	DD	09cbH
	DD	09d7H
	DD	09dcH
	DD	09dfH
	DD	09e6H
	DD	0a01H
	DD	0a05H
	DD	0a0fH
	DD	0a13H
	DD	0a2aH
	DD	0a32H
	DD	0a35H
	DD	0a38H
	DD	0a3cH
	DD	0a3eH
	DD	0a47H
	DD	0a4bH
	DD	0a51H
	DD	0a59H
	DD	0a5eH
	DD	0a66H
	DD	0a81H
	DD	0a85H
	DD	0a8fH
	DD	0a93H
	DD	0aaaH
	DD	0ab2H
	DD	0ab5H
	DD	0abcH
	DD	0ac7H
	DD	0acbH
	DD	0ad0H
	DD	0ae0H
	DD	0ae6H
	DD	0af9H
	DD	0b01H
	DD	0b05H
	DD	0b0fH
	DD	0b13H
	DD	0b2aH
	DD	0b32H
	DD	0b35H
	DD	0b3cH
	DD	0b47H
	DD	0b4bH
	DD	0b55H
	DD	0b5cH
	DD	0b5fH
	DD	0b66H
	DD	0b82H
	DD	0b85H
	DD	0b8eH
	DD	0b92H
	DD	0b99H
	DD	0b9cH
	DD	0b9eH
	DD	0ba3H
	DD	0ba8H
	DD	0baeH
	DD	0bbeH
	DD	0bc6H
	DD	0bcaH
	DD	0bd0H
	DD	0bd7H
	DD	0be6H
	DD	0c00H
	DD	0c0eH
	DD	0c12H
	DD	0c2aH
	DD	0c3cH
	DD	0c46H
	DD	0c4aH
	DD	0c55H
	DD	0c58H
	DD	0c5dH
	DD	0c60H
	DD	0c66H
	DD	0c77H
	DD	0c8eH
	DD	0c92H
	DD	0caaH
	DD	0cb5H
	DD	0cbcH
	DD	0cc6H
	DD	0ccaH
	DD	0cd5H
	DD	0cddH
	DD	0ce0H
	DD	0ce6H
	DD	0cf1H
	DD	0d00H
	DD	0d0eH
	DD	0d12H
	DD	0d46H
	DD	0d4aH
	DD	0d54H
	DD	0d66H
	DD	0d81H
	DD	0d85H
	DD	0d9aH
	DD	0db3H
	DD	0dbdH
	DD	0dc0H
	DD	0dcaH
	DD	0dcfH
	DD	0dd6H
	DD	0dd8H
	DD	0de6H
	DD	0df2H
	DD	0e01H
	DD	0e3fH
	DD	0e81H
	DD	0e84H
	DD	0e86H
	DD	0e8cH
	DD	0ea5H
	DD	0ea7H
	DD	0ec0H
	DD	0ec6H
	DD	0ec8H
	DD	0ed0H
	DD	0edcH
	DD	0f00H
	DD	0f49H
	DD	0f71H
	DD	0f99H
	DD	0fbeH
	DD	0fceH
	DD	01000H
	DD	010c7H
	DD	010cdH
	DD	010d0H
	DD	0124aH
	DD	01250H
	DD	01258H
	DD	0125aH
	DD	01260H
	DD	0128aH
	DD	01290H
	DD	012b2H
	DD	012b8H
	DD	012c0H
	DD	012c2H
	DD	012c8H
	DD	012d8H
	DD	01312H
	DD	01318H
	DD	0135dH
	DD	01380H
	DD	013a0H
	DD	013f8H
	DD	01400H
	DD	01681H
	DD	016a0H
	DD	01700H
	DD	0171fH
	DD	01740H
	DD	01760H
	DD	0176eH
	DD	01772H
	DD	01780H
	DD	017e0H
	DD	017f0H
	DD	01800H
	DD	0180fH
	DD	01820H
	DD	01880H
	DD	018b0H
	DD	01900H
	DD	01920H
	DD	01930H
	DD	01940H
	DD	01944H
	DD	01970H
	DD	01980H
	DD	019b0H
	DD	019d0H
	DD	019deH
	DD	01a1eH
	DD	01a60H
	DD	01a7fH
	DD	01a90H
	DD	01aa0H
	DD	01ab0H
	DD	01b00H
	DD	01b50H
	DD	01b80H
	DD	01bfcH
	DD	01c3bH
	DD	01c4dH
	DD	01c90H
	DD	01cbdH
	DD	01cd0H
	DD	01d00H
	DD	01f18H
	DD	01f20H
	DD	01f48H
	DD	01f50H
	DD	01f59H
	DD	01f5bH
	DD	01f5dH
	DD	01f5fH
	DD	01f80H
	DD	01fb6H
	DD	01fc6H
	DD	01fd6H
	DD	01fddH
	DD	01ff2H
	DD	01ff6H
	DD	02010H
	DD	02030H
	DD	02070H
	DD	02074H
	DD	02090H
	DD	020a0H
	DD	020d0H
	DD	02100H
	DD	02190H
	DD	02440H
	DD	02460H
	DD	02b76H
	DD	02b97H
	DD	02cf9H
	DD	02d27H
	DD	02d2dH
	DD	02d30H
	DD	02d6fH
	DD	02d7fH
	DD	02da0H
	DD	02da8H
	DD	02db0H
	DD	02db8H
	DD	02dc0H
	DD	02dc8H
	DD	02dd0H
	DD	02dd8H
	DD	02de0H
	DD	02e80H
	DD	02e9bH
	DD	02f00H
	DD	02ff0H
	DD	03001H
	DD	03041H
	DD	03099H
	DD	03105H
	DD	03131H
	DD	03190H
	DD	031f0H
	DD	03220H
	DD	0a490H
	DD	0a4d0H
	DD	0a640H
	DD	0a700H
	DD	0a7d0H
	DD	0a7d3H
	DD	0a7d5H
	DD	0a7f2H
	DD	0a830H
	DD	0a840H
	DD	0a880H
	DD	0a8ceH
	DD	0a8e0H
	DD	0a95fH
	DD	0a980H
	DD	0a9cfH
	DD	0a9deH
	DD	0aa00H
	DD	0aa40H
	DD	0aa50H
	DD	0aa5cH
	DD	0aadbH
	DD	0ab01H
	DD	0ab09H
	DD	0ab11H
	DD	0ab20H
	DD	0ab28H
	DD	0ab30H
	DD	0ab70H
	DD	0abf0H
	DD	0ac00H
	DD	0d7b0H
	DD	0d7cbH
	DD	0f900H
	DD	0fa70H
	DD	0fb00H
	DD	0fb13H
	DD	0fb1dH
	DD	0fb38H
	DD	0fb3eH
	DD	0fb40H
	DD	0fb43H
	DD	0fb46H
	DD	0fbd3H
	DD	0fd92H
	DD	0fdcfH
	DD	0fdf0H
	DD	0fe20H
	DD	0fe54H
	DD	0fe68H
	DD	0fe70H
	DD	0fe76H
	DD	0ff01H
	DD	0ffc2H
	DD	0ffcaH
	DD	0ffd2H
	DD	0ffdaH
	DD	0ffe0H
	DD	0ffe8H
	DD	0fffcH
	DD	010000H
	DD	01000dH
	DD	010028H
	DD	01003cH
	DD	01003fH
	DD	010050H
	DD	010080H
	DD	010100H
	DD	010107H
	DD	010137H
	DD	010190H
	DD	0101a0H
	DD	0101d0H
	DD	010280H
	DD	0102a0H
	DD	0102e0H
	DD	010300H
	DD	01032dH
	DD	010350H
	DD	010380H
	DD	01039fH
	DD	0103c8H
	DD	010400H
	DD	0104a0H
	DD	0104b0H
	DD	0104d8H
	DD	010500H
	DD	010530H
	DD	01056fH
	DD	01057cH
	DD	01058cH
	DD	010594H
	DD	010597H
	DD	0105a3H
	DD	0105b3H
	DD	0105bbH
	DD	010600H
	DD	010740H
	DD	010760H
	DD	010780H
	DD	010787H
	DD	0107b2H
	DD	010800H
	DD	010808H
	DD	01080aH
	DD	010837H
	DD	01083cH
	DD	01083fH
	DD	010857H
	DD	0108a7H
	DD	0108e0H
	DD	0108f4H
	DD	0108fbH
	DD	01091fH
	DD	01093fH
	DD	010980H
	DD	0109bcH
	DD	0109d2H
	DD	010a05H
	DD	010a0cH
	DD	010a15H
	DD	010a19H
	DD	010a38H
	DD	010a3fH
	DD	010a50H
	DD	010a60H
	DD	010ac0H
	DD	010aebH
	DD	010b00H
	DD	010b39H
	DD	010b58H
	DD	010b78H
	DD	010b99H
	DD	010ba9H
	DD	010c00H
	DD	010c80H
	DD	010cc0H
	DD	010cfaH
	DD	010d30H
	DD	010e60H
	DD	010e80H
	DD	010eabH
	DD	010eb0H
	DD	010efdH
	DD	010f30H
	DD	010f70H
	DD	010fb0H
	DD	010fe0H
	DD	011000H
	DD	011052H
	DD	01107fH
	DD	0110beH
	DD	0110d0H
	DD	0110f0H
	DD	011100H
	DD	011136H
	DD	011150H
	DD	011180H
	DD	0111e1H
	DD	011200H
	DD	011213H
	DD	011280H
	DD	011288H
	DD	01128aH
	DD	01128fH
	DD	01129fH
	DD	0112b0H
	DD	0112f0H
	DD	011300H
	DD	011305H
	DD	01130fH
	DD	011313H
	DD	01132aH
	DD	011332H
	DD	011335H
	DD	01133bH
	DD	011347H
	DD	01134bH
	DD	011350H
	DD	011357H
	DD	01135dH
	DD	011366H
	DD	011370H
	DD	011400H
	DD	01145dH
	DD	011480H
	DD	0114d0H
	DD	011580H
	DD	0115b8H
	DD	011600H
	DD	011650H
	DD	011660H
	DD	011680H
	DD	0116c0H
	DD	011700H
	DD	01171dH
	DD	011730H
	DD	011800H
	DD	0118a0H
	DD	0118ffH
	DD	011909H
	DD	01190cH
	DD	011915H
	DD	011918H
	DD	011937H
	DD	01193bH
	DD	011950H
	DD	0119a0H
	DD	0119aaH
	DD	0119daH
	DD	011a00H
	DD	011a50H
	DD	011ab0H
	DD	011b00H
	DD	011c00H
	DD	011c0aH
	DD	011c38H
	DD	011c50H
	DD	011c70H
	DD	011c92H
	DD	011ca9H
	DD	011d00H
	DD	011d08H
	DD	011d0bH
	DD	011d3aH
	DD	011d3cH
	DD	011d3fH
	DD	011d50H
	DD	011d60H
	DD	011d67H
	DD	011d6aH
	DD	011d90H
	DD	011d93H
	DD	011da0H
	DD	011ee0H
	DD	011f00H
	DD	011f12H
	DD	011f3eH
	DD	011fb0H
	DD	011fc0H
	DD	011fffH
	DD	012400H
	DD	012470H
	DD	012480H
	DD	012f90H
	DD	013000H
	DD	013440H
	DD	014400H
	DD	016800H
	DD	016a40H
	DD	016a60H
	DD	016a6eH
	DD	016ac0H
	DD	016ad0H
	DD	016af0H
	DD	016b00H
	DD	016b50H
	DD	016b5bH
	DD	016b63H
	DD	016b7dH
	DD	016e40H
	DD	016f00H
	DD	016f4fH
	DD	016f8fH
	DD	016fe0H
	DD	016ff0H
	DD	017000H
	DD	018800H
	DD	018d00H
	DD	01aff0H
	DD	01aff5H
	DD	01affdH
	DD	01b000H
	DD	01b132H
	DD	01b150H
	DD	01b155H
	DD	01b164H
	DD	01b170H
	DD	01bc00H
	DD	01bc70H
	DD	01bc80H
	DD	01bc90H
	DD	01bc9cH
	DD	01cf00H
	DD	01cf30H
	DD	01cf50H
	DD	01d000H
	DD	01d100H
	DD	01d129H
	DD	01d17bH
	DD	01d200H
	DD	01d2c0H
	DD	01d2e0H
	DD	01d300H
	DD	01d360H
	DD	01d400H
	DD	01d456H
	DD	01d49eH
	DD	01d4a2H
	DD	01d4a5H
	DD	01d4a9H
	DD	01d4aeH
	DD	01d4bbH
	DD	01d4bdH
	DD	01d4c5H
	DD	01d507H
	DD	01d50dH
	DD	01d516H
	DD	01d51eH
	DD	01d53bH
	DD	01d540H
	DD	01d546H
	DD	01d54aH
	DD	01d552H
	DD	01d6a8H
	DD	01d7ceH
	DD	01da9bH
	DD	01daa1H
	DD	01df00H
	DD	01df25H
	DD	01e000H
	DD	01e008H
	DD	01e01bH
	DD	01e023H
	DD	01e026H
	DD	01e030H
	DD	01e08fH
	DD	01e100H
	DD	01e130H
	DD	01e140H
	DD	01e14eH
	DD	01e290H
	DD	01e2c0H
	DD	01e2ffH
	DD	01e4d0H
	DD	01e7e0H
	DD	01e7e8H
	DD	01e7edH
	DD	01e7f0H
	DD	01e800H
	DD	01e8c7H
	DD	01e900H
	DD	01e950H
	DD	01e95eH
	DD	01ec71H
	DD	01ed01H
	DD	01ee00H
	DD	01ee05H
	DD	01ee21H
	DD	01ee24H
	DD	01ee27H
	DD	01ee29H
	DD	01ee34H
	DD	01ee39H
	DD	01ee3bH
	DD	01ee42H
	DD	01ee47H
	DD	01ee49H
	DD	01ee4bH
	DD	01ee4dH
	DD	01ee51H
	DD	01ee54H
	DD	01ee57H
	DD	01ee59H
	DD	01ee5bH
	DD	01ee5dH
	DD	01ee5fH
	DD	01ee61H
	DD	01ee64H
	DD	01ee67H
	DD	01ee6cH
	DD	01ee74H
	DD	01ee79H
	DD	01ee7eH
	DD	01ee80H
	DD	01ee8bH
	DD	01eea1H
	DD	01eea5H
	DD	01eeabH
	DD	01eef0H
	DD	01f000H
	DD	01f030H
	DD	01f0a0H
	DD	01f0b1H
	DD	01f0c1H
	DD	01f0d1H
	DD	01f100H
	DD	01f1e6H
	DD	01f210H
	DD	01f240H
	DD	01f250H
	DD	01f260H
	DD	01f300H
	DD	01f6dcH
	DD	01f6f0H
	DD	01f700H
	DD	01f77bH
	DD	01f7e0H
	DD	01f7f0H
	DD	01f800H
	DD	01f810H
	DD	01f850H
	DD	01f860H
	DD	01f890H
	DD	01f8b0H
	DD	01f900H
	DD	01fa60H
	DD	01fa70H
	DD	01fa80H
	DD	01fa90H
	DD	01fabfH
	DD	01faceH
	DD	01fae0H
	DD	01faf0H
	DD	01fb00H
	DD	01fb94H
	DD	01fbf0H
	DD	020000H
	DD	02a700H
	DD	02b740H
	DD	02b820H
	DD	02ceb0H
	DD	02f800H
	DD	030000H
	DD	031350H
	DD	0e0100H
	DW	05fH
	DW	0cH
	DW	02caH
	DW	06H
	DW	07H
	DW	01H
	DW	014H
	DW	018dH
	DW	026H
	DW	032H
	DW	03H
	DW	037H
	DW	01bH
	DW	06H
	DW	016H
	DW	0c0H
	DW	030H
	DW	03bH
	DW	065H
	DW	03bH
	DW	031H
	DW	0fH
	DW	01cH
	DW	01H
	DW	0bH
	DW	01fH
	DW	04aH
	DW	0a1H
	DW	08H
	DW	02H
	DW	016H
	DW	07H
	DW	01H
	DW	04H
	DW	09H
	DW	02H
	DW	04H
	DW	01H
	DW	02H
	DW	05H
	DW	019H
	DW	03H
	DW	06H
	DW	02H
	DW	016H
	DW	07H
	DW	02H
	DW	02H
	DW	02H
	DW	01H
	DW	05H
	DW	02H
	DW	03H
	DW	01H
	DW	04H
	DW	01H
	DW	011H
	DW	03H
	DW	09H
	DW	03H
	DW	016H
	DW	07H
	DW	02H
	DW	05H
	DW	0aH
	DW	03H
	DW	03H
	DW	01H
	DW	04H
	DW	0cH
	DW	07H
	DW	03H
	DW	08H
	DW	02H
	DW	016H
	DW	07H
	DW	02H
	DW	05H
	DW	09H
	DW	02H
	DW	03H
	DW	03H
	DW	02H
	DW	05H
	DW	012H
	DW	02H
	DW	06H
	DW	03H
	DW	04H
	DW	02H
	DW	01H
	DW	02H
	DW	02H
	DW	03H
	DW	0cH
	DW	05H
	DW	03H
	DW	04H
	DW	01H
	DW	01H
	DW	015H
	DW	0dH
	DW	03H
	DW	017H
	DW	010H
	DW	09H
	DW	03H
	DW	04H
	DW	02H
	DW	03H
	DW	01H
	DW	04H
	DW	0aH
	DW	016H
	DW	03H
	DW	017H
	DW	0aH
	DW	05H
	DW	09H
	DW	03H
	DW	04H
	DW	02H
	DW	02H
	DW	04H
	DW	0aH
	DW	03H
	DW	0dH
	DW	03H
	DW	033H
	DW	03H
	DW	06H
	DW	010H
	DW	01aH
	DW	03H
	DW	012H
	DW	018H
	DW	09H
	DW	01H
	DW	07H
	DW	01H
	DW	06H
	DW	01H
	DW	08H
	DW	0aH
	DW	03H
	DW	03aH
	DW	01dH
	DW	02H
	DW	01H
	DW	05H
	DW	018H
	DW	01H
	DW	017H
	DW	05H
	DW	01H
	DW	07H
	DW	0aH
	DW	04H
	DW	048H
	DW	024H
	DW	027H
	DW	024H
	DW	0fH
	DW	0dH
	DW	0c6H
	DW	01H
	DW	01H
	DW	0179H
	DW	04H
	DW	07H
	DW	01H
	DW	04H
	DW	029H
	DW	04H
	DW	021H
	DW	04H
	DW	07H
	DW	01H
	DW	04H
	DW	0fH
	DW	039H
	DW	04H
	DW	043H
	DW	020H
	DW	01aH
	DW	056H
	DW	06H
	DW	0280H
	DW	01cH
	DW	059H
	DW	016H
	DW	018H
	DW	014H
	DW	0dH
	DW	03H
	DW	02H
	DW	05eH
	DW	0aH
	DW	0aH
	DW	0eH
	DW	0bH
	DW	059H
	DW	02bH
	DW	046H
	DW	01fH
	DW	0cH
	DW	0cH
	DW	01H
	DW	02aH
	DW	05H
	DW	02cH
	DW	01aH
	DW	0bH
	DW	03eH
	DW	041H
	DW	01dH
	DW	0bH
	DW	0aH
	DW	0eH
	DW	01fH
	DW	04dH
	DW	02fH
	DW	074H
	DW	03cH
	DW	0fH
	DW	03cH
	DW	02bH
	DW	0bH
	DW	02bH
	DW	0216H
	DW	06H
	DW	026H
	DW	06H
	DW	08H
	DW	01H
	DW	01H
	DW	01H
	DW	01fH
	DW	035H
	DW	0fH
	DW	0eH
	DW	06H
	DW	013H
	DW	03H
	DW	09H
	DW	018H
	DW	02fH
	DW	02H
	DW	01bH
	DW	0dH
	DW	021H
	DW	021H
	DW	08cH
	DW	0297H
	DW	0bH
	DW	0714H
	DW	020H
	DW	015dH
	DW	02dH
	DW	01H
	DW	01H
	DW	038H
	DW	02H
	DW	018H
	DW	07H
	DW	07H
	DW	07H
	DW	07H
	DW	07H
	DW	07H
	DW	07H
	DW	07H
	DW	07eH
	DW	01aH
	DW	059H
	DW	0d6H
	DW	0cH
	DW	03fH
	DW	056H
	DW	067H
	DW	02bH
	DW	05eH
	DW	054H
	DW	02fH
	DW	0726dH
	DW	037H
	DW	015cH
	DW	0b8H
	DW	0cbH
	DW	02H
	DW	01H
	DW	05H
	DW	03bH
	DW	0aH
	DW	038H
	DW	046H
	DW	0cH
	DW	074H
	DW	01eH
	DW	04eH
	DW	0bH
	DW	021H
	DW	037H
	DW	0eH
	DW	0aH
	DW	067H
	DW	01cH
	DW	06H
	DW	06H
	DW	06H
	DW	07H
	DW	07H
	DW	03cH
	DW	07eH
	DW	0aH
	DW	02ba4H
	DW	017H
	DW	031H
	DW	016eH
	DW	06aH
	DW	07H
	DW	05H
	DW	01aH
	DW	05H
	DW	01H
	DW	02H
	DW	02H
	DW	07dH
	DW	01bdH
	DW	036H
	DW	01H
	DW	02aH
	DW	033H
	DW	013H
	DW	04H
	DW	05H
	DW	087H
	DW	0beH
	DW	06H
	DW	06H
	DW	06H
	DW	03H
	DW	07H
	DW	07H
	DW	02H
	DW	0cH
	DW	01aH
	DW	013H
	DW	02H
	DW	0fH
	DW	0eH
	DW	07bH
	DW	03H
	DW	02dH
	DW	058H
	DW	0dH
	DW	01H
	DW	02eH
	DW	01dH
	DW	031H
	DW	01cH
	DW	024H
	DW	01eH
	DW	02bH
	DW	01eH
	DW	025H
	DW	0eH
	DW	09eH
	DW	0aH
	DW	024H
	DW	024H
	DW	028H
	DW	034H
	DW	0cH
	DW	0fH
	DW	07H
	DW	02H
	DW	0bH
	DW	0fH
	DW	07H
	DW	02H
	DW	0137H
	DW	016H
	DW	08H
	DW	06H
	DW	02aH
	DW	09H
	DW	06H
	DW	01H
	DW	02cH
	DW	02H
	DW	01H
	DW	017H
	DW	048H
	DW	09H
	DW	013H
	DW	02H
	DW	021H
	DW	01bH
	DW	01H
	DW	038H
	DW	014H
	DW	032H
	DW	02H
	DW	08H
	DW	03H
	DW	01dH
	DW	03H
	DW	0aH
	DW	09H
	DW	040H
	DW	027H
	DW	0cH
	DW	036H
	DW	01dH
	DW	01bH
	DW	01aH
	DW	04H
	DW	07H
	DW	049H
	DW	033H
	DW	033H
	DW	02eH
	DW	0aH
	DW	01fH
	DW	02aH
	DW	03H
	DW	02H
	DW	02bH
	DW	02aH
	DW	01aH
	DW	01cH
	DW	017H
	DW	04eH
	DW	024H
	DW	03eH
	DW	05H
	DW	019H
	DW	0aH
	DW	035H
	DW	012H
	DW	027H
	DW	060H
	DW	014H
	DW	012H
	DW	02fH
	DW	07H
	DW	01H
	DW	04H
	DW	0fH
	DW	0bH
	DW	03bH
	DW	0aH
	DW	04H
	DW	08H
	DW	02H
	DW	016H
	DW	07H
	DW	02H
	DW	05H
	DW	0aH
	DW	02H
	DW	03H
	DW	01H
	DW	01H
	DW	07H
	DW	07H
	DW	05H
	DW	05cH
	DW	05H
	DW	048H
	DW	0aH
	DW	036H
	DW	026H
	DW	045H
	DW	0aH
	DW	0dH
	DW	03aH
	DW	0aH
	DW	01bH
	DW	0fH
	DW	017H
	DW	03cH
	DW	053H
	DW	08H
	DW	01H
	DW	08H
	DW	02H
	DW	01eH
	DW	02H
	DW	0cH
	DW	0aH
	DW	08H
	DW	02eH
	DW	0bH
	DW	048H
	DW	053H
	DW	049H
	DW	0aH
	DW	09H
	DW	02dH
	DW	0eH
	DW	01dH
	DW	020H
	DW	016H
	DW	0eH
	DW	07H
	DW	02H
	DW	02cH
	DW	01H
	DW	02H
	DW	09H
	DW	0aH
	DW	06H
	DW	02H
	DW	025H
	DW	02H
	DW	06H
	DW	0aH
	DW	019H
	DW	011H
	DW	029H
	DW	01cH
	DW	01H
	DW	032H
	DW	039bH
	DW	06fH
	DW	05H
	DW	0c4H
	DW	063H
	DW	0430H
	DW	016H
	DW	0247H
	DW	0239H
	DW	01fH
	DW	0aH
	DW	051H
	DW	0aH
	DW	01eH
	DW	06H
	DW	046H
	DW	0aH
	DW	07H
	DW	015H
	DW	013H
	DW	05bH
	DW	04bH
	DW	039H
	DW	011H
	DW	05H
	DW	02H
	DW	017f8H
	DW	04d6H
	DW	09H
	DW	04H
	DW	07H
	DW	02H
	DW	0123H
	DW	01H
	DW	03H
	DW	01H
	DW	04H
	DW	018cH
	DW	06bH
	DW	0dH
	DW	09H
	DW	0aH
	DW	04H
	DW	02eH
	DW	017H
	DW	074H
	DW	0f6H
	DW	027H
	DW	04aH
	DW	070H
	DW	046H
	DW	014H
	DW	014H
	DW	057H
	DW	019H
	DW	055H
	DW	047H
	DW	02H
	DW	01H
	DW	02H
	DW	04H
	DW	0cH
	DW	01H
	DW	07H
	DW	041H
	DW	04H
	DW	08H
	DW	07H
	DW	01cH
	DW	04H
	DW	05H
	DW	01H
	DW	07H
	DW	0154H
	DW	0124H
	DW	02beH
	DW	05H
	DW	0fH
	DW	01fH
	DW	06H
	DW	07H
	DW	011H
	DW	07H
	DW	02H
	DW	05H
	DW	03eH
	DW	01H
	DW	02dH
	DW	0eH
	DW	0aH
	DW	02H
	DW	01fH
	DW	03aH
	DW	01H
	DW	02aH
	DW	07H
	DW	04H
	DW	02H
	DW	0fH
	DW	0c5H
	DW	010H
	DW	04cH
	DW	0aH
	DW	02H
	DW	044H
	DW	03dH
	DW	04H
	DW	01bH
	DW	02H
	DW	01H
	DW	01H
	DW	0aH
	DW	04H
	DW	01H
	DW	01H
	DW	01H
	DW	01H
	DW	01H
	DW	01H
	DW	03H
	DW	02H
	DW	01H
	DW	01H
	DW	01H
	DW	01H
	DW	01H
	DW	01H
	DW	02H
	DW	01H
	DW	04H
	DW	07H
	DW	04H
	DW	04H
	DW	01H
	DW	0aH
	DW	011H
	DW	03H
	DW	05H
	DW	011H
	DW	02H
	DW	02cH
	DW	064H
	DW	0fH
	DW	0fH
	DW	0fH
	DW	025H
	DW	0aeH
	DW	01dH
	DW	02cH
	DW	09H
	DW	02H
	DW	06H
	DW	03d8H
	DW	011H
	DW	0dH
	DW	077H
	DW	05fH
	DW	0cH
	DW	01H
	DW	0cH
	DW	038H
	DW	0aH
	DW	028H
	DW	01eH
	DW	02H
	DW	0154H
	DW	0eH
	DW	0dH
	DW	09H
	DW	02eH
	DW	07H
	DW	0eH
	DW	09H
	DW	09H
	DW	093H
	DW	037H
	DW	0aH
	DW	0a6e0H
	DW	0103aH
	DW	0deH
	DW	01682H
	DW	01d31H
	DW	021eH
	DW	0134bH
	DW	01060H
	DW	0f0H
	ORG $+2
CONST	ENDS
;	COMDAT ?_Grapheme_Extend_property_data@std@@3U?$_Unicode_property_data@W4_Grapheme_Extend_property_values@std@@$0BGL@$00@1@B
CONST	SEGMENT
?_Grapheme_Extend_property_data@std@@3U?$_Unicode_property_data@W4_Grapheme_Extend_property_values@std@@$0BGL@$00@1@B DD 0300H ; std::_Grapheme_Extend_property_data
	DD	0483H
	DD	0591H
	DD	05bfH
	DD	05c1H
	DD	05c4H
	DD	05c7H
	DD	0610H
	DD	064bH
	DD	0670H
	DD	06d6H
	DD	06dfH
	DD	06e7H
	DD	06eaH
	DD	0711H
	DD	0730H
	DD	07a6H
	DD	07ebH
	DD	07fdH
	DD	0816H
	DD	081bH
	DD	0825H
	DD	0829H
	DD	0859H
	DD	0898H
	DD	08caH
	DD	08e3H
	DD	093aH
	DD	093cH
	DD	0941H
	DD	094dH
	DD	0951H
	DD	0962H
	DD	0981H
	DD	09bcH
	DD	09beH
	DD	09c1H
	DD	09cdH
	DD	09d7H
	DD	09e2H
	DD	09feH
	DD	0a01H
	DD	0a3cH
	DD	0a41H
	DD	0a47H
	DD	0a4bH
	DD	0a51H
	DD	0a70H
	DD	0a75H
	DD	0a81H
	DD	0abcH
	DD	0ac1H
	DD	0ac7H
	DD	0acdH
	DD	0ae2H
	DD	0afaH
	DD	0b01H
	DD	0b3cH
	DD	0b3eH
	DD	0b41H
	DD	0b4dH
	DD	0b55H
	DD	0b62H
	DD	0b82H
	DD	0bbeH
	DD	0bc0H
	DD	0bcdH
	DD	0bd7H
	DD	0c00H
	DD	0c04H
	DD	0c3cH
	DD	0c3eH
	DD	0c46H
	DD	0c4aH
	DD	0c55H
	DD	0c62H
	DD	0c81H
	DD	0cbcH
	DD	0cbfH
	DD	0cc2H
	DD	0cc6H
	DD	0cccH
	DD	0cd5H
	DD	0ce2H
	DD	0d00H
	DD	0d3bH
	DD	0d3eH
	DD	0d41H
	DD	0d4dH
	DD	0d57H
	DD	0d62H
	DD	0d81H
	DD	0dcaH
	DD	0dcfH
	DD	0dd2H
	DD	0dd6H
	DD	0ddfH
	DD	0e31H
	DD	0e34H
	DD	0e47H
	DD	0eb1H
	DD	0eb4H
	DD	0ec8H
	DD	0f18H
	DD	0f35H
	DD	0f37H
	DD	0f39H
	DD	0f71H
	DD	0f80H
	DD	0f86H
	DD	0f8dH
	DD	0f99H
	DD	0fc6H
	DD	0102dH
	DD	01032H
	DD	01039H
	DD	0103dH
	DD	01058H
	DD	0105eH
	DD	01071H
	DD	01082H
	DD	01085H
	DD	0108dH
	DD	0109dH
	DD	0135dH
	DD	01712H
	DD	01732H
	DD	01752H
	DD	01772H
	DD	017b4H
	DD	017b7H
	DD	017c6H
	DD	017c9H
	DD	017ddH
	DD	0180bH
	DD	0180fH
	DD	01885H
	DD	018a9H
	DD	01920H
	DD	01927H
	DD	01932H
	DD	01939H
	DD	01a17H
	DD	01a1bH
	DD	01a56H
	DD	01a58H
	DD	01a60H
	DD	01a62H
	DD	01a65H
	DD	01a73H
	DD	01a7fH
	DD	01ab0H
	DD	01b00H
	DD	01b34H
	DD	01b3cH
	DD	01b42H
	DD	01b6bH
	DD	01b80H
	DD	01ba2H
	DD	01ba8H
	DD	01babH
	DD	01be6H
	DD	01be8H
	DD	01bedH
	DD	01befH
	DD	01c2cH
	DD	01c36H
	DD	01cd0H
	DD	01cd4H
	DD	01ce2H
	DD	01cedH
	DD	01cf4H
	DD	01cf8H
	DD	01dc0H
	DD	0200cH
	DD	020d0H
	DD	02cefH
	DD	02d7fH
	DD	02de0H
	DD	0302aH
	DD	03099H
	DD	0a66fH
	DD	0a674H
	DD	0a69eH
	DD	0a6f0H
	DD	0a802H
	DD	0a806H
	DD	0a80bH
	DD	0a825H
	DD	0a82cH
	DD	0a8c4H
	DD	0a8e0H
	DD	0a8ffH
	DD	0a926H
	DD	0a947H
	DD	0a980H
	DD	0a9b3H
	DD	0a9b6H
	DD	0a9bcH
	DD	0a9e5H
	DD	0aa29H
	DD	0aa31H
	DD	0aa35H
	DD	0aa43H
	DD	0aa4cH
	DD	0aa7cH
	DD	0aab0H
	DD	0aab2H
	DD	0aab7H
	DD	0aabeH
	DD	0aac1H
	DD	0aaecH
	DD	0aaf6H
	DD	0abe5H
	DD	0abe8H
	DD	0abedH
	DD	0fb1eH
	DD	0fe00H
	DD	0fe20H
	DD	0ff9eH
	DD	0101fdH
	DD	0102e0H
	DD	010376H
	DD	010a01H
	DD	010a05H
	DD	010a0cH
	DD	010a38H
	DD	010a3fH
	DD	010ae5H
	DD	010d24H
	DD	010eabH
	DD	010efdH
	DD	010f46H
	DD	010f82H
	DD	011001H
	DD	011038H
	DD	011070H
	DD	011073H
	DD	01107fH
	DD	0110b3H
	DD	0110b9H
	DD	0110c2H
	DD	011100H
	DD	011127H
	DD	01112dH
	DD	011173H
	DD	011180H
	DD	0111b6H
	DD	0111c9H
	DD	0111cfH
	DD	01122fH
	DD	011234H
	DD	011236H
	DD	01123eH
	DD	011241H
	DD	0112dfH
	DD	0112e3H
	DD	011300H
	DD	01133bH
	DD	01133eH
	DD	011340H
	DD	011357H
	DD	011366H
	DD	011370H
	DD	011438H
	DD	011442H
	DD	011446H
	DD	01145eH
	DD	0114b0H
	DD	0114b3H
	DD	0114baH
	DD	0114bdH
	DD	0114bfH
	DD	0114c2H
	DD	0115afH
	DD	0115b2H
	DD	0115bcH
	DD	0115bfH
	DD	0115dcH
	DD	011633H
	DD	01163dH
	DD	01163fH
	DD	0116abH
	DD	0116adH
	DD	0116b0H
	DD	0116b7H
	DD	01171dH
	DD	011722H
	DD	011727H
	DD	01182fH
	DD	011839H
	DD	011930H
	DD	01193bH
	DD	01193eH
	DD	011943H
	DD	0119d4H
	DD	0119daH
	DD	0119e0H
	DD	011a01H
	DD	011a33H
	DD	011a3bH
	DD	011a47H
	DD	011a51H
	DD	011a59H
	DD	011a8aH
	DD	011a98H
	DD	011c30H
	DD	011c38H
	DD	011c3fH
	DD	011c92H
	DD	011caaH
	DD	011cb2H
	DD	011cb5H
	DD	011d31H
	DD	011d3aH
	DD	011d3cH
	DD	011d3fH
	DD	011d47H
	DD	011d90H
	DD	011d95H
	DD	011d97H
	DD	011ef3H
	DD	011f00H
	DD	011f36H
	DD	011f40H
	DD	011f42H
	DD	013440H
	DD	013447H
	DD	016af0H
	DD	016b30H
	DD	016f4fH
	DD	016f8fH
	DD	016fe4H
	DD	01bc9dH
	DD	01cf00H
	DD	01cf30H
	DD	01d165H
	DD	01d167H
	DD	01d16eH
	DD	01d17bH
	DD	01d185H
	DD	01d1aaH
	DD	01d242H
	DD	01da00H
	DD	01da3bH
	DD	01da75H
	DD	01da84H
	DD	01da9bH
	DD	01daa1H
	DD	01e000H
	DD	01e008H
	DD	01e01bH
	DD	01e023H
	DD	01e026H
	DD	01e08fH
	DD	01e130H
	DD	01e2aeH
	DD	01e2ecH
	DD	01e4ecH
	DD	01e8d0H
	DD	01e944H
	DD	0e0020H
	DD	0e0100H
	DW	070H
	DW	07H
	DW	02dH
	DW	01H
	DW	02H
	DW	02H
	DW	01H
	DW	0bH
	DW	015H
	DW	01H
	DW	07H
	DW	06H
	DW	02H
	DW	04H
	DW	01H
	DW	01bH
	DW	0bH
	DW	09H
	DW	01H
	DW	04H
	DW	09H
	DW	03H
	DW	05H
	DW	03H
	DW	08H
	DW	018H
	DW	020H
	DW	01H
	DW	01H
	DW	08H
	DW	01H
	DW	07H
	DW	02H
	DW	01H
	DW	01H
	DW	01H
	DW	04H
	DW	01H
	DW	01H
	DW	02H
	DW	01H
	DW	02H
	DW	01H
	DW	02H
	DW	02H
	DW	03H
	DW	01H
	DW	02H
	DW	01H
	DW	02H
	DW	01H
	DW	05H
	DW	02H
	DW	01H
	DW	02H
	DW	06H
	DW	01H
	DW	01H
	DW	02H
	DW	04H
	DW	01H
	DW	03H
	DW	02H
	DW	01H
	DW	01H
	DW	01H
	DW	01H
	DW	01H
	DW	01H
	DW	01H
	DW	01H
	DW	03H
	DW	03H
	DW	04H
	DW	02H
	DW	02H
	DW	01H
	DW	01H
	DW	01H
	DW	01H
	DW	01H
	DW	02H
	DW	02H
	DW	02H
	DW	02H
	DW	02H
	DW	01H
	DW	04H
	DW	01H
	DW	01H
	DW	02H
	DW	01H
	DW	01H
	DW	01H
	DW	03H
	DW	01H
	DW	01H
	DW	01H
	DW	07H
	DW	08H
	DW	01H
	DW	09H
	DW	07H
	DW	02H
	DW	01H
	DW	01H
	DW	01H
	DW	0eH
	DW	05H
	DW	02H
	DW	0bH
	DW	024H
	DW	01H
	DW	04H
	DW	06H
	DW	02H
	DW	02H
	DW	02H
	DW	03H
	DW	04H
	DW	01H
	DW	02H
	DW	01H
	DW	01H
	DW	03H
	DW	03H
	DW	02H
	DW	02H
	DW	02H
	DW	02H
	DW	07H
	DW	01H
	DW	0bH
	DW	01H
	DW	03H
	DW	01H
	DW	02H
	DW	01H
	DW	03H
	DW	02H
	DW	01H
	DW	03H
	DW	02H
	DW	01H
	DW	01H
	DW	07H
	DW	01H
	DW	01H
	DW	08H
	DW	0aH
	DW	01H
	DW	01fH
	DW	04H
	DW	07H
	DW	01H
	DW	01H
	DW	09H
	DW	02H
	DW	04H
	DW	02H
	DW	03H
	DW	01H
	DW	02H
	DW	01H
	DW	03H
	DW	08H
	DW	02H
	DW	03H
	DW	0dH
	DW	07H
	DW	01H
	DW	01H
	DW	02H
	DW	040H
	DW	01H
	DW	021H
	DW	03H
	DW	01H
	DW	020H
	DW	06H
	DW	02H
	DW	04H
	DW	0aH
	DW	02H
	DW	02H
	DW	01H
	DW	01H
	DW	01H
	DW	02H
	DW	01H
	DW	02H
	DW	012H
	DW	01H
	DW	08H
	DW	0bH
	DW	03H
	DW	01H
	DW	04H
	DW	02H
	DW	01H
	DW	06H
	DW	02H
	DW	02H
	DW	01H
	DW	01H
	DW	01H
	DW	01H
	DW	03H
	DW	02H
	DW	02H
	DW	01H
	DW	02H
	DW	01H
	DW	01H
	DW	01H
	DW	01H
	DW	01H
	DW	010H
	DW	010H
	DW	02H
	DW	01H
	DW	01H
	DW	05H
	DW	03H
	DW	02H
	DW	04H
	DW	03H
	DW	01H
	DW	02H
	DW	04H
	DW	02H
	DW	03H
	DW	0bH
	DW	04H
	DW	01H
	DW	0fH
	DW	01H
	DW	02H
	DW	03H
	DW	04H
	DW	02H
	DW	01H
	DW	03H
	DW	05H
	DW	08H
	DW	01H
	DW	02H
	DW	09H
	DW	04H
	DW	01H
	DW	03H
	DW	01H
	DW	02H
	DW	01H
	DW	01H
	DW	01H
	DW	08H
	DW	02H
	DW	02H
	DW	01H
	DW	01H
	DW	01H
	DW	07H
	DW	05H
	DW	08H
	DW	03H
	DW	01H
	DW	01H
	DW	01H
	DW	06H
	DW	01H
	DW	01H
	DW	02H
	DW	02H
	DW	01H
	DW	04H
	DW	02H
	DW	02H
	DW	02H
	DW	08H
	DW	01H
	DW	02H
	DW	01H
	DW	01H
	DW	06H
	DW	01H
	DW	03H
	DW	04H
	DW	05H
	DW	09H
	DW	02H
	DW	01H
	DW	02H
	DW	01H
	DW	01H
	DW	04H
	DW	02H
	DW	01H
	DW	0aH
	DW	06H
	DW	04H
	DW	01H
	DW	06H
	DW	03H
	DW	0dH
	DW	02H
	DW	07H
	DW	06H
	DW	01H
	DW	016H
	DW	07H
	DW	02H
	DW	02H
	DW	06H
	DW	01H
	DW	02H
	DW	07H
	DW	01H
	DW	02H
	DW	01H
	DW	01H
	DW	02H
	DW	02H
	DW	05H
	DW	01H
	DW	01H
	DW	01H
	DW	0fH
	DW	05H
	DW	07H
	DW	01H
	DW	04H
	DW	01H
	DW	02H
	DW	02eH
	DW	017H
	DW	01H
	DW	03H
	DW	05H
	DW	08H
	DW	07H
	DW	04H
	DW	03H
	DW	037H
	DW	032H
	DW	01H
	DW	01H
	DW	05H
	DW	0fH
	DW	07H
	DW	011H
	DW	07H
	DW	02H
	DW	05H
	DW	01H
	DW	07H
	DW	01H
	DW	04H
	DW	04H
	DW	07H
	DW	07H
	DW	060H
	DW	0f0H
	ORG $+2
CONST	ENDS
;	COMDAT ?_Width_estimate_intervals_v2@std@@3QB_UB
CONST	SEGMENT
?_Width_estimate_intervals_v2@std@@3QB_UB DD 01100H	; std::_Width_estimate_intervals_v2
	DD	01160H
	DD	0231aH
	DD	0231cH
	DD	02329H
	DD	0232bH
	DD	023e9H
	DD	023edH
	DD	023f0H
	DD	023f1H
	DD	023f3H
	DD	023f4H
	DD	025fdH
	DD	025ffH
	DD	02614H
	DD	02616H
	DD	02648H
	DD	02654H
	DD	0267fH
	DD	02680H
	DD	02693H
	DD	02694H
	DD	026a1H
	DD	026a2H
	DD	026aaH
	DD	026acH
	DD	026bdH
	DD	026bfH
	DD	026c4H
	DD	026c6H
	DD	026ceH
	DD	026cfH
	DD	026d4H
	DD	026d5H
	DD	026eaH
	DD	026ebH
	DD	026f2H
	DD	026f4H
	DD	026f5H
	DD	026f6H
	DD	026faH
	DD	026fbH
	DD	026fdH
	DD	026feH
	DD	02705H
	DD	02706H
	DD	0270aH
	DD	0270cH
	DD	02728H
	DD	02729H
	DD	0274cH
	DD	0274dH
	DD	0274eH
	DD	0274fH
	DD	02753H
	DD	02756H
	DD	02757H
	DD	02758H
	DD	02795H
	DD	02798H
	DD	027b0H
	DD	027b1H
	DD	027bfH
	DD	027c0H
	DD	02b1bH
	DD	02b1dH
	DD	02b50H
	DD	02b51H
	DD	02b55H
	DD	02b56H
	DD	02e80H
	DD	02e9aH
	DD	02e9bH
	DD	02ef4H
	DD	02f00H
	DD	02fd6H
	DD	02ff0H
	DD	02ffcH
	DD	03000H
	DD	0303fH
	DD	03041H
	DD	03097H
	DD	03099H
	DD	03100H
	DD	03105H
	DD	03130H
	DD	03131H
	DD	0318fH
	DD	03190H
	DD	031e4H
	DD	031f0H
	DD	0321fH
	DD	03220H
	DD	03248H
	DD	03250H
	DD	0a48dH
	DD	0a490H
	DD	0a4c7H
	DD	0a960H
	DD	0a97dH
	DD	0ac00H
	DD	0d7a4H
	DD	0f900H
	DD	0fb00H
	DD	0fe10H
	DD	0fe1aH
	DD	0fe30H
	DD	0fe53H
	DD	0fe54H
	DD	0fe67H
	DD	0fe68H
	DD	0fe6cH
	DD	0ff01H
	DD	0ff61H
	DD	0ffe0H
	DD	0ffe7H
	DD	016fe0H
	DD	016fe5H
	DD	016ff0H
	DD	016ff2H
	DD	017000H
	DD	0187f8H
	DD	018800H
	DD	018cd6H
	DD	018d00H
	DD	018d09H
	DD	01aff0H
	DD	01aff4H
	DD	01aff5H
	DD	01affcH
	DD	01affdH
	DD	01afffH
	DD	01b000H
	DD	01b123H
	DD	01b132H
	DD	01b133H
	DD	01b150H
	DD	01b153H
	DD	01b155H
	DD	01b156H
	DD	01b164H
	DD	01b168H
	DD	01b170H
	DD	01b2fcH
	DD	01f004H
	DD	01f005H
	DD	01f0cfH
	DD	01f0d0H
	DD	01f18eH
	DD	01f18fH
	DD	01f191H
	DD	01f19bH
	DD	01f200H
	DD	01f203H
	DD	01f210H
	DD	01f23cH
	DD	01f240H
	DD	01f249H
	DD	01f250H
	DD	01f252H
	DD	01f260H
	DD	01f266H
	DD	01f300H
	DD	01f650H
	DD	01f680H
	DD	01f6c6H
	DD	01f6ccH
	DD	01f6cdH
	DD	01f6d0H
	DD	01f6d3H
	DD	01f6d5H
	DD	01f6d8H
	DD	01f6dcH
	DD	01f6e0H
	DD	01f6ebH
	DD	01f6edH
	DD	01f6f4H
	DD	01f6fdH
	DD	01f7e0H
	DD	01f7ecH
	DD	01f7f0H
	DD	01f7f1H
	DD	01f900H
	DD	01fa00H
	DD	01fa70H
	DD	01fa7dH
	DD	01fa80H
	DD	01fa89H
	DD	01fa90H
	DD	01fabeH
	DD	01fabfH
	DD	01fac6H
	DD	01faceH
	DD	01fadcH
	DD	01fae0H
	DD	01fae9H
	DD	01faf0H
	DD	01faf9H
	DD	020000H
	DD	02fffeH
	DD	030000H
	DD	03fffeH
CONST	ENDS
;	COMDAT ?_Default_next_capacity@_Pool@unsynchronized_pool_resource@pmr@std@@2_KB
CONST	SEGMENT
?_Default_next_capacity@_Pool@unsynchronized_pool_resource@pmr@std@@2_KB DQ 0000000000000004H ; std::pmr::unsynchronized_pool_resource::_Pool::_Default_next_capacity
CONST	ENDS
;	COMDAT ?_Min_allocation@monotonic_buffer_resource@pmr@std@@0_KB
CONST	SEGMENT
?_Min_allocation@monotonic_buffer_resource@pmr@std@@0_KB DQ 0000000000000030H ; std::pmr::monotonic_buffer_resource::_Min_allocation
CONST	ENDS
;	COMDAT ?_Grapheme_Break_property_data@std@@3U?$_Unicode_property_data@W4_Grapheme_Break_property_values@std@@$0FFL@$0A@@1@B
CONST	SEGMENT
?_Grapheme_Break_property_data@std@@3U?$_Unicode_property_data@W4_Grapheme_Break_property_values@std@@$0FFL@$0A@@1@B DD 00H ; std::_Grapheme_Break_property_data
	DD	0aH
	DD	0bH
	DD	0dH
	DD	0eH
	DD	07fH
	DD	0adH
	DD	0300H
	DD	0483H
	DD	0591H
	DD	05bfH
	DD	05c1H
	DD	05c4H
	DD	05c7H
	DD	0600H
	DD	0610H
	DD	061cH
	DD	064bH
	DD	0670H
	DD	06d6H
	DD	06ddH
	DD	06dfH
	DD	06e7H
	DD	06eaH
	DD	070fH
	DD	0711H
	DD	0730H
	DD	07a6H
	DD	07ebH
	DD	07fdH
	DD	0816H
	DD	081bH
	DD	0825H
	DD	0829H
	DD	0859H
	DD	0890H
	DD	0898H
	DD	08caH
	DD	08e2H
	DD	08e3H
	DD	0903H
	DD	093aH
	DD	093bH
	DD	093cH
	DD	093eH
	DD	0941H
	DD	0949H
	DD	094dH
	DD	094eH
	DD	0951H
	DD	0962H
	DD	0981H
	DD	0982H
	DD	09bcH
	DD	09beH
	DD	09bfH
	DD	09c1H
	DD	09c7H
	DD	09cbH
	DD	09cdH
	DD	09d7H
	DD	09e2H
	DD	09feH
	DD	0a01H
	DD	0a03H
	DD	0a3cH
	DD	0a3eH
	DD	0a41H
	DD	0a47H
	DD	0a4bH
	DD	0a51H
	DD	0a70H
	DD	0a75H
	DD	0a81H
	DD	0a83H
	DD	0abcH
	DD	0abeH
	DD	0ac1H
	DD	0ac7H
	DD	0ac9H
	DD	0acbH
	DD	0acdH
	DD	0ae2H
	DD	0afaH
	DD	0b01H
	DD	0b02H
	DD	0b3cH
	DD	0b3eH
	DD	0b40H
	DD	0b41H
	DD	0b47H
	DD	0b4bH
	DD	0b4dH
	DD	0b55H
	DD	0b62H
	DD	0b82H
	DD	0bbeH
	DD	0bbfH
	DD	0bc0H
	DD	0bc1H
	DD	0bc6H
	DD	0bcaH
	DD	0bcdH
	DD	0bd7H
	DD	0c00H
	DD	0c01H
	DD	0c04H
	DD	0c3cH
	DD	0c3eH
	DD	0c41H
	DD	0c46H
	DD	0c4aH
	DD	0c55H
	DD	0c62H
	DD	0c81H
	DD	0c82H
	DD	0cbcH
	DD	0cbeH
	DD	0cbfH
	DD	0cc0H
	DD	0cc2H
	DD	0cc3H
	DD	0cc6H
	DD	0cc7H
	DD	0ccaH
	DD	0cccH
	DD	0cd5H
	DD	0ce2H
	DD	0cf3H
	DD	0d00H
	DD	0d02H
	DD	0d3bH
	DD	0d3eH
	DD	0d3fH
	DD	0d41H
	DD	0d46H
	DD	0d4aH
	DD	0d4dH
	DD	0d4eH
	DD	0d57H
	DD	0d62H
	DD	0d81H
	DD	0d82H
	DD	0dcaH
	DD	0dcfH
	DD	0dd0H
	DD	0dd2H
	DD	0dd6H
	DD	0dd8H
	DD	0ddfH
	DD	0df2H
	DD	0e31H
	DD	0e33H
	DD	0e34H
	DD	0e47H
	DD	0eb1H
	DD	0eb3H
	DD	0eb4H
	DD	0ec8H
	DD	0f18H
	DD	0f35H
	DD	0f37H
	DD	0f39H
	DD	0f3eH
	DD	0f71H
	DD	0f7fH
	DD	0f80H
	DD	0f86H
	DD	0f8dH
	DD	0f99H
	DD	0fc6H
	DD	0102dH
	DD	01031H
	DD	01032H
	DD	01039H
	DD	0103bH
	DD	0103dH
	DD	01056H
	DD	01058H
	DD	0105eH
	DD	01071H
	DD	01082H
	DD	01084H
	DD	01085H
	DD	0108dH
	DD	0109dH
	DD	01100H
	DD	01160H
	DD	011a8H
	DD	0135dH
	DD	01712H
	DD	01715H
	DD	01732H
	DD	01734H
	DD	01752H
	DD	01772H
	DD	017b4H
	DD	017b6H
	DD	017b7H
	DD	017beH
	DD	017c6H
	DD	017c7H
	DD	017c9H
	DD	017ddH
	DD	0180bH
	DD	0180eH
	DD	0180fH
	DD	01885H
	DD	018a9H
	DD	01920H
	DD	01923H
	DD	01927H
	DD	01929H
	DD	01930H
	DD	01932H
	DD	01933H
	DD	01939H
	DD	01a17H
	DD	01a19H
	DD	01a1bH
	DD	01a55H
	DD	01a56H
	DD	01a57H
	DD	01a58H
	DD	01a60H
	DD	01a62H
	DD	01a65H
	DD	01a6dH
	DD	01a73H
	DD	01a7fH
	DD	01ab0H
	DD	01b00H
	DD	01b04H
	DD	01b34H
	DD	01b3bH
	DD	01b3cH
	DD	01b3dH
	DD	01b42H
	DD	01b43H
	DD	01b6bH
	DD	01b80H
	DD	01b82H
	DD	01ba1H
	DD	01ba2H
	DD	01ba6H
	DD	01ba8H
	DD	01baaH
	DD	01babH
	DD	01be6H
	DD	01be7H
	DD	01be8H
	DD	01beaH
	DD	01bedH
	DD	01beeH
	DD	01befH
	DD	01bf2H
	DD	01c24H
	DD	01c2cH
	DD	01c34H
	DD	01c36H
	DD	01cd0H
	DD	01cd4H
	DD	01ce1H
	DD	01ce2H
	DD	01cedH
	DD	01cf4H
	DD	01cf7H
	DD	01cf8H
	DD	01dc0H
	DD	0200bH
	DD	0200cH
	DD	0200dH
	DD	0200eH
	DD	02028H
	DD	02060H
	DD	020d0H
	DD	02cefH
	DD	02d7fH
	DD	02de0H
	DD	0302aH
	DD	03099H
	DD	0a66fH
	DD	0a674H
	DD	0a69eH
	DD	0a6f0H
	DD	0a802H
	DD	0a806H
	DD	0a80bH
	DD	0a823H
	DD	0a825H
	DD	0a827H
	DD	0a82cH
	DD	0a880H
	DD	0a8b4H
	DD	0a8c4H
	DD	0a8e0H
	DD	0a8ffH
	DD	0a926H
	DD	0a947H
	DD	0a952H
	DD	0a960H
	DD	0a980H
	DD	0a983H
	DD	0a9b3H
	DD	0a9b4H
	DD	0a9b6H
	DD	0a9baH
	DD	0a9bcH
	DD	0a9beH
	DD	0a9e5H
	DD	0aa29H
	DD	0aa2fH
	DD	0aa31H
	DD	0aa33H
	DD	0aa35H
	DD	0aa43H
	DD	0aa4cH
	DD	0aa4dH
	DD	0aa7cH
	DD	0aab0H
	DD	0aab2H
	DD	0aab7H
	DD	0aabeH
	DD	0aac1H
	DD	0aaebH
	DD	0aaecH
	DD	0aaeeH
	DD	0aaf5H
	DD	0aaf6H
	DD	0abe3H
	DD	0abe5H
	DD	0abe6H
	DD	0abe8H
	DD	0abe9H
	DD	0abecH
	DD	0abedH
	DD	0ac00H
	DD	0ac01H
	DD	0ac1cH
	DD	0ac1dH
	DD	0ac38H
	DD	0ac39H
	DD	0ac54H
	DD	0ac55H
	DD	0ac70H
	DD	0ac71H
	DD	0ac8cH
	DD	0ac8dH
	DD	0aca8H
	DD	0aca9H
	DD	0acc4H
	DD	0acc5H
	DD	0ace0H
	DD	0ace1H
	DD	0acfcH
	DD	0acfdH
	DD	0ad18H
	DD	0ad19H
	DD	0ad34H
	DD	0ad35H
	DD	0ad50H
	DD	0ad51H
	DD	0ad6cH
	DD	0ad6dH
	DD	0ad88H
	DD	0ad89H
	DD	0ada4H
	DD	0ada5H
	DD	0adc0H
	DD	0adc1H
	DD	0addcH
	DD	0adddH
	DD	0adf8H
	DD	0adf9H
	DD	0ae14H
	DD	0ae15H
	DD	0ae30H
	DD	0ae31H
	DD	0ae4cH
	DD	0ae4dH
	DD	0ae68H
	DD	0ae69H
	DD	0ae84H
	DD	0ae85H
	DD	0aea0H
	DD	0aea1H
	DD	0aebcH
	DD	0aebdH
	DD	0aed8H
	DD	0aed9H
	DD	0aef4H
	DD	0aef5H
	DD	0af10H
	DD	0af11H
	DD	0af2cH
	DD	0af2dH
	DD	0af48H
	DD	0af49H
	DD	0af64H
	DD	0af65H
	DD	0af80H
	DD	0af81H
	DD	0af9cH
	DD	0af9dH
	DD	0afb8H
	DD	0afb9H
	DD	0afd4H
	DD	0afd5H
	DD	0aff0H
	DD	0aff1H
	DD	0b00cH
	DD	0b00dH
	DD	0b028H
	DD	0b029H
	DD	0b044H
	DD	0b045H
	DD	0b060H
	DD	0b061H
	DD	0b07cH
	DD	0b07dH
	DD	0b098H
	DD	0b099H
	DD	0b0b4H
	DD	0b0b5H
	DD	0b0d0H
	DD	0b0d1H
	DD	0b0ecH
	DD	0b0edH
	DD	0b108H
	DD	0b109H
	DD	0b124H
	DD	0b125H
	DD	0b140H
	DD	0b141H
	DD	0b15cH
	DD	0b15dH
	DD	0b178H
	DD	0b179H
	DD	0b194H
	DD	0b195H
	DD	0b1b0H
	DD	0b1b1H
	DD	0b1ccH
	DD	0b1cdH
	DD	0b1e8H
	DD	0b1e9H
	DD	0b204H
	DD	0b205H
	DD	0b220H
	DD	0b221H
	DD	0b23cH
	DD	0b23dH
	DD	0b258H
	DD	0b259H
	DD	0b274H
	DD	0b275H
	DD	0b290H
	DD	0b291H
	DD	0b2acH
	DD	0b2adH
	DD	0b2c8H
	DD	0b2c9H
	DD	0b2e4H
	DD	0b2e5H
	DD	0b300H
	DD	0b301H
	DD	0b31cH
	DD	0b31dH
	DD	0b338H
	DD	0b339H
	DD	0b354H
	DD	0b355H
	DD	0b370H
	DD	0b371H
	DD	0b38cH
	DD	0b38dH
	DD	0b3a8H
	DD	0b3a9H
	DD	0b3c4H
	DD	0b3c5H
	DD	0b3e0H
	DD	0b3e1H
	DD	0b3fcH
	DD	0b3fdH
	DD	0b418H
	DD	0b419H
	DD	0b434H
	DD	0b435H
	DD	0b450H
	DD	0b451H
	DD	0b46cH
	DD	0b46dH
	DD	0b488H
	DD	0b489H
	DD	0b4a4H
	DD	0b4a5H
	DD	0b4c0H
	DD	0b4c1H
	DD	0b4dcH
	DD	0b4ddH
	DD	0b4f8H
	DD	0b4f9H
	DD	0b514H
	DD	0b515H
	DD	0b530H
	DD	0b531H
	DD	0b54cH
	DD	0b54dH
	DD	0b568H
	DD	0b569H
	DD	0b584H
	DD	0b585H
	DD	0b5a0H
	DD	0b5a1H
	DD	0b5bcH
	DD	0b5bdH
	DD	0b5d8H
	DD	0b5d9H
	DD	0b5f4H
	DD	0b5f5H
	DD	0b610H
	DD	0b611H
	DD	0b62cH
	DD	0b62dH
	DD	0b648H
	DD	0b649H
	DD	0b664H
	DD	0b665H
	DD	0b680H
	DD	0b681H
	DD	0b69cH
	DD	0b69dH
	DD	0b6b8H
	DD	0b6b9H
	DD	0b6d4H
	DD	0b6d5H
	DD	0b6f0H
	DD	0b6f1H
	DD	0b70cH
	DD	0b70dH
	DD	0b728H
	DD	0b729H
	DD	0b744H
	DD	0b745H
	DD	0b760H
	DD	0b761H
	DD	0b77cH
	DD	0b77dH
	DD	0b798H
	DD	0b799H
	DD	0b7b4H
	DD	0b7b5H
	DD	0b7d0H
	DD	0b7d1H
	DD	0b7ecH
	DD	0b7edH
	DD	0b808H
	DD	0b809H
	DD	0b824H
	DD	0b825H
	DD	0b840H
	DD	0b841H
	DD	0b85cH
	DD	0b85dH
	DD	0b878H
	DD	0b879H
	DD	0b894H
	DD	0b895H
	DD	0b8b0H
	DD	0b8b1H
	DD	0b8ccH
	DD	0b8cdH
	DD	0b8e8H
	DD	0b8e9H
	DD	0b904H
	DD	0b905H
	DD	0b920H
	DD	0b921H
	DD	0b93cH
	DD	0b93dH
	DD	0b958H
	DD	0b959H
	DD	0b974H
	DD	0b975H
	DD	0b990H
	DD	0b991H
	DD	0b9acH
	DD	0b9adH
	DD	0b9c8H
	DD	0b9c9H
	DD	0b9e4H
	DD	0b9e5H
	DD	0ba00H
	DD	0ba01H
	DD	0ba1cH
	DD	0ba1dH
	DD	0ba38H
	DD	0ba39H
	DD	0ba54H
	DD	0ba55H
	DD	0ba70H
	DD	0ba71H
	DD	0ba8cH
	DD	0ba8dH
	DD	0baa8H
	DD	0baa9H
	DD	0bac4H
	DD	0bac5H
	DD	0bae0H
	DD	0bae1H
	DD	0bafcH
	DD	0bafdH
	DD	0bb18H
	DD	0bb19H
	DD	0bb34H
	DD	0bb35H
	DD	0bb50H
	DD	0bb51H
	DD	0bb6cH
	DD	0bb6dH
	DD	0bb88H
	DD	0bb89H
	DD	0bba4H
	DD	0bba5H
	DD	0bbc0H
	DD	0bbc1H
	DD	0bbdcH
	DD	0bbddH
	DD	0bbf8H
	DD	0bbf9H
	DD	0bc14H
	DD	0bc15H
	DD	0bc30H
	DD	0bc31H
	DD	0bc4cH
	DD	0bc4dH
	DD	0bc68H
	DD	0bc69H
	DD	0bc84H
	DD	0bc85H
	DD	0bca0H
	DD	0bca1H
	DD	0bcbcH
	DD	0bcbdH
	DD	0bcd8H
	DD	0bcd9H
	DD	0bcf4H
	DD	0bcf5H
	DD	0bd10H
	DD	0bd11H
	DD	0bd2cH
	DD	0bd2dH
	DD	0bd48H
	DD	0bd49H
	DD	0bd64H
	DD	0bd65H
	DD	0bd80H
	DD	0bd81H
	DD	0bd9cH
	DD	0bd9dH
	DD	0bdb8H
	DD	0bdb9H
	DD	0bdd4H
	DD	0bdd5H
	DD	0bdf0H
	DD	0bdf1H
	DD	0be0cH
	DD	0be0dH
	DD	0be28H
	DD	0be29H
	DD	0be44H
	DD	0be45H
	DD	0be60H
	DD	0be61H
	DD	0be7cH
	DD	0be7dH
	DD	0be98H
	DD	0be99H
	DD	0beb4H
	DD	0beb5H
	DD	0bed0H
	DD	0bed1H
	DD	0beecH
	DD	0beedH
	DD	0bf08H
	DD	0bf09H
	DD	0bf24H
	DD	0bf25H
	DD	0bf40H
	DD	0bf41H
	DD	0bf5cH
	DD	0bf5dH
	DD	0bf78H
	DD	0bf79H
	DD	0bf94H
	DD	0bf95H
	DD	0bfb0H
	DD	0bfb1H
	DD	0bfccH
	DD	0bfcdH
	DD	0bfe8H
	DD	0bfe9H
	DD	0c004H
	DD	0c005H
	DD	0c020H
	DD	0c021H
	DD	0c03cH
	DD	0c03dH
	DD	0c058H
	DD	0c059H
	DD	0c074H
	DD	0c075H
	DD	0c090H
	DD	0c091H
	DD	0c0acH
	DD	0c0adH
	DD	0c0c8H
	DD	0c0c9H
	DD	0c0e4H
	DD	0c0e5H
	DD	0c100H
	DD	0c101H
	DD	0c11cH
	DD	0c11dH
	DD	0c138H
	DD	0c139H
	DD	0c154H
	DD	0c155H
	DD	0c170H
	DD	0c171H
	DD	0c18cH
	DD	0c18dH
	DD	0c1a8H
	DD	0c1a9H
	DD	0c1c4H
	DD	0c1c5H
	DD	0c1e0H
	DD	0c1e1H
	DD	0c1fcH
	DD	0c1fdH
	DD	0c218H
	DD	0c219H
	DD	0c234H
	DD	0c235H
	DD	0c250H
	DD	0c251H
	DD	0c26cH
	DD	0c26dH
	DD	0c288H
	DD	0c289H
	DD	0c2a4H
	DD	0c2a5H
	DD	0c2c0H
	DD	0c2c1H
	DD	0c2dcH
	DD	0c2ddH
	DD	0c2f8H
	DD	0c2f9H
	DD	0c314H
	DD	0c315H
	DD	0c330H
	DD	0c331H
	DD	0c34cH
	DD	0c34dH
	DD	0c368H
	DD	0c369H
	DD	0c384H
	DD	0c385H
	DD	0c3a0H
	DD	0c3a1H
	DD	0c3bcH
	DD	0c3bdH
	DD	0c3d8H
	DD	0c3d9H
	DD	0c3f4H
	DD	0c3f5H
	DD	0c410H
	DD	0c411H
	DD	0c42cH
	DD	0c42dH
	DD	0c448H
	DD	0c449H
	DD	0c464H
	DD	0c465H
	DD	0c480H
	DD	0c481H
	DD	0c49cH
	DD	0c49dH
	DD	0c4b8H
	DD	0c4b9H
	DD	0c4d4H
	DD	0c4d5H
	DD	0c4f0H
	DD	0c4f1H
	DD	0c50cH
	DD	0c50dH
	DD	0c528H
	DD	0c529H
	DD	0c544H
	DD	0c545H
	DD	0c560H
	DD	0c561H
	DD	0c57cH
	DD	0c57dH
	DD	0c598H
	DD	0c599H
	DD	0c5b4H
	DD	0c5b5H
	DD	0c5d0H
	DD	0c5d1H
	DD	0c5ecH
	DD	0c5edH
	DD	0c608H
	DD	0c609H
	DD	0c624H
	DD	0c625H
	DD	0c640H
	DD	0c641H
	DD	0c65cH
	DD	0c65dH
	DD	0c678H
	DD	0c679H
	DD	0c694H
	DD	0c695H
	DD	0c6b0H
	DD	0c6b1H
	DD	0c6ccH
	DD	0c6cdH
	DD	0c6e8H
	DD	0c6e9H
	DD	0c704H
	DD	0c705H
	DD	0c720H
	DD	0c721H
	DD	0c73cH
	DD	0c73dH
	DD	0c758H
	DD	0c759H
	DD	0c774H
	DD	0c775H
	DD	0c790H
	DD	0c791H
	DD	0c7acH
	DD	0c7adH
	DD	0c7c8H
	DD	0c7c9H
	DD	0c7e4H
	DD	0c7e5H
	DD	0c800H
	DD	0c801H
	DD	0c81cH
	DD	0c81dH
	DD	0c838H
	DD	0c839H
	DD	0c854H
	DD	0c855H
	DD	0c870H
	DD	0c871H
	DD	0c88cH
	DD	0c88dH
	DD	0c8a8H
	DD	0c8a9H
	DD	0c8c4H
	DD	0c8c5H
	DD	0c8e0H
	DD	0c8e1H
	DD	0c8fcH
	DD	0c8fdH
	DD	0c918H
	DD	0c919H
	DD	0c934H
	DD	0c935H
	DD	0c950H
	DD	0c951H
	DD	0c96cH
	DD	0c96dH
	DD	0c988H
	DD	0c989H
	DD	0c9a4H
	DD	0c9a5H
	DD	0c9c0H
	DD	0c9c1H
	DD	0c9dcH
	DD	0c9ddH
	DD	0c9f8H
	DD	0c9f9H
	DD	0ca14H
	DD	0ca15H
	DD	0ca30H
	DD	0ca31H
	DD	0ca4cH
	DD	0ca4dH
	DD	0ca68H
	DD	0ca69H
	DD	0ca84H
	DD	0ca85H
	DD	0caa0H
	DD	0caa1H
	DD	0cabcH
	DD	0cabdH
	DD	0cad8H
	DD	0cad9H
	DD	0caf4H
	DD	0caf5H
	DD	0cb10H
	DD	0cb11H
	DD	0cb2cH
	DD	0cb2dH
	DD	0cb48H
	DD	0cb49H
	DD	0cb64H
	DD	0cb65H
	DD	0cb80H
	DD	0cb81H
	DD	0cb9cH
	DD	0cb9dH
	DD	0cbb8H
	DD	0cbb9H
	DD	0cbd4H
	DD	0cbd5H
	DD	0cbf0H
	DD	0cbf1H
	DD	0cc0cH
	DD	0cc0dH
	DD	0cc28H
	DD	0cc29H
	DD	0cc44H
	DD	0cc45H
	DD	0cc60H
	DD	0cc61H
	DD	0cc7cH
	DD	0cc7dH
	DD	0cc98H
	DD	0cc99H
	DD	0ccb4H
	DD	0ccb5H
	DD	0ccd0H
	DD	0ccd1H
	DD	0ccecH
	DD	0ccedH
	DD	0cd08H
	DD	0cd09H
	DD	0cd24H
	DD	0cd25H
	DD	0cd40H
	DD	0cd41H
	DD	0cd5cH
	DD	0cd5dH
	DD	0cd78H
	DD	0cd79H
	DD	0cd94H
	DD	0cd95H
	DD	0cdb0H
	DD	0cdb1H
	DD	0cdccH
	DD	0cdcdH
	DD	0cde8H
	DD	0cde9H
	DD	0ce04H
	DD	0ce05H
	DD	0ce20H
	DD	0ce21H
	DD	0ce3cH
	DD	0ce3dH
	DD	0ce58H
	DD	0ce59H
	DD	0ce74H
	DD	0ce75H
	DD	0ce90H
	DD	0ce91H
	DD	0ceacH
	DD	0ceadH
	DD	0cec8H
	DD	0cec9H
	DD	0cee4H
	DD	0cee5H
	DD	0cf00H
	DD	0cf01H
	DD	0cf1cH
	DD	0cf1dH
	DD	0cf38H
	DD	0cf39H
	DD	0cf54H
	DD	0cf55H
	DD	0cf70H
	DD	0cf71H
	DD	0cf8cH
	DD	0cf8dH
	DD	0cfa8H
	DD	0cfa9H
	DD	0cfc4H
	DD	0cfc5H
	DD	0cfe0H
	DD	0cfe1H
	DD	0cffcH
	DD	0cffdH
	DD	0d018H
	DD	0d019H
	DD	0d034H
	DD	0d035H
	DD	0d050H
	DD	0d051H
	DD	0d06cH
	DD	0d06dH
	DD	0d088H
	DD	0d089H
	DD	0d0a4H
	DD	0d0a5H
	DD	0d0c0H
	DD	0d0c1H
	DD	0d0dcH
	DD	0d0ddH
	DD	0d0f8H
	DD	0d0f9H
	DD	0d114H
	DD	0d115H
	DD	0d130H
	DD	0d131H
	DD	0d14cH
	DD	0d14dH
	DD	0d168H
	DD	0d169H
	DD	0d184H
	DD	0d185H
	DD	0d1a0H
	DD	0d1a1H
	DD	0d1bcH
	DD	0d1bdH
	DD	0d1d8H
	DD	0d1d9H
	DD	0d1f4H
	DD	0d1f5H
	DD	0d210H
	DD	0d211H
	DD	0d22cH
	DD	0d22dH
	DD	0d248H
	DD	0d249H
	DD	0d264H
	DD	0d265H
	DD	0d280H
	DD	0d281H
	DD	0d29cH
	DD	0d29dH
	DD	0d2b8H
	DD	0d2b9H
	DD	0d2d4H
	DD	0d2d5H
	DD	0d2f0H
	DD	0d2f1H
	DD	0d30cH
	DD	0d30dH
	DD	0d328H
	DD	0d329H
	DD	0d344H
	DD	0d345H
	DD	0d360H
	DD	0d361H
	DD	0d37cH
	DD	0d37dH
	DD	0d398H
	DD	0d399H
	DD	0d3b4H
	DD	0d3b5H
	DD	0d3d0H
	DD	0d3d1H
	DD	0d3ecH
	DD	0d3edH
	DD	0d408H
	DD	0d409H
	DD	0d424H
	DD	0d425H
	DD	0d440H
	DD	0d441H
	DD	0d45cH
	DD	0d45dH
	DD	0d478H
	DD	0d479H
	DD	0d494H
	DD	0d495H
	DD	0d4b0H
	DD	0d4b1H
	DD	0d4ccH
	DD	0d4cdH
	DD	0d4e8H
	DD	0d4e9H
	DD	0d504H
	DD	0d505H
	DD	0d520H
	DD	0d521H
	DD	0d53cH
	DD	0d53dH
	DD	0d558H
	DD	0d559H
	DD	0d574H
	DD	0d575H
	DD	0d590H
	DD	0d591H
	DD	0d5acH
	DD	0d5adH
	DD	0d5c8H
	DD	0d5c9H
	DD	0d5e4H
	DD	0d5e5H
	DD	0d600H
	DD	0d601H
	DD	0d61cH
	DD	0d61dH
	DD	0d638H
	DD	0d639H
	DD	0d654H
	DD	0d655H
	DD	0d670H
	DD	0d671H
	DD	0d68cH
	DD	0d68dH
	DD	0d6a8H
	DD	0d6a9H
	DD	0d6c4H
	DD	0d6c5H
	DD	0d6e0H
	DD	0d6e1H
	DD	0d6fcH
	DD	0d6fdH
	DD	0d718H
	DD	0d719H
	DD	0d734H
	DD	0d735H
	DD	0d750H
	DD	0d751H
	DD	0d76cH
	DD	0d76dH
	DD	0d788H
	DD	0d789H
	DD	0d7b0H
	DD	0d7cbH
	DD	0fb1eH
	DD	0fe00H
	DD	0fe20H
	DD	0feffH
	DD	0ff9eH
	DD	0fff0H
	DD	0101fdH
	DD	0102e0H
	DD	010376H
	DD	010a01H
	DD	010a05H
	DD	010a0cH
	DD	010a38H
	DD	010a3fH
	DD	010ae5H
	DD	010d24H
	DD	010eabH
	DD	010efdH
	DD	010f46H
	DD	010f82H
	DD	011000H
	DD	011001H
	DD	011002H
	DD	011038H
	DD	011070H
	DD	011073H
	DD	01107fH
	DD	011082H
	DD	0110b0H
	DD	0110b3H
	DD	0110b7H
	DD	0110b9H
	DD	0110bdH
	DD	0110c2H
	DD	0110cdH
	DD	011100H
	DD	011127H
	DD	01112cH
	DD	01112dH
	DD	011145H
	DD	011173H
	DD	011180H
	DD	011182H
	DD	0111b3H
	DD	0111b6H
	DD	0111bfH
	DD	0111c2H
	DD	0111c9H
	DD	0111ceH
	DD	0111cfH
	DD	01122cH
	DD	01122fH
	DD	011232H
	DD	011234H
	DD	011235H
	DD	011236H
	DD	01123eH
	DD	011241H
	DD	0112dfH
	DD	0112e0H
	DD	0112e3H
	DD	011300H
	DD	011302H
	DD	01133bH
	DD	01133eH
	DD	01133fH
	DD	011340H
	DD	011341H
	DD	011347H
	DD	01134bH
	DD	011357H
	DD	011362H
	DD	011366H
	DD	011370H
	DD	011435H
	DD	011438H
	DD	011440H
	DD	011442H
	DD	011445H
	DD	011446H
	DD	01145eH
	DD	0114b0H
	DD	0114b1H
	DD	0114b3H
	DD	0114b9H
	DD	0114baH
	DD	0114bbH
	DD	0114bdH
	DD	0114beH
	DD	0114bfH
	DD	0114c1H
	DD	0114c2H
	DD	0115afH
	DD	0115b0H
	DD	0115b2H
	DD	0115b8H
	DD	0115bcH
	DD	0115beH
	DD	0115bfH
	DD	0115dcH
	DD	011630H
	DD	011633H
	DD	01163bH
	DD	01163dH
	DD	01163eH
	DD	01163fH
	DD	0116abH
	DD	0116acH
	DD	0116adH
	DD	0116aeH
	DD	0116b0H
	DD	0116b6H
	DD	0116b7H
	DD	01171dH
	DD	011722H
	DD	011726H
	DD	011727H
	DD	01182cH
	DD	01182fH
	DD	011838H
	DD	011839H
	DD	011930H
	DD	011931H
	DD	011937H
	DD	01193bH
	DD	01193dH
	DD	01193eH
	DD	01193fH
	DD	011940H
	DD	011941H
	DD	011942H
	DD	011943H
	DD	0119d1H
	DD	0119d4H
	DD	0119daH
	DD	0119dcH
	DD	0119e0H
	DD	0119e4H
	DD	011a01H
	DD	011a33H
	DD	011a39H
	DD	011a3aH
	DD	011a3bH
	DD	011a47H
	DD	011a51H
	DD	011a57H
	DD	011a59H
	DD	011a84H
	DD	011a8aH
	DD	011a97H
	DD	011a98H
	DD	011c2fH
	DD	011c30H
	DD	011c38H
	DD	011c3eH
	DD	011c3fH
	DD	011c92H
	DD	011ca9H
	DD	011caaH
	DD	011cb1H
	DD	011cb2H
	DD	011cb4H
	DD	011cb5H
	DD	011d31H
	DD	011d3aH
	DD	011d3cH
	DD	011d3fH
	DD	011d46H
	DD	011d47H
	DD	011d8aH
	DD	011d90H
	DD	011d93H
	DD	011d95H
	DD	011d96H
	DD	011d97H
	DD	011ef3H
	DD	011ef5H
	DD	011f00H
	DD	011f02H
	DD	011f03H
	DD	011f34H
	DD	011f36H
	DD	011f3eH
	DD	011f40H
	DD	011f41H
	DD	011f42H
	DD	013430H
	DD	013440H
	DD	013447H
	DD	016af0H
	DD	016b30H
	DD	016f4fH
	DD	016f51H
	DD	016f8fH
	DD	016fe4H
	DD	016ff0H
	DD	01bc9dH
	DD	01bca0H
	DD	01cf00H
	DD	01cf30H
	DD	01d165H
	DD	01d166H
	DD	01d167H
	DD	01d16dH
	DD	01d16eH
	DD	01d173H
	DD	01d17bH
	DD	01d185H
	DD	01d1aaH
	DD	01d242H
	DD	01da00H
	DD	01da3bH
	DD	01da75H
	DD	01da84H
	DD	01da9bH
	DD	01daa1H
	DD	01e000H
	DD	01e008H
	DD	01e01bH
	DD	01e023H
	DD	01e026H
	DD	01e08fH
	DD	01e130H
	DD	01e2aeH
	DD	01e2ecH
	DD	01e4ecH
	DD	01e8d0H
	DD	01e944H
	DD	01f1e6H
	DD	01f3fbH
	DD	0e0000H
	DD	0e0020H
	DD	0e0080H
	DD	0e0100H
	DD	0e01f0H
	DW	0100aH
	DW	04001H
	DW	01002H
	DW	01H
	DW	01012H
	DW	01021H
	DW	01001H
	DW	02070H
	DW	02007H
	DW	0202dH
	DW	02001H
	DW	02002H
	DW	02002H
	DW	02001H
	DW	07006H
	DW	0200bH
	DW	01001H
	DW	02015H
	DW	02001H
	DW	02007H
	DW	07001H
	DW	02006H
	DW	02002H
	DW	02004H
	DW	07001H
	DW	02001H
	DW	0201bH
	DW	0200bH
	DW	02009H
	DW	02001H
	DW	02004H
	DW	02009H
	DW	02003H
	DW	02005H
	DW	02003H
	DW	07002H
	DW	02008H
	DW	02018H
	DW	07001H
	DW	02020H
	DW	09001H
	DW	02001H
	DW	09001H
	DW	02001H
	DW	09003H
	DW	02008H
	DW	09004H
	DW	02001H
	DW	09002H
	DW	02007H
	DW	02002H
	DW	02001H
	DW	09002H
	DW	02001H
	DW	02001H
	DW	09002H
	DW	02004H
	DW	09002H
	DW	09002H
	DW	02001H
	DW	02001H
	DW	02002H
	DW	02001H
	DW	02002H
	DW	09001H
	DW	02001H
	DW	09003H
	DW	02002H
	DW	02002H
	DW	02003H
	DW	02001H
	DW	02002H
	DW	02001H
	DW	02002H
	DW	09001H
	DW	02001H
	DW	09003H
	DW	02005H
	DW	02002H
	DW	09001H
	DW	09002H
	DW	02001H
	DW	02002H
	DW	02006H
	DW	02001H
	DW	09002H
	DW	02001H
	DW	02002H
	DW	09001H
	DW	02004H
	DW	09002H
	DW	09002H
	DW	02001H
	DW	02003H
	DW	02002H
	DW	02001H
	DW	02001H
	DW	09001H
	DW	02001H
	DW	09002H
	DW	09003H
	DW	09003H
	DW	02001H
	DW	02001H
	DW	02001H
	DW	09003H
	DW	02001H
	DW	02001H
	DW	02003H
	DW	09004H
	DW	02003H
	DW	02004H
	DW	02002H
	DW	02002H
	DW	02001H
	DW	09002H
	DW	02001H
	DW	09001H
	DW	02001H
	DW	09002H
	DW	02001H
	DW	09002H
	DW	02001H
	DW	09002H
	DW	09002H
	DW	02002H
	DW	02002H
	DW	02002H
	DW	09001H
	DW	02002H
	DW	09002H
	DW	02002H
	DW	02001H
	DW	09002H
	DW	02004H
	DW	09003H
	DW	09003H
	DW	02001H
	DW	07001H
	DW	02001H
	DW	02002H
	DW	02001H
	DW	09002H
	DW	02001H
	DW	02001H
	DW	09002H
	DW	02003H
	DW	02001H
	DW	09007H
	DW	02001H
	DW	09002H
	DW	02001H
	DW	09001H
	DW	02007H
	DW	02008H
	DW	02001H
	DW	09001H
	DW	02009H
	DW	02007H
	DW	02002H
	DW	02001H
	DW	02001H
	DW	02001H
	DW	09002H
	DW	0200eH
	DW	09001H
	DW	02005H
	DW	02002H
	DW	0200bH
	DW	02024H
	DW	02001H
	DW	02004H
	DW	09001H
	DW	02006H
	DW	02002H
	DW	09002H
	DW	02002H
	DW	09002H
	DW	02002H
	DW	02003H
	DW	02004H
	DW	02001H
	DW	09001H
	DW	02002H
	DW	02001H
	DW	02001H
	DW	03060H
	DW	0b048H
	DW	0a058H
	DW	02003H
	DW	02003H
	DW	09001H
	DW	02002H
	DW	09001H
	DW	02002H
	DW	02002H
	DW	02002H
	DW	09001H
	DW	02007H
	DW	09008H
	DW	02001H
	DW	09002H
	DW	0200bH
	DW	02001H
	DW	02003H
	DW	01001H
	DW	02001H
	DW	02002H
	DW	02001H
	DW	02003H
	DW	09004H
	DW	02002H
	DW	09003H
	DW	09002H
	DW	02001H
	DW	09006H
	DW	02003H
	DW	02002H
	DW	09002H
	DW	02001H
	DW	09001H
	DW	02001H
	DW	09001H
	DW	02007H
	DW	02001H
	DW	02001H
	DW	02008H
	DW	09006H
	DW	0200aH
	DW	02001H
	DW	0201fH
	DW	02004H
	DW	09001H
	DW	02007H
	DW	09001H
	DW	02001H
	DW	09005H
	DW	02001H
	DW	09002H
	DW	02009H
	DW	02002H
	DW	09001H
	DW	09001H
	DW	02004H
	DW	09002H
	DW	02002H
	DW	09001H
	DW	02003H
	DW	02001H
	DW	09001H
	DW	02002H
	DW	09003H
	DW	02001H
	DW	09001H
	DW	02003H
	DW	09002H
	DW	09008H
	DW	02008H
	DW	09002H
	DW	02002H
	DW	02003H
	DW	0200dH
	DW	09001H
	DW	02007H
	DW	02001H
	DW	02001H
	DW	09001H
	DW	02002H
	DW	02040H
	DW	01001H
	DW	02001H
	DW	0c001H
	DW	01002H
	DW	01007H
	DW	01010H
	DW	02021H
	DW	02003H
	DW	02001H
	DW	02020H
	DW	02006H
	DW	02002H
	DW	02004H
	DW	0200aH
	DW	02002H
	DW	02002H
	DW	02001H
	DW	02001H
	DW	02001H
	DW	09002H
	DW	02002H
	DW	09001H
	DW	02001H
	DW	09002H
	DW	09010H
	DW	02002H
	DW	02012H
	DW	02001H
	DW	02008H
	DW	0200bH
	DW	09002H
	DW	0301dH
	DW	02003H
	DW	09001H
	DW	02001H
	DW	09002H
	DW	02004H
	DW	09002H
	DW	02002H
	DW	09003H
	DW	02001H
	DW	02006H
	DW	09002H
	DW	02002H
	DW	09002H
	DW	02002H
	DW	02001H
	DW	02001H
	DW	09001H
	DW	02001H
	DW	02001H
	DW	02003H
	DW	02002H
	DW	02002H
	DW	02001H
	DW	09001H
	DW	02002H
	DW	09002H
	DW	09001H
	DW	02001H
	DW	09002H
	DW	02001H
	DW	09002H
	DW	02001H
	DW	09002H
	DW	09001H
	DW	02001H
	DW	05001H
	DW	0601bH
	DW	05001H
	DW	0601bH
	DW	05001H
	DW	0601bH
	DW	05001H
	DW	0601bH
	DW	05001H
	DW	0601bH
	DW	05001H
	DW	0601bH
	DW	05001H
	DW	0601bH
	DW	05001H
	DW	0601bH
	DW	05001H
	DW	0601bH
	DW	05001H
	DW	0601bH
	DW	05001H
	DW	0601bH
	DW	05001H
	DW	0601bH
	DW	05001H
	DW	0601bH
	DW	05001H
	DW	0601bH
	DW	05001H
	DW	0601bH
	DW	05001H
	DW	0601bH
	DW	05001H
	DW	0601bH
	DW	05001H
	DW	0601bH
	DW	05001H
	DW	0601bH
	DW	05001H
	DW	0601bH
	DW	05001H
	DW	0601bH
	DW	05001H
	DW	0601bH
	DW	05001H
	DW	0601bH
	DW	05001H
	DW	0601bH
	DW	05001H
	DW	0601bH
	DW	05001H
	DW	0601bH
	DW	05001H
	DW	0601bH
	DW	05001H
	DW	0601bH
	DW	05001H
	DW	0601bH
	DW	05001H
	DW	0601bH
	DW	05001H
	DW	0601bH
	DW	05001H
	DW	0601bH
	DW	05001H
	DW	0601bH
	DW	05001H
	DW	0601bH
	DW	05001H
	DW	0601bH
	DW	05001H
	DW	0601bH
	DW	05001H
	DW	0601bH
	DW	05001H
	DW	0601bH
	DW	05001H
	DW	0601bH
	DW	05001H
	DW	0601bH
	DW	05001H
	DW	0601bH
	DW	05001H
	DW	0601bH
	DW	05001H
	DW	0601bH
	DW	05001H
	DW	0601bH
	DW	05001H
	DW	0601bH
	DW	05001H
	DW	0601bH
	DW	05001H
	DW	0601bH
	DW	05001H
	DW	0601bH
	DW	05001H
	DW	0601bH
	DW	05001H
	DW	0601bH
	DW	05001H
	DW	0601bH
	DW	05001H
	DW	0601bH
	DW	05001H
	DW	0601bH
	DW	05001H
	DW	0601bH
	DW	05001H
	DW	0601bH
	DW	05001H
	DW	0601bH
	DW	05001H
	DW	0601bH
	DW	05001H
	DW	0601bH
	DW	05001H
	DW	0601bH
	DW	05001H
	DW	0601bH
	DW	05001H
	DW	0601bH
	DW	05001H
	DW	0601bH
	DW	05001H
	DW	0601bH
	DW	05001H
	DW	0601bH
	DW	05001H
	DW	0601bH
	DW	05001H
	DW	0601bH
	DW	05001H
	DW	0601bH
	DW	05001H
	DW	0601bH
	DW	05001H
	DW	0601bH
	DW	05001H
	DW	0601bH
	DW	05001H
	DW	0601bH
	DW	05001H
	DW	0601bH
	DW	05001H
	DW	0601bH
	DW	05001H
	DW	0601bH
	DW	05001H
	DW	0601bH
	DW	05001H
	DW	0601bH
	DW	05001H
	DW	0601bH
	DW	05001H
	DW	0601bH
	DW	05001H
	DW	0601bH
	DW	05001H
	DW	0601bH
	DW	05001H
	DW	0601bH
	DW	05001H
	DW	0601bH
	DW	05001H
	DW	0601bH
	DW	05001H
	DW	0601bH
	DW	05001H
	DW	0601bH
	DW	05001H
	DW	0601bH
	DW	05001H
	DW	0601bH
	DW	05001H
	DW	0601bH
	DW	05001H
	DW	0601bH
	DW	05001H
	DW	0601bH
	DW	05001H
	DW	0601bH
	DW	05001H
	DW	0601bH
	DW	05001H
	DW	0601bH
	DW	05001H
	DW	0601bH
	DW	05001H
	DW	0601bH
	DW	05001H
	DW	0601bH
	DW	05001H
	DW	0601bH
	DW	05001H
	DW	0601bH
	DW	05001H
	DW	0601bH
	DW	05001H
	DW	0601bH
	DW	05001H
	DW	0601bH
	DW	05001H
	DW	0601bH
	DW	05001H
	DW	0601bH
	DW	05001H
	DW	0601bH
	DW	05001H
	DW	0601bH
	DW	05001H
	DW	0601bH
	DW	05001H
	DW	0601bH
	DW	05001H
	DW	0601bH
	DW	05001H
	DW	0601bH
	DW	05001H
	DW	0601bH
	DW	05001H
	DW	0601bH
	DW	05001H
	DW	0601bH
	DW	05001H
	DW	0601bH
	DW	05001H
	DW	0601bH
	DW	05001H
	DW	0601bH
	DW	05001H
	DW	0601bH
	DW	05001H
	DW	0601bH
	DW	05001H
	DW	0601bH
	DW	05001H
	DW	0601bH
	DW	05001H
	DW	0601bH
	DW	05001H
	DW	0601bH
	DW	05001H
	DW	0601bH
	DW	05001H
	DW	0601bH
	DW	05001H
	DW	0601bH
	DW	05001H
	DW	0601bH
	DW	05001H
	DW	0601bH
	DW	05001H
	DW	0601bH
	DW	05001H
	DW	0601bH
	DW	05001H
	DW	0601bH
	DW	05001H
	DW	0601bH
	DW	05001H
	DW	0601bH
	DW	05001H
	DW	0601bH
	DW	05001H
	DW	0601bH
	DW	05001H
	DW	0601bH
	DW	05001H
	DW	0601bH
	DW	05001H
	DW	0601bH
	DW	05001H
	DW	0601bH
	DW	05001H
	DW	0601bH
	DW	05001H
	DW	0601bH
	DW	05001H
	DW	0601bH
	DW	05001H
	DW	0601bH
	DW	05001H
	DW	0601bH
	DW	05001H
	DW	0601bH
	DW	05001H
	DW	0601bH
	DW	05001H
	DW	0601bH
	DW	05001H
	DW	0601bH
	DW	05001H
	DW	0601bH
	DW	05001H
	DW	0601bH
	DW	05001H
	DW	0601bH
	DW	05001H
	DW	0601bH
	DW	05001H
	DW	0601bH
	DW	05001H
	DW	0601bH
	DW	05001H
	DW	0601bH
	DW	05001H
	DW	0601bH
	DW	05001H
	DW	0601bH
	DW	05001H
	DW	0601bH
	DW	05001H
	DW	0601bH
	DW	05001H
	DW	0601bH
	DW	05001H
	DW	0601bH
	DW	05001H
	DW	0601bH
	DW	05001H
	DW	0601bH
	DW	05001H
	DW	0601bH
	DW	05001H
	DW	0601bH
	DW	05001H
	DW	0601bH
	DW	05001H
	DW	0601bH
	DW	05001H
	DW	0601bH
	DW	05001H
	DW	0601bH
	DW	05001H
	DW	0601bH
	DW	05001H
	DW	0601bH
	DW	05001H
	DW	0601bH
	DW	05001H
	DW	0601bH
	DW	05001H
	DW	0601bH
	DW	05001H
	DW	0601bH
	DW	05001H
	DW	0601bH
	DW	05001H
	DW	0601bH
	DW	05001H
	DW	0601bH
	DW	05001H
	DW	0601bH
	DW	05001H
	DW	0601bH
	DW	05001H
	DW	0601bH
	DW	05001H
	DW	0601bH
	DW	05001H
	DW	0601bH
	DW	05001H
	DW	0601bH
	DW	05001H
	DW	0601bH
	DW	05001H
	DW	0601bH
	DW	05001H
	DW	0601bH
	DW	05001H
	DW	0601bH
	DW	05001H
	DW	0601bH
	DW	05001H
	DW	0601bH
	DW	05001H
	DW	0601bH
	DW	05001H
	DW	0601bH
	DW	05001H
	DW	0601bH
	DW	05001H
	DW	0601bH
	DW	05001H
	DW	0601bH
	DW	05001H
	DW	0601bH
	DW	05001H
	DW	0601bH
	DW	05001H
	DW	0601bH
	DW	05001H
	DW	0601bH
	DW	05001H
	DW	0601bH
	DW	05001H
	DW	0601bH
	DW	05001H
	DW	0601bH
	DW	05001H
	DW	0601bH
	DW	05001H
	DW	0601bH
	DW	05001H
	DW	0601bH
	DW	05001H
	DW	0601bH
	DW	05001H
	DW	0601bH
	DW	05001H
	DW	0601bH
	DW	05001H
	DW	0601bH
	DW	05001H
	DW	0601bH
	DW	05001H
	DW	0601bH
	DW	05001H
	DW	0601bH
	DW	05001H
	DW	0601bH
	DW	05001H
	DW	0601bH
	DW	05001H
	DW	0601bH
	DW	05001H
	DW	0601bH
	DW	05001H
	DW	0601bH
	DW	05001H
	DW	0601bH
	DW	05001H
	DW	0601bH
	DW	05001H
	DW	0601bH
	DW	05001H
	DW	0601bH
	DW	05001H
	DW	0601bH
	DW	05001H
	DW	0601bH
	DW	05001H
	DW	0601bH
	DW	05001H
	DW	0601bH
	DW	05001H
	DW	0601bH
	DW	05001H
	DW	0601bH
	DW	05001H
	DW	0601bH
	DW	05001H
	DW	0601bH
	DW	05001H
	DW	0601bH
	DW	05001H
	DW	0601bH
	DW	05001H
	DW	0601bH
	DW	05001H
	DW	0601bH
	DW	05001H
	DW	0601bH
	DW	05001H
	DW	0601bH
	DW	05001H
	DW	0601bH
	DW	05001H
	DW	0601bH
	DW	05001H
	DW	0601bH
	DW	05001H
	DW	0601bH
	DW	05001H
	DW	0601bH
	DW	05001H
	DW	0601bH
	DW	05001H
	DW	0601bH
	DW	05001H
	DW	0601bH
	DW	05001H
	DW	0601bH
	DW	05001H
	DW	0601bH
	DW	05001H
	DW	0601bH
	DW	05001H
	DW	0601bH
	DW	05001H
	DW	0601bH
	DW	05001H
	DW	0601bH
	DW	05001H
	DW	0601bH
	DW	05001H
	DW	0601bH
	DW	05001H
	DW	0601bH
	DW	05001H
	DW	0601bH
	DW	05001H
	DW	0601bH
	DW	05001H
	DW	0601bH
	DW	05001H
	DW	0601bH
	DW	05001H
	DW	0601bH
	DW	05001H
	DW	0601bH
	DW	05001H
	DW	0601bH
	DW	05001H
	DW	0601bH
	DW	05001H
	DW	0601bH
	DW	05001H
	DW	0601bH
	DW	05001H
	DW	0601bH
	DW	05001H
	DW	0601bH
	DW	05001H
	DW	0601bH
	DW	05001H
	DW	0601bH
	DW	05001H
	DW	0601bH
	DW	05001H
	DW	0601bH
	DW	05001H
	DW	0601bH
	DW	05001H
	DW	0601bH
	DW	05001H
	DW	0601bH
	DW	05001H
	DW	0601bH
	DW	05001H
	DW	0601bH
	DW	05001H
	DW	0601bH
	DW	05001H
	DW	0601bH
	DW	05001H
	DW	0601bH
	DW	05001H
	DW	0601bH
	DW	05001H
	DW	0601bH
	DW	05001H
	DW	0601bH
	DW	05001H
	DW	0601bH
	DW	05001H
	DW	0601bH
	DW	05001H
	DW	0601bH
	DW	05001H
	DW	0601bH
	DW	05001H
	DW	0601bH
	DW	05001H
	DW	0601bH
	DW	05001H
	DW	0601bH
	DW	05001H
	DW	0601bH
	DW	05001H
	DW	0601bH
	DW	05001H
	DW	0601bH
	DW	05001H
	DW	0601bH
	DW	05001H
	DW	0601bH
	DW	05001H
	DW	0601bH
	DW	05001H
	DW	0601bH
	DW	05001H
	DW	0601bH
	DW	05001H
	DW	0601bH
	DW	05001H
	DW	0601bH
	DW	05001H
	DW	0601bH
	DW	05001H
	DW	0601bH
	DW	05001H
	DW	0601bH
	DW	05001H
	DW	0601bH
	DW	05001H
	DW	0601bH
	DW	05001H
	DW	0601bH
	DW	05001H
	DW	0601bH
	DW	05001H
	DW	0601bH
	DW	05001H
	DW	0601bH
	DW	05001H
	DW	0601bH
	DW	05001H
	DW	0601bH
	DW	05001H
	DW	0601bH
	DW	05001H
	DW	0601bH
	DW	05001H
	DW	0601bH
	DW	05001H
	DW	0601bH
	DW	05001H
	DW	0601bH
	DW	05001H
	DW	0601bH
	DW	05001H
	DW	0601bH
	DW	05001H
	DW	0601bH
	DW	05001H
	DW	0601bH
	DW	05001H
	DW	0601bH
	DW	05001H
	DW	0601bH
	DW	05001H
	DW	0601bH
	DW	05001H
	DW	0601bH
	DW	05001H
	DW	0601bH
	DW	05001H
	DW	0601bH
	DW	05001H
	DW	0601bH
	DW	05001H
	DW	0601bH
	DW	05001H
	DW	0601bH
	DW	05001H
	DW	0601bH
	DW	05001H
	DW	0601bH
	DW	05001H
	DW	0601bH
	DW	05001H
	DW	0601bH
	DW	05001H
	DW	0601bH
	DW	05001H
	DW	0601bH
	DW	05001H
	DW	0601bH
	DW	05001H
	DW	0601bH
	DW	05001H
	DW	0601bH
	DW	05001H
	DW	0601bH
	DW	05001H
	DW	0601bH
	DW	05001H
	DW	0601bH
	DW	05001H
	DW	0601bH
	DW	05001H
	DW	0601bH
	DW	05001H
	DW	0601bH
	DW	05001H
	DW	0601bH
	DW	05001H
	DW	0601bH
	DW	05001H
	DW	0601bH
	DW	05001H
	DW	0601bH
	DW	05001H
	DW	0601bH
	DW	05001H
	DW	0601bH
	DW	05001H
	DW	0601bH
	DW	05001H
	DW	0601bH
	DW	05001H
	DW	0601bH
	DW	05001H
	DW	0601bH
	DW	05001H
	DW	0601bH
	DW	05001H
	DW	0601bH
	DW	05001H
	DW	0601bH
	DW	05001H
	DW	0601bH
	DW	05001H
	DW	0601bH
	DW	05001H
	DW	0601bH
	DW	05001H
	DW	0601bH
	DW	05001H
	DW	0601bH
	DW	05001H
	DW	0601bH
	DW	05001H
	DW	0601bH
	DW	05001H
	DW	0601bH
	DW	05001H
	DW	0601bH
	DW	05001H
	DW	0601bH
	DW	05001H
	DW	0601bH
	DW	05001H
	DW	0601bH
	DW	05001H
	DW	0601bH
	DW	05001H
	DW	0601bH
	DW	05001H
	DW	0601bH
	DW	05001H
	DW	0601bH
	DW	05001H
	DW	0601bH
	DW	05001H
	DW	0601bH
	DW	05001H
	DW	0601bH
	DW	05001H
	DW	0601bH
	DW	05001H
	DW	0601bH
	DW	05001H
	DW	0601bH
	DW	05001H
	DW	0601bH
	DW	05001H
	DW	0601bH
	DW	05001H
	DW	0601bH
	DW	05001H
	DW	0601bH
	DW	05001H
	DW	0601bH
	DW	05001H
	DW	0601bH
	DW	05001H
	DW	0601bH
	DW	05001H
	DW	0601bH
	DW	05001H
	DW	0601bH
	DW	05001H
	DW	0601bH
	DW	05001H
	DW	0601bH
	DW	05001H
	DW	0601bH
	DW	05001H
	DW	0601bH
	DW	05001H
	DW	0601bH
	DW	05001H
	DW	0601bH
	DW	05001H
	DW	0601bH
	DW	05001H
	DW	0601bH
	DW	05001H
	DW	0601bH
	DW	05001H
	DW	0601bH
	DW	05001H
	DW	0601bH
	DW	05001H
	DW	0601bH
	DW	05001H
	DW	0601bH
	DW	05001H
	DW	0601bH
	DW	05001H
	DW	0601bH
	DW	05001H
	DW	0601bH
	DW	05001H
	DW	0601bH
	DW	0b017H
	DW	0a031H
	DW	02001H
	DW	02010H
	DW	02010H
	DW	01001H
	DW	02002H
	DW	0100cH
	DW	02001H
	DW	02001H
	DW	02005H
	DW	02003H
	DW	02002H
	DW	02004H
	DW	02003H
	DW	02001H
	DW	02002H
	DW	02004H
	DW	02002H
	DW	02003H
	DW	0200bH
	DW	02004H
	DW	09001H
	DW	02001H
	DW	09001H
	DW	0200fH
	DW	02001H
	DW	02002H
	DW	02003H
	DW	09001H
	DW	09003H
	DW	02004H
	DW	09002H
	DW	02002H
	DW	07001H
	DW	02001H
	DW	07001H
	DW	02003H
	DW	02005H
	DW	09001H
	DW	02008H
	DW	09002H
	DW	02001H
	DW	02002H
	DW	09001H
	DW	09003H
	DW	02009H
	DW	09002H
	DW	07002H
	DW	02004H
	DW	09001H
	DW	02001H
	DW	09003H
	DW	02003H
	DW	09002H
	DW	02001H
	DW	09001H
	DW	02002H
	DW	02001H
	DW	02001H
	DW	02001H
	DW	09003H
	DW	02008H
	DW	02002H
	DW	09002H
	DW	02002H
	DW	02001H
	DW	09001H
	DW	02001H
	DW	09004H
	DW	09002H
	DW	09003H
	DW	02001H
	DW	09002H
	DW	02007H
	DW	02005H
	DW	09003H
	DW	02008H
	DW	09002H
	DW	02003H
	DW	09001H
	DW	02001H
	DW	02001H
	DW	02001H
	DW	09002H
	DW	02006H
	DW	09001H
	DW	02001H
	DW	09002H
	DW	02001H
	DW	09001H
	DW	02002H
	DW	09001H
	DW	02002H
	DW	02001H
	DW	09002H
	DW	02004H
	DW	09004H
	DW	02002H
	DW	09001H
	DW	02002H
	DW	02002H
	DW	09003H
	DW	02008H
	DW	09002H
	DW	02001H
	DW	09001H
	DW	02002H
	DW	02001H
	DW	09001H
	DW	02001H
	DW	09002H
	DW	02006H
	DW	09001H
	DW	02001H
	DW	02003H
	DW	02004H
	DW	09001H
	DW	02005H
	DW	09003H
	DW	02009H
	DW	09001H
	DW	02002H
	DW	02001H
	DW	09005H
	DW	09002H
	DW	02002H
	DW	09001H
	DW	02001H
	DW	07001H
	DW	09001H
	DW	07001H
	DW	09001H
	DW	02001H
	DW	09003H
	DW	02004H
	DW	02002H
	DW	09004H
	DW	02001H
	DW	09001H
	DW	0200aH
	DW	02006H
	DW	09001H
	DW	07001H
	DW	02004H
	DW	02001H
	DW	02006H
	DW	09002H
	DW	02003H
	DW	07006H
	DW	0200dH
	DW	09001H
	DW	02002H
	DW	09001H
	DW	02007H
	DW	02006H
	DW	09001H
	DW	02001H
	DW	02016H
	DW	09001H
	DW	02007H
	DW	09001H
	DW	02002H
	DW	09001H
	DW	02002H
	DW	02006H
	DW	02001H
	DW	02002H
	DW	02007H
	DW	07001H
	DW	02001H
	DW	09005H
	DW	02002H
	DW	09002H
	DW	02001H
	DW	09001H
	DW	02001H
	DW	02002H
	DW	09002H
	DW	02002H
	DW	07001H
	DW	09001H
	DW	09002H
	DW	02005H
	DW	09002H
	DW	02001H
	DW	09001H
	DW	02001H
	DW	01010H
	DW	02001H
	DW	0200fH
	DW	02005H
	DW	02007H
	DW	02001H
	DW	09037H
	DW	02004H
	DW	02001H
	DW	09002H
	DW	02002H
	DW	01004H
	DW	0202eH
	DW	02017H
	DW	02001H
	DW	09001H
	DW	02003H
	DW	09001H
	DW	02005H
	DW	01008H
	DW	02008H
	DW	02007H
	DW	02004H
	DW	02003H
	DW	02037H
	DW	02032H
	DW	02001H
	DW	02001H
	DW	02005H
	DW	0200fH
	DW	02007H
	DW	02011H
	DW	02007H
	DW	02002H
	DW	02005H
	DW	02001H
	DW	02007H
	DW	02001H
	DW	02004H
	DW	02004H
	DW	02007H
	DW	02007H
	DW	0801aH
	DW	02005H
	DW	01020H
	DW	02060H
	DW	01080H
	DW	020f0H
	DW	01e10H
	ORG $+2
CONST	ENDS
;	COMDAT ?_Max_P@?$_General_precision_tables_2@N@std@@2HB
CONST	SEGMENT
?_Max_P@?$_General_precision_tables_2@N@std@@2HB DD 0135H ; std::_General_precision_tables_2<double>::_Max_P
CONST	ENDS
;	COMDAT ?less@strong_ordering@std@@2U12@B
CONST	SEGMENT
?less@strong_ordering@std@@2U12@B DB 0ffH		; std::strong_ordering::less
CONST	ENDS
;	COMDAT ??$__DIGIT_TABLE@D@std@@3QBDB
CONST	SEGMENT
??$__DIGIT_TABLE@D@std@@3QBDB DB 030H			; std::__DIGIT_TABLE<char>
	DB	030H
	DB	030H
	DB	031H
	DB	030H
	DB	032H
	DB	030H
	DB	033H
	DB	030H
	DB	034H
	DB	030H
	DB	035H
	DB	030H
	DB	036H
	DB	030H
	DB	037H
	DB	030H
	DB	038H
	DB	030H
	DB	039H
	DB	031H
	DB	030H
	DB	031H
	DB	031H
	DB	031H
	DB	032H
	DB	031H
	DB	033H
	DB	031H
	DB	034H
	DB	031H
	DB	035H
	DB	031H
	DB	036H
	DB	031H
	DB	037H
	DB	031H
	DB	038H
	DB	031H
	DB	039H
	DB	032H
	DB	030H
	DB	032H
	DB	031H
	DB	032H
	DB	032H
	DB	032H
	DB	033H
	DB	032H
	DB	034H
	DB	032H
	DB	035H
	DB	032H
	DB	036H
	DB	032H
	DB	037H
	DB	032H
	DB	038H
	DB	032H
	DB	039H
	DB	033H
	DB	030H
	DB	033H
	DB	031H
	DB	033H
	DB	032H
	DB	033H
	DB	033H
	DB	033H
	DB	034H
	DB	033H
	DB	035H
	DB	033H
	DB	036H
	DB	033H
	DB	037H
	DB	033H
	DB	038H
	DB	033H
	DB	039H
	DB	034H
	DB	030H
	DB	034H
	DB	031H
	DB	034H
	DB	032H
	DB	034H
	DB	033H
	DB	034H
	DB	034H
	DB	034H
	DB	035H
	DB	034H
	DB	036H
	DB	034H
	DB	037H
	DB	034H
	DB	038H
	DB	034H
	DB	039H
	DB	035H
	DB	030H
	DB	035H
	DB	031H
	DB	035H
	DB	032H
	DB	035H
	DB	033H
	DB	035H
	DB	034H
	DB	035H
	DB	035H
	DB	035H
	DB	036H
	DB	035H
	DB	037H
	DB	035H
	DB	038H
	DB	035H
	DB	039H
	DB	036H
	DB	030H
	DB	036H
	DB	031H
	DB	036H
	DB	032H
	DB	036H
	DB	033H
	DB	036H
	DB	034H
	DB	036H
	DB	035H
	DB	036H
	DB	036H
	DB	036H
	DB	037H
	DB	036H
	DB	038H
	DB	036H
	DB	039H
	DB	037H
	DB	030H
	DB	037H
	DB	031H
	DB	037H
	DB	032H
	DB	037H
	DB	033H
	DB	037H
	DB	034H
	DB	037H
	DB	035H
	DB	037H
	DB	036H
	DB	037H
	DB	037H
	DB	037H
	DB	038H
	DB	037H
	DB	039H
	DB	038H
	DB	030H
	DB	038H
	DB	031H
	DB	038H
	DB	032H
	DB	038H
	DB	033H
	DB	038H
	DB	034H
	DB	038H
	DB	035H
	DB	038H
	DB	036H
	DB	038H
	DB	037H
	DB	038H
	DB	038H
	DB	038H
	DB	039H
	DB	039H
	DB	030H
	DB	039H
	DB	031H
	DB	039H
	DB	032H
	DB	039H
	DB	033H
	DB	039H
	DB	034H
	DB	039H
	DB	035H
	DB	039H
	DB	036H
	DB	039H
	DB	037H
	DB	039H
	DB	038H
	DB	039H
	DB	039H
CONST	ENDS
;	COMDAT ?equal@strong_ordering@std@@2U12@B
CONST	SEGMENT
?equal@strong_ordering@std@@2U12@B DB 00H		; std::strong_ordering::equal
CONST	ENDS
;	COMDAT ?_Tai_epoch_adjust@tai_clock@chrono@std@@2V?$duration@_JU?$ratio@$00$00@std@@@23@B
CONST	SEGMENT
?_Tai_epoch_adjust@tai_clock@chrono@std@@2V?$duration@_JU?$ratio@$00$00@std@@@23@B DQ 0000000016925e8aH ; std::chrono::tai_clock::_Tai_epoch_adjust
CONST	ENDS
;	COMDAT ?_Gps_epoch_adjust@gps_clock@chrono@std@@2V?$duration@_JU?$ratio@$00$00@std@@@23@B
CONST	SEGMENT
?_Gps_epoch_adjust@gps_clock@chrono@std@@2V?$duration@_JU?$ratio@$00$00@std@@@23@B DQ ffffffffed2ac277H ; std::chrono::gps_clock::_Gps_epoch_adjust
CONST	ENDS
;	COMDAT ?_Is_slash@filesystem@std@@3U_Is_slash_oper@12@B
CONST	SEGMENT
?_Is_slash@filesystem@std@@3U_Is_slash_oper@12@B	ORG $+1 ; std::filesystem::_Is_slash
CONST	ENDS
;	COMDAT ?preferred_separator@path@filesystem@std@@2_WB
CONST	SEGMENT
?preferred_separator@path@filesystem@std@@2_WB DW 05cH	; std::filesystem::path::preferred_separator
CONST	ENDS
;	COMDAT ?greater@strong_ordering@std@@2U12@B
CONST	SEGMENT
?greater@strong_ordering@std@@2U12@B DB 01H		; std::strong_ordering::greater
CONST	ENDS
;	COMDAT ?fill_n@ranges@std@@3V_Fill_n_fn@12@B
CONST	SEGMENT
?fill_n@ranges@std@@3V_Fill_n_fn@12@B	ORG $+1		; std::ranges::fill_n
CONST	ENDS
;	COMDAT ?_Uend@_Cpos@ranges@std@@3V_Cpo@_Unchecked_end@23@B
CONST	SEGMENT
?_Uend@_Cpos@ranges@std@@3V_Cpo@_Unchecked_end@23@B	ORG $+1 ; std::ranges::_Cpos::_Uend
CONST	ENDS
;	COMDAT ?begin@_Cpos@ranges@std@@3V_Cpo@_Begin@23@B
CONST	SEGMENT
?begin@_Cpos@ranges@std@@3V_Cpo@_Begin@23@B	ORG $+1	; std::ranges::_Cpos::begin
CONST	ENDS
;	COMDAT ?single@views@ranges@std@@3U_Single_fn@123@B
CONST	SEGMENT
?single@views@ranges@std@@3U_Single_fn@123@B	ORG $+1	; std::ranges::views::single
CONST	ENDS
;	COMDAT ?copy@ranges@std@@3V_Copy_fn@12@B
CONST	SEGMENT
?copy@ranges@std@@3V_Copy_fn@12@B	ORG $+1		; std::ranges::copy
CONST	ENDS
;	COMDAT ?_Max_P@?$_General_precision_tables_2@M@std@@2HB
CONST	SEGMENT
?_Max_P@?$_General_precision_tables_2@M@std@@2HB DD 027H ; std::_General_precision_tables_2<float>::_Max_P
CONST	ENDS
;	COMDAT ??_R2bad_variant_access@std@@8
rdata$r	SEGMENT
??_R2bad_variant_access@std@@8 DD imagerel ??_R1A@?0A@EA@bad_variant_access@std@@8 ; std::bad_variant_access::`RTTI Base Class Array'
	DD	imagerel ??_R1A@?0A@EA@exception@std@@8
	ORG $+3
rdata$r	ENDS
;	COMDAT ??_R1A@?0A@EA@bad_variant_access@std@@8
rdata$r	SEGMENT
??_R1A@?0A@EA@bad_variant_access@std@@8 DD imagerel ??_R0?AVbad_variant_access@std@@@8 ; std::bad_variant_access::`RTTI Base Class Descriptor at (0,-1,0,64)'
	DD	01H
	DD	00H
	DD	0ffffffffH
	DD	00H
	DD	040H
	DD	imagerel ??_R3bad_variant_access@std@@8
rdata$r	ENDS
;	COMDAT ?__noop_coroutine_frame_instance@@3U__noop_coroutine_frame_standard@@A
_DATA	SEGMENT
?__noop_coroutine_frame_instance@@3U__noop_coroutine_frame_standard@@A DQ FLAT:?__noop_coroutine_handler@@YAXPEAX@Z ; __noop_coroutine_frame_instance
	DQ	FLAT:?__noop_coroutine_handler@@YAXPEAX@Z
	DB	00H
	ORG $+7
_DATA	ENDS
;	COMDAT ??_R4bad_variant_access@std@@6B@
rdata$r	SEGMENT
??_R4bad_variant_access@std@@6B@ DD 01H			; std::bad_variant_access::`RTTI Complete Object Locator'
	DD	00H
	DD	00H
	DD	imagerel ??_R0?AVbad_variant_access@std@@@8
	DD	imagerel ??_R3bad_variant_access@std@@8
	DD	imagerel ??_R4bad_variant_access@std@@6B@
rdata$r	ENDS
;	COMDAT ??_7bad_variant_access@std@@6B@
CONST	SEGMENT
??_7bad_variant_access@std@@6B@ DQ FLAT:??_R4bad_variant_access@std@@6B@ ; std::bad_variant_access::`vftable'
	DQ	FLAT:??_Ebad_variant_access@std@@UEAAPEAXI@Z
	DQ	FLAT:?what@bad_variant_access@std@@UEBAPEBDXZ
CONST	ENDS
;	COMDAT ??_C@_0DB@JCBPAAGK@Internal?5error?5loading?5IANA?5dat@
CONST	SEGMENT
??_C@_0DB@JCBPAAGK@Internal?5error?5loading?5IANA?5dat@ DB 'Internal erro'
	DB	'r loading IANA database information', 00H	; `string'
CONST	ENDS
;	COMDAT ??_C@_0BD@FGIAGBIG@bad?5variant?5access@
CONST	SEGMENT
??_C@_0BD@FGIAGBIG@bad?5variant?5access@ DB 'bad variant access', 00H ; `string'
PUBLIC	??0_Sentry_base@?$basic_ostream@DU?$char_traits@D@std@@@std@@QEAA@AEAV12@@Z ; std::basic_ostream<char,std::char_traits<char> >::_Sentry_base::_Sentry_base
PUBLIC	??1_Sentry_base@?$basic_ostream@DU?$char_traits@D@std@@@std@@QEAA@XZ ; std::basic_ostream<char,std::char_traits<char> >::_Sentry_base::~_Sentry_base
PUBLIC	??0sentry@?$basic_ostream@DU?$char_traits@D@std@@@std@@QEAA@AEAV12@@Z ; std::basic_ostream<char,std::char_traits<char> >::sentry::sentry
PUBLIC	??1sentry@?$basic_ostream@DU?$char_traits@D@std@@@std@@QEAA@XZ ; std::basic_ostream<char,std::char_traits<char> >::sentry::~sentry
PUBLIC	??Bsentry@?$basic_ostream@DU?$char_traits@D@std@@@std@@QEBA_NXZ ; std::basic_ostream<char,std::char_traits<char> >::sentry::operator bool
PUBLIC	??0_Sentry_base@?$basic_ostream@_WU?$char_traits@_W@std@@@std@@QEAA@AEAV12@@Z ; std::basic_ostream<wchar_t,std::char_traits<wchar_t> >::_Sentry_base::_Sentry_base
PUBLIC	??1_Sentry_base@?$basic_ostream@_WU?$char_traits@_W@std@@@std@@QEAA@XZ ; std::basic_ostream<wchar_t,std::char_traits<wchar_t> >::_Sentry_base::~_Sentry_base
PUBLIC	??0sentry@?$basic_ostream@_WU?$char_traits@_W@std@@@std@@QEAA@AEAV12@@Z ; std::basic_ostream<wchar_t,std::char_traits<wchar_t> >::sentry::sentry
PUBLIC	??1sentry@?$basic_ostream@_WU?$char_traits@_W@std@@@std@@QEAA@XZ ; std::basic_ostream<wchar_t,std::char_traits<wchar_t> >::sentry::~sentry
PUBLIC	??Bsentry@?$basic_ostream@_WU?$char_traits@_W@std@@@std@@QEBA_NXZ ; std::basic_ostream<wchar_t,std::char_traits<wchar_t> >::sentry::operator bool
PUBLIC	??_Gbad_variant_access@std@@UEAAPEAXI@Z		; std::bad_variant_access::`scalar deleting destructor'
PUBLIC	??1bad_variant_access@std@@UEAA@XZ		; std::bad_variant_access::~bad_variant_access
EXTRN	??_Ebad_variant_access@std@@UEAAPEAXI@Z:PROC	; std::bad_variant_access::`vector deleting destructor'
;	COMDAT pdata
pdata	SEGMENT
$pdata$??0_Sentry_base@?$basic_ostream@DU?$char_traits@D@std@@@std@@QEAA@AEAV12@@Z DD imagerel $LN11@Sentry_bas
	DD	imagerel $LN11@Sentry_bas+51
	DD	imagerel $unwind$??0_Sentry_base@?$basic_ostream@DU?$char_traits@D@std@@@std@@QEAA@AEAV12@@Z
pdata	ENDS
;	COMDAT pdata
pdata	SEGMENT
$pdata$??1_Sentry_base@?$basic_ostream@DU?$char_traits@D@std@@@std@@QEAA@XZ DD imagerel $LN12@Sentry_bas
	DD	imagerel $LN12@Sentry_bas+43
	DD	imagerel $unwind$??1_Sentry_base@?$basic_ostream@DU?$char_traits@D@std@@@std@@QEAA@XZ
pdata	ENDS
;	COMDAT pdata
pdata	SEGMENT
$pdata$??0sentry@?$basic_ostream@DU?$char_traits@D@std@@@std@@QEAA@AEAV12@@Z DD imagerel $LN22@sentry
	DD	imagerel $LN22@sentry+157
	DD	imagerel $unwind$??0sentry@?$basic_ostream@DU?$char_traits@D@std@@@std@@QEAA@AEAV12@@Z
pdata	ENDS
;	COMDAT pdata
pdata	SEGMENT
$pdata$??1sentry@?$basic_ostream@DU?$char_traits@D@std@@@std@@QEAA@XZ DD imagerel $LN18@sentry
	DD	imagerel $LN18@sentry+69
	DD	imagerel $unwind$??1sentry@?$basic_ostream@DU?$char_traits@D@std@@@std@@QEAA@XZ
pdata	ENDS
;	COMDAT pdata
pdata	SEGMENT
$pdata$??0_Sentry_base@?$basic_ostream@_WU?$char_traits@_W@std@@@std@@QEAA@AEAV12@@Z DD imagerel $LN11@Sentry_bas
	DD	imagerel $LN11@Sentry_bas+51
	DD	imagerel $unwind$??0_Sentry_base@?$basic_ostream@_WU?$char_traits@_W@std@@@std@@QEAA@AEAV12@@Z
pdata	ENDS
;	COMDAT pdata
pdata	SEGMENT
$pdata$??1_Sentry_base@?$basic_ostream@_WU?$char_traits@_W@std@@@std@@QEAA@XZ DD imagerel $LN12@Sentry_bas
	DD	imagerel $LN12@Sentry_bas+43
	DD	imagerel $unwind$??1_Sentry_base@?$basic_ostream@_WU?$char_traits@_W@std@@@std@@QEAA@XZ
pdata	ENDS
;	COMDAT pdata
pdata	SEGMENT
$pdata$??0sentry@?$basic_ostream@_WU?$char_traits@_W@std@@@std@@QEAA@AEAV12@@Z DD imagerel $LN22@sentry
	DD	imagerel $LN22@sentry+157
	DD	imagerel $unwind$??0sentry@?$basic_ostream@_WU?$char_traits@_W@std@@@std@@QEAA@AEAV12@@Z
pdata	ENDS
;	COMDAT pdata
pdata	SEGMENT
$pdata$??1sentry@?$basic_ostream@_WU?$char_traits@_W@std@@@std@@QEAA@XZ DD imagerel $LN18@sentry
	DD	imagerel $LN18@sentry+69
	DD	imagerel $unwind$??1sentry@?$basic_ostream@_WU?$char_traits@_W@std@@@std@@QEAA@XZ
pdata	ENDS
;	COMDAT pdata
pdata	SEGMENT
$pdata$??_Gbad_variant_access@std@@UEAAPEAXI@Z DD imagerel $LN15@scalar
	DD	imagerel $LN15@scalar+67
	DD	imagerel $unwind$??_Gbad_variant_access@std@@UEAAPEAXI@Z
pdata	ENDS
;	COMDAT xdata
xdata	SEGMENT
$unwind$??_Gbad_variant_access@std@@UEAAPEAXI@Z DQ 00006340a00040a01r ; 8.62672e-309
	DD	07006320aH
xdata	ENDS
;	COMDAT xdata
xdata	SEGMENT
$ip2state$??1sentry@?$basic_ostream@_WU?$char_traits@_W@std@@@std@@QEAA@XZ DW 07002H
	DB	02H
xdata	ENDS
;	COMDAT xdata
xdata	SEGMENT
$stateUnwindMap$??1sentry@?$basic_ostream@_WU?$char_traits@_W@std@@@std@@QEAA@XZ DW 0e02H
	DD	imagerel __std_terminate
xdata	ENDS
;	COMDAT xdata
xdata	SEGMENT
$cppxdata$??1sentry@?$basic_ostream@_WU?$char_traits@_W@std@@@std@@QEAA@XZ DB 068H
	DD	imagerel $stateUnwindMap$??1sentry@?$basic_ostream@_WU?$char_traits@_W@std@@@std@@QEAA@XZ
	DD	imagerel $ip2state$??1sentry@?$basic_ostream@_WU?$char_traits@_W@std@@@std@@QEAA@XZ
xdata	ENDS
;	COMDAT xdata
xdata	SEGMENT
$unwind$??1sentry@?$basic_ostream@_WU?$char_traits@_W@std@@@std@@QEAA@XZ DQ 03002320600020619r ; 1.96423e-77
	DD	imagerel __CxxFrameHandler4
	DD	imagerel $cppxdata$??1sentry@?$basic_ostream@_WU?$char_traits@_W@std@@@std@@QEAA@XZ
xdata	ENDS
;	COMDAT xdata
xdata	SEGMENT
$ip2state$??0sentry@?$basic_ostream@_WU?$char_traits@_W@std@@@std@@QEAA@AEAV12@@Z DD 062006e04H
	DB	02H
xdata	ENDS
;	COMDAT xdata
xdata	SEGMENT
$stateUnwindMap$??0sentry@?$basic_ostream@_WU?$char_traits@_W@std@@@std@@QEAA@AEAV12@@Z DW 0c02H
	DD	imagerel ??1_Sentry_base@?$basic_ostream@_WU?$char_traits@_W@std@@@std@@QEAA@XZ
	DB	060H
xdata	ENDS
;	COMDAT xdata
xdata	SEGMENT
$cppxdata$??0sentry@?$basic_ostream@_WU?$char_traits@_W@std@@@std@@QEAA@AEAV12@@Z DB 028H
	DD	imagerel $stateUnwindMap$??0sentry@?$basic_ostream@_WU?$char_traits@_W@std@@@std@@QEAA@AEAV12@@Z
	DD	imagerel $ip2state$??0sentry@?$basic_ostream@_WU?$char_traits@_W@std@@@std@@QEAA@AEAV12@@Z
xdata	ENDS
;	COMDAT xdata
xdata	SEGMENT
$unwind$??0sentry@?$basic_ostream@_WU?$char_traits@_W@std@@@std@@QEAA@AEAV12@@Z DQ 00008641400061411r ; 1.1669e-308
	DQ	07010321400073414r		; 6.286e+231
	DD	imagerel __CxxFrameHandler4
	DD	imagerel $cppxdata$??0sentry@?$basic_ostream@_WU?$char_traits@_W@std@@@std@@QEAA@AEAV12@@Z
xdata	ENDS
;	COMDAT xdata
xdata	SEGMENT
$ip2state$??1_Sentry_base@?$basic_ostream@_WU?$char_traits@_W@std@@@std@@QEAA@XZ DW 03e02H
	DB	00H
xdata	ENDS
;	COMDAT xdata
xdata	SEGMENT
$cppxdata$??1_Sentry_base@?$basic_ostream@_WU?$char_traits@_W@std@@@std@@QEAA@XZ DB 060H
	DD	imagerel $ip2state$??1_Sentry_base@?$basic_ostream@_WU?$char_traits@_W@std@@@std@@QEAA@XZ
xdata	ENDS
;	COMDAT xdata
xdata	SEGMENT
$unwind$??1_Sentry_base@?$basic_ostream@_WU?$char_traits@_W@std@@@std@@QEAA@XZ DQ 00000420400010419r ; 3.58617e-310
	DD	imagerel __CxxFrameHandler4
	DD	imagerel $cppxdata$??1_Sentry_base@?$basic_ostream@_WU?$char_traits@_W@std@@@std@@QEAA@XZ
xdata	ENDS
;	COMDAT xdata
xdata	SEGMENT
$unwind$??0_Sentry_base@?$basic_ostream@_WU?$char_traits@_W@std@@@std@@QEAA@AEAV12@@Z DQ 03002320600020601r ; 1.96423e-77
xdata	ENDS
;	COMDAT xdata
xdata	SEGMENT
$ip2state$??1sentry@?$basic_ostream@DU?$char_traits@D@std@@@std@@QEAA@XZ DW 07002H
	DB	02H
xdata	ENDS
;	COMDAT xdata
xdata	SEGMENT
$stateUnwindMap$??1sentry@?$basic_ostream@DU?$char_traits@D@std@@@std@@QEAA@XZ DW 0e02H
	DD	imagerel __std_terminate
xdata	ENDS
;	COMDAT xdata
xdata	SEGMENT
$cppxdata$??1sentry@?$basic_ostream@DU?$char_traits@D@std@@@std@@QEAA@XZ DB 068H
	DD	imagerel $stateUnwindMap$??1sentry@?$basic_ostream@DU?$char_traits@D@std@@@std@@QEAA@XZ
	DD	imagerel $ip2state$??1sentry@?$basic_ostream@DU?$char_traits@D@std@@@std@@QEAA@XZ
xdata	ENDS
;	COMDAT xdata
xdata	SEGMENT
$unwind$??1sentry@?$basic_ostream@DU?$char_traits@D@std@@@std@@QEAA@XZ DQ 03002320600020619r ; 1.96423e-77
	DD	imagerel __CxxFrameHandler4
	DD	imagerel $cppxdata$??1sentry@?$basic_ostream@DU?$char_traits@D@std@@@std@@QEAA@XZ
xdata	ENDS
;	COMDAT xdata
xdata	SEGMENT
$ip2state$??0sentry@?$basic_ostream@DU?$char_traits@D@std@@@std@@QEAA@AEAV12@@Z DD 062006e04H
	DB	02H
xdata	ENDS
;	COMDAT xdata
xdata	SEGMENT
$stateUnwindMap$??0sentry@?$basic_ostream@DU?$char_traits@D@std@@@std@@QEAA@AEAV12@@Z DW 0c02H
	DD	imagerel ??1_Sentry_base@?$basic_ostream@DU?$char_traits@D@std@@@std@@QEAA@XZ
	DB	060H
xdata	ENDS
;	COMDAT xdata
xdata	SEGMENT
$cppxdata$??0sentry@?$basic_ostream@DU?$char_traits@D@std@@@std@@QEAA@AEAV12@@Z DB 028H
	DD	imagerel $stateUnwindMap$??0sentry@?$basic_ostream@DU?$char_traits@D@std@@@std@@QEAA@AEAV12@@Z
	DD	imagerel $ip2state$??0sentry@?$basic_ostream@DU?$char_traits@D@std@@@std@@QEAA@AEAV12@@Z
xdata	ENDS
;	COMDAT xdata
xdata	SEGMENT
$unwind$??0sentry@?$basic_ostream@DU?$char_traits@D@std@@@std@@QEAA@AEAV12@@Z DQ 00008641400061411r ; 1.1669e-308
	DQ	07010321400073414r		; 6.286e+231
	DD	imagerel __CxxFrameHandler4
	DD	imagerel $cppxdata$??0sentry@?$basic_ostream@DU?$char_traits@D@std@@@std@@QEAA@AEAV12@@Z
xdata	ENDS
;	COMDAT xdata
xdata	SEGMENT
$ip2state$??1_Sentry_base@?$basic_ostream@DU?$char_traits@D@std@@@std@@QEAA@XZ DW 03e02H
	DB	00H
xdata	ENDS
;	COMDAT xdata
xdata	SEGMENT
$cppxdata$??1_Sentry_base@?$basic_ostream@DU?$char_traits@D@std@@@std@@QEAA@XZ DB 060H
	DD	imagerel $ip2state$??1_Sentry_base@?$basic_ostream@DU?$char_traits@D@std@@@std@@QEAA@XZ
xdata	ENDS
;	COMDAT xdata
xdata	SEGMENT
$unwind$??1_Sentry_base@?$basic_ostream@DU?$char_traits@D@std@@@std@@QEAA@XZ DQ 00000420400010419r ; 3.58617e-310
	DD	imagerel __CxxFrameHandler4
	DD	imagerel $cppxdata$??1_Sentry_base@?$basic_ostream@DU?$char_traits@D@std@@@std@@QEAA@XZ
xdata	ENDS
;	COMDAT xdata
xdata	SEGMENT
$unwind$??0_Sentry_base@?$basic_ostream@DU?$char_traits@D@std@@@std@@QEAA@AEAV12@@Z DQ 03002320600020601r ; 1.96423e-77
END
